

Microchip MPLAB XC8 Assembler V2.05 build -831301201 
                                                                                               Thu Aug 08 18:41:25 2019

Microchip MPLAB XC8 C Compiler v2.05 (Free license) build 20181220022703 Og1 
     1                           	processor	16F877A
     2                           	opt	pw 120
     3                           	opt	flic
     4                           	psect	strings,global,class=STRING,delta=2
     5                           	psect	cinit,global,class=CODE,merge=1,delta=2
     6                           	psect	bssBANK1,global,class=BANK1,space=1,delta=1
     7                           	psect	cstackBANK3,global,class=BANK3,space=1,delta=1
     8                           	psect	cstackBANK1,global,class=BANK1,space=1,delta=1
     9                           	psect	cstackCOMMON,global,class=COMMON,space=1,delta=1
    10                           	psect	cstackBANK0,global,class=BANK0,space=1,delta=1
    11                           	psect	maintext,global,class=CODE,split=1,delta=2
    12                           	psect	text1,local,class=CODE,merge=1,delta=2,group=2
    13                           	psect	text2,local,class=CODE,merge=1,delta=2,group=2
    14                           	psect	text3,local,class=CODE,merge=1,delta=2,group=1
    15                           	psect	text4,local,class=CODE,merge=1,delta=2,group=2
    16                           	psect	text5,local,class=CODE,merge=1,delta=2,group=2
    17                           	psect	text6,local,class=CODE,merge=1,delta=2,group=1
    18                           	psect	text7,local,class=CODE,merge=1,delta=2,group=1
    19                           	psect	text8,local,class=CODE,merge=1,delta=2,group=2
    20                           	psect	text9,local,class=CODE,merge=1,delta=2,group=1
    21                           	psect	text10,local,class=CODE,merge=1,delta=2,group=1
    22                           	psect	text11,local,class=CODE,merge=1,delta=2
    23                           	psect	text12,local,class=CODE,merge=1,delta=2
    24                           	psect	text13,local,class=CODE,merge=1,delta=2,group=1
    25                           	psect	text14,local,class=CODE,merge=1,delta=2,group=1
    26                           	psect	text15,local,class=CODE,merge=1,delta=2,group=1
    27                           	psect	text16,local,class=CODE,merge=1,delta=2,group=1
    28                           	psect	text17,local,class=CODE,merge=1,delta=2,group=1
    29                           	psect	text18,local,class=CODE,merge=1,delta=2,group=1
    30                           	psect	text19,local,class=CODE,merge=1,delta=2,group=1
    31                           	psect	text20,local,class=CODE,merge=1,delta=2,group=1
    32                           	psect	text21,local,class=CODE,merge=1,delta=2
    33                           	psect	text22,local,class=CODE,merge=1,delta=2
    34                           	psect	text23,local,class=CODE,merge=1,delta=2
    35                           	psect	text24,local,class=CODE,merge=1,delta=2
    36                           	psect	maintext_split_1,global,class=CODE,split=1,delta=2
    37                           	dabs	1,0x7E,2
    38  0000                     
    39                           ; Version 2.05
    40                           ; Generated 20/12/2018 GMT
    41                           ; 
    42                           ; Copyright © 2018, Microchip Technology Inc. and its subsidiaries ("Microchip")
    43                           ; All rights reserved.
    44                           ; 
    45                           ; This software is developed by Microchip Technology Inc. and its subsidiaries ("Microch
      +                          ip").
    46                           ; 
    47                           ; Redistribution and use in source and binary forms, with or without modification, are
    48                           ; permitted provided that the following conditions are met:
    49                           ; 
    50                           ;     1. Redistributions of source code must retain the above copyright notice, this lis
      +                          t of
    51                           ;        conditions and the following disclaimer.
    52                           ; 
    53                           ;     2. Redistributions in binary form must reproduce the above copyright notice, this 
      +                          list
    54                           ;        of conditions and the following disclaimer in the documentation and/or other
    55                           ;        materials provided with the distribution.
    56                           ; 
    57                           ;     3. Microchip's name may not be used to endorse or promote products derived from th
      +                          is
    58                           ;        software without specific prior written permission.
    59                           ; 
    60                           ; THIS SOFTWARE IS PROVIDED BY MICROCHIP "AS IS" AND ANY EXPRESS OR IMPLIED WARRANTIES,
    61                           ; INCLUDING, BUT NOT LIMITED TO, THE IMPLIED WARRANTIES OF MERCHANTABILITY AND FITNESS F
      +                          OR
    62                           ; PURPOSE ARE DISCLAIMED.  IN NO EVENT SHALL MICROCHIP BE LIABLE FOR ANY DIRECT, INDIREC
      +                          T,
    63                           ; INCIDENTAL, SPECIAL, EXEMPLARY, OR CONSEQUENTIAL DAMAGES (INCLUDING BUT NOT LIMITED TO
    64                           ; PROCUREMENT OF SUBSTITUTE GOODS OR SERVICES; LOSS OF USE, DATA OR PROFITS; OR BUSINESS
    65                           ; INTERRUPTION) HOWSOEVER CAUSED AND ON ANY THEORY OF LIABILITY, WHETHER IN CONTRACT, ST
      +                          RICT
    66                           ; LIABILITY, OR TORT (INCLUDING NEGLIGENCE OR OTHERWISE) ARISING IN ANY WAY OUT OF THE U
      +                          SE OF
    67                           ; THIS SOFTWARE, EVEN IF ADVISED OF THE POSSIBILITY OF SUCH DAMAGE.
    68                           ; 
    69                           ; 
    70                           ; Code-generator required, PIC16F877A Definitions
    71                           ; 
    72                           ; SFR Addresses
    73  0000                     	;# 
    74  0001                     	;# 
    75  0002                     	;# 
    76  0003                     	;# 
    77  0004                     	;# 
    78  0005                     	;# 
    79  0006                     	;# 
    80  0007                     	;# 
    81  0008                     	;# 
    82  0009                     	;# 
    83  000A                     	;# 
    84  000B                     	;# 
    85  000C                     	;# 
    86  000D                     	;# 
    87  000E                     	;# 
    88  000E                     	;# 
    89  000F                     	;# 
    90  0010                     	;# 
    91  0011                     	;# 
    92  0012                     	;# 
    93  0013                     	;# 
    94  0014                     	;# 
    95  0015                     	;# 
    96  0015                     	;# 
    97  0016                     	;# 
    98  0017                     	;# 
    99  0018                     	;# 
   100  0019                     	;# 
   101  001A                     	;# 
   102  001B                     	;# 
   103  001B                     	;# 
   104  001C                     	;# 
   105  001D                     	;# 
   106  001E                     	;# 
   107  001F                     	;# 
   108  0081                     	;# 
   109  0085                     	;# 
   110  0086                     	;# 
   111  0087                     	;# 
   112  0088                     	;# 
   113  0089                     	;# 
   114  008C                     	;# 
   115  008D                     	;# 
   116  008E                     	;# 
   117  0091                     	;# 
   118  0092                     	;# 
   119  0093                     	;# 
   120  0094                     	;# 
   121  0098                     	;# 
   122  0099                     	;# 
   123  009C                     	;# 
   124  009D                     	;# 
   125  009E                     	;# 
   126  009F                     	;# 
   127  010C                     	;# 
   128  010D                     	;# 
   129  010E                     	;# 
   130  010F                     	;# 
   131  018C                     	;# 
   132  018D                     	;# 
   133  0000                     	;# 
   134  0001                     	;# 
   135  0002                     	;# 
   136  0003                     	;# 
   137  0004                     	;# 
   138  0005                     	;# 
   139  0006                     	;# 
   140  0007                     	;# 
   141  0008                     	;# 
   142  0009                     	;# 
   143  000A                     	;# 
   144  000B                     	;# 
   145  000C                     	;# 
   146  000D                     	;# 
   147  000E                     	;# 
   148  000E                     	;# 
   149  000F                     	;# 
   150  0010                     	;# 
   151  0011                     	;# 
   152  0012                     	;# 
   153  0013                     	;# 
   154  0014                     	;# 
   155  0015                     	;# 
   156  0015                     	;# 
   157  0016                     	;# 
   158  0017                     	;# 
   159  0018                     	;# 
   160  0019                     	;# 
   161  001A                     	;# 
   162  001B                     	;# 
   163  001B                     	;# 
   164  001C                     	;# 
   165  001D                     	;# 
   166  001E                     	;# 
   167  001F                     	;# 
   168  0081                     	;# 
   169  0085                     	;# 
   170  0086                     	;# 
   171  0087                     	;# 
   172  0088                     	;# 
   173  0089                     	;# 
   174  008C                     	;# 
   175  008D                     	;# 
   176  008E                     	;# 
   177  0091                     	;# 
   178  0092                     	;# 
   179  0093                     	;# 
   180  0094                     	;# 
   181  0098                     	;# 
   182  0099                     	;# 
   183  009C                     	;# 
   184  009D                     	;# 
   185  009E                     	;# 
   186  009F                     	;# 
   187  010C                     	;# 
   188  010D                     	;# 
   189  010E                     	;# 
   190  010F                     	;# 
   191  018C                     	;# 
   192  018D                     	;# 
   193                           
   194                           	psect	strings
   195  1800                     __pstrings:	
   196  1800                     stringtab:	
   197  1800                     __stringtab:	
   198  1800                     stringcode:	
   199                           ;	String table - string pointers are 1 byte each
   200                           
   201  1800                     stringdir:	
   202  1800  3018               	movlw	high stringdir
   203  1801  008A               	movwf	10
   204  1802  0804               	movf	4,w
   205  1803  0A84               	incf	4,f
   206  1804  0782               	addwf	2,f
   207  1805                     __stringbase:	
   208  1805  3400               	retlw	0
   209  1806                     __end_of__stringtab:	
   210  1806                     atan@coeff_a:	
   211  1806  3406               	retlw	6
   212  1807  343C               	retlw	60
   213  1808  3404               	retlw	4
   214  1809  3442               	retlw	66
   215  180A  347D               	retlw	125
   216  180B  349F               	retlw	159
   217  180C  346A               	retlw	106
   218  180D  3442               	retlw	66
   219  180E  345C               	retlw	92
   220  180F  3490               	retlw	144
   221  1810  3401               	retlw	1
   222  1811  3442               	retlw	66
   223  1812  3460               	retlw	96
   224  1813  344D               	retlw	77
   225  1814  34BB               	retlw	187
   226  1815  3440               	retlw	64
   227  1816  3451               	retlw	81
   228  1817  34EC               	retlw	236
   229  1818  3447               	retlw	71
   230  1819  343E               	retlw	62
   231  181A  34DE               	retlw	222
   232  181B  348D               	retlw	141
   233  181C  341F               	retlw	31
   234  181D  34BB               	retlw	187
   235  181E                     __end_ofatan@coeff_a:	
   236  181E                     atan@coeff_b:	
   237  181E  3406               	retlw	6
   238  181F  343C               	retlw	60
   239  1820  3404               	retlw	4
   240  1821  3442               	retlw	66
   241  1822  34C0               	retlw	192
   242  1823  3459               	retlw	89
   243  1824  348B               	retlw	139
   244  1825  3442               	retlw	66
   245  1826  3474               	retlw	116
   246  1827  3404               	retlw	4
   247  1828  3444               	retlw	68
   248  1829  3442               	retlw	66
   249  182A  34F9               	retlw	249
   250  182B  349B               	retlw	155
   251  182C  344F               	retlw	79
   252  182D  3441               	retlw	65
   253  182E  3400               	retlw	0
   254  182F  3400               	retlw	0
   255  1830  3480               	retlw	128
   256  1831  343F               	retlw	63
   257  1832                     __end_ofatan@coeff_b:	
   258  0019                     _TXREG	set	25
   259  001E                     _ADRESH	set	30
   260  001F                     _ADCON0	set	31
   261  0064                     _TXIF	set	100
   262  00C6                     _RX9	set	198
   263  00C4                     _CREN	set	196
   264  00C7                     _SPEN	set	199
   265  00FA                     _GO_nDONE	set	250
   266  00F8                     _ADON	set	248
   267  0086                     _TRISB	set	134
   268  0099                     _SPBRG	set	153
   269  009E                     _ADRESL	set	158
   270  009F                     _ADCON1	set	159
   271  0430                     _TRISB0	set	1072
   272  04C6                     _TX9	set	1222
   273  04C5                     _TXEN	set	1221
   274  04C4                     _SYNC	set	1220
   275  04C2                     _BRGH	set	1218
   276  043F                     _TRISC7	set	1087
   277  043E                     _TRISC6	set	1086
   278  1832                     STR_1:	
   279  1832  3455               	retlw	85	;'U'
   280  1833  3441               	retlw	65	;'A'
   281  1834  3452               	retlw	82	;'R'
   282  1835  3454               	retlw	84	;'T'
   283  1836  3420               	retlw	32	;' '
   284  1837  344D               	retlw	77	;'M'
   285  1838  346F               	retlw	111	;'o'
   286  1839  3464               	retlw	100	;'d'
   287  183A  3475               	retlw	117	;'u'
   288  183B  346C               	retlw	108	;'l'
   289  183C  3465               	retlw	101	;'e'
   290  183D  3420               	retlw	32	;' '
   291  183E  3449               	retlw	73	;'I'
   292  183F  346E               	retlw	110	;'n'
   293  1840  3469               	retlw	105	;'i'
   294  1841  3474               	retlw	116	;'t'
   295  1842  3469               	retlw	105	;'i'
   296  1843  3461               	retlw	97	;'a'
   297  1844  346C               	retlw	108	;'l'
   298  1845  3469               	retlw	105	;'i'
   299  1846  347A               	retlw	122	;'z'
   300  1847  3465               	retlw	101	;'e'
   301  1848  3464               	retlw	100	;'d'
   302  1849  3420               	retlw	32	;' '
   303  184A  3461               	retlw	97	;'a'
   304  184B  346E               	retlw	110	;'n'
   305  184C  3464               	retlw	100	;'d'
   306  184D  3420               	retlw	32	;' '
   307  184E  3461               	retlw	97	;'a'
   308  184F  3463               	retlw	99	;'c'
   309  1850  3474               	retlw	116	;'t'
   310  1851  3469               	retlw	105	;'i'
   311  1852  3476               	retlw	118	;'v'
   312  1853  3465               	retlw	101	;'e'
   313  1854  3400               	retlw	0
   314  1855                     STR_3:	
   315  1855  3453               	retlw	83	;'S'
   316  1856  3455               	retlw	85	;'U'
   317  1857  344E               	retlw	78	;'N'
   318  1858  3420               	retlw	32	;' '
   319  1859  3453               	retlw	83	;'S'
   320  185A  3445               	retlw	69	;'E'
   321  185B  344E               	retlw	78	;'N'
   322  185C  3453               	retlw	83	;'S'
   323  185D  344F               	retlw	79	;'O'
   324  185E  3452               	retlw	82	;'R'
   325  185F  3420               	retlw	32	;' '
   326  1860  3457               	retlw	87	;'W'
   327  1861  344F               	retlw	79	;'O'
   328  1862  3452               	retlw	82	;'R'
   329  1863  344B               	retlw	75	;'K'
   330  1864  3449               	retlw	73	;'I'
   331  1865  344E               	retlw	78	;'N'
   332  1866  3447               	retlw	71	;'G'
   333  1867  342E               	retlw	46	;'.'
   334  1868  342E               	retlw	46	;'.'
   335  1869  342E               	retlw	46	;'.'
   336  186A  3400               	retlw	0
   337  186B                     STR_11:	
   338  186B  3420               	retlw	32	;' '
   339  186C  344E               	retlw	78	;'N'
   340  186D  3445               	retlw	69	;'E'
   341  186E  3447               	retlw	71	;'G'
   342  186F  3420               	retlw	32	;' '
   343  1870  3458               	retlw	88	;'X'
   344  1871  3420               	retlw	32	;' '
   345  1872  3441               	retlw	65	;'A'
   346  1873  3458               	retlw	88	;'X'
   347  1874  3449               	retlw	73	;'I'
   348  1875  3453               	retlw	83	;'S'
   349  1876  343A               	retlw	58	;':'
   350  1877  3420               	retlw	32	;' '
   351  1878  3400               	retlw	0
   352  1879                     STR_13:	
   353  1879  3420               	retlw	32	;' '
   354  187A  344E               	retlw	78	;'N'
   355  187B  3445               	retlw	69	;'E'
   356  187C  3447               	retlw	71	;'G'
   357  187D  3420               	retlw	32	;' '
   358  187E  3459               	retlw	89	;'Y'
   359  187F  3420               	retlw	32	;' '
   360  1880  3441               	retlw	65	;'A'
   361  1881  3458               	retlw	88	;'X'
   362  1882  3449               	retlw	73	;'I'
   363  1883  3453               	retlw	83	;'S'
   364  1884  343A               	retlw	58	;':'
   365  1885  3400               	retlw	0
   366  1886                     STR_7:	
   367  1886  3420               	retlw	32	;' '
   368  1887  3459               	retlw	89	;'Y'
   369  1888  3420               	retlw	32	;' '
   370  1889  3441               	retlw	65	;'A'
   371  188A  3458               	retlw	88	;'X'
   372  188B  3449               	retlw	73	;'I'
   373  188C  3453               	retlw	83	;'S'
   374  188D  343A               	retlw	58	;':'
   375  188E  3420               	retlw	32	;' '
   376  188F  3400               	retlw	0
   377  1890                     STR_9:	
   378  1890  3420               	retlw	32	;' '
   379  1891  345A               	retlw	90	;'Z'
   380  1892  3420               	retlw	32	;' '
   381  1893  3441               	retlw	65	;'A'
   382  1894  3458               	retlw	88	;'X'
   383  1895  3449               	retlw	73	;'I'
   384  1896  3453               	retlw	83	;'S'
   385  1897  343A               	retlw	58	;':'
   386  1898  3420               	retlw	32	;' '
   387  1899  3400               	retlw	0
   388  1877                     
   389                           ; #config settings
   390  0000                     
   391                           	psect	cinit
   392  07F8                     start_initialization:	
   393  07F8                     __initialization:	
   394                           
   395                           ; Clear objects allocated to BANK1
   396  07F8  1683               	bsf	3,5	;RP0=1, select bank1
   397  07F9  1303               	bcf	3,6	;RP1=0, select bank1
   398  07FA  01E2               	clrf	__pbssBANK1& (0+127)
   399  07FB  01E3               	clrf	(__pbssBANK1+1)& (0+127)
   400  07FC                     end_of_initialization:	
   401                           ;End of C runtime variable initialization code
   402                           
   403  07FC                     __end_of__initialization:	
   404  07FC  0183               	clrf	3
   405  07FD  120A  118A  283D   	ljmp	_main	;jump to C main() function
   406                           
   407                           	psect	bssBANK1
   408  00E2                     __pbssBANK1:	
   409  00E2                     _errno:	
   410  00E2                     	ds	2
   411                           
   412                           	psect	cstackBANK3
   413  0190                     __pcstackBANK3:	
   414  0190                     main@A:	
   415                           
   416                           ; 4 bytes @ 0x0
   417  0190                     	ds	4
   418  0194                     main@B:	
   419                           
   420                           ; 4 bytes @ 0x4
   421  0194                     	ds	4
   422  0198                     main@C:	
   423                           
   424                           ; 4 bytes @ 0x8
   425  0198                     	ds	4
   426  019C                     main@D:	
   427                           
   428                           ; 4 bytes @ 0xC
   429  019C                     	ds	4
   430  01A0                     main@E:	
   431                           
   432                           ; 4 bytes @ 0x10
   433  01A0                     	ds	4
   434  01A4                     _main$827:	
   435                           
   436                           ; 4 bytes @ 0x14
   437  01A4                     	ds	4
   438  01A8                     _main$828:	
   439                           
   440                           ; 4 bytes @ 0x18
   441  01A8                     	ds	4
   442  01AC                     _main$829:	
   443                           
   444                           ; 4 bytes @ 0x1C
   445  01AC                     	ds	4
   446  01B0                     main@flag:	
   447                           
   448                           ; 2 bytes @ 0x20
   449  01B0                     	ds	2
   450  01B2                     main@i:	
   451                           
   452                           ; 2 bytes @ 0x22
   453  01B2                     	ds	2
   454  01B4                     main@i_98:	
   455                           
   456                           ; 2 bytes @ 0x24
   457  01B4                     	ds	2
   458  01B6                     main@i_103:	
   459                           
   460                           ; 2 bytes @ 0x26
   461  01B6                     	ds	2
   462  01B8                     main@i_106:	
   463                           
   464                           ; 2 bytes @ 0x28
   465  01B8                     	ds	2
   466  01BA                     main@i_109:	
   467                           
   468                           ; 2 bytes @ 0x2A
   469  01BA                     	ds	2
   470  01BC                     main@i_112:	
   471                           
   472                           ; 2 bytes @ 0x2C
   473  01BC                     	ds	2
   474  01BE                     main@i_115:	
   475                           
   476                           ; 2 bytes @ 0x2E
   477  01BE                     	ds	2
   478  01C0                     main@x:	
   479                           
   480                           ; 4 bytes @ 0x30
   481  01C0                     	ds	4
   482  01C4                     main@y:	
   483                           
   484                           ; 4 bytes @ 0x34
   485  01C4                     	ds	4
   486  01C8                     main@z:	
   487                           
   488                           ; 4 bytes @ 0x38
   489  01C8                     	ds	4
   490  01CC                     main@negx:	
   491                           
   492                           ; 4 bytes @ 0x3C
   493  01CC                     	ds	4
   494  01D0                     main@negy:	
   495                           
   496                           ; 4 bytes @ 0x40
   497  01D0                     	ds	4
   498  01D4                     main@r:	
   499                           
   500                           ; 4 bytes @ 0x44
   501  01D4                     	ds	4
   502  01D8                     _main$830:	
   503                           
   504                           ; 4 bytes @ 0x48
   505  01D8                     	ds	4
   506  01DC                     _main$831:	
   507                           
   508                           ; 4 bytes @ 0x4C
   509  01DC                     	ds	4
   510                           
   511                           	psect	cstackBANK1
   512  00A0                     __pcstackBANK1:	
   513  00A0                     ??_eval_poly:	
   514  00A0                     ??___fltol:	
   515                           ; 1 bytes @ 0x0
   516                           
   517  00A0                     ?_sqrt:	
   518                           ; 1 bytes @ 0x0
   519                           
   520  00A0                     sqrt@a:	
   521                           ; 4 bytes @ 0x0
   522                           
   523                           
   524                           ; 4 bytes @ 0x0
   525  00A0                     	ds	4
   526  00A4                     ??_sqrt:	
   527                           
   528                           ; 1 bytes @ 0x4
   529  00A4                     	ds	1
   530  00A5                     ?_UART_send_float:	
   531  00A5                     UART_send_float@bt:	
   532                           ; 1 bytes @ 0x5
   533                           
   534  00A5                     eval_poly@res:	
   535                           ; 4 bytes @ 0x5
   536                           
   537                           
   538                           ; 4 bytes @ 0x5
   539  00A5                     	ds	3
   540  00A8                     sqrt@sign:	
   541                           
   542                           ; 1 bytes @ 0x8
   543  00A8                     	ds	1
   544  00A9                     ?_atan:	
   545  00A9                     sqrt@i:	
   546                           ; 4 bytes @ 0x9
   547                           
   548  00A9                     UART_send_float@f:	
   549                           ; 1 bytes @ 0x9
   550                           
   551  00A9                     atan@f:	
   552                           ; 4 bytes @ 0x9
   553                           
   554                           
   555                           ; 4 bytes @ 0x9
   556  00A9                     	ds	1
   557  00AA                     sqrt@tfrac:	
   558                           
   559                           ; 4 bytes @ 0xA
   560  00AA                     	ds	3
   561  00AD                     UART_send_float@ival1:	
   562  00AD                     atan@y:	
   563                           ; 2 bytes @ 0xD
   564                           
   565                           
   566                           ; 4 bytes @ 0xD
   567  00AD                     	ds	1
   568  00AE                     sqrt@p:	
   569                           
   570                           ; 1 bytes @ 0xE
   571  00AE                     	ds	1
   572  00AF                     UART_send_float@fval1:	
   573  00AF                     sqrt@grs:	
   574                           ; 2 bytes @ 0xF
   575                           
   576                           
   577                           ; 4 bytes @ 0xF
   578  00AF                     	ds	2
   579  00B1                     UART_send_float@fval:	
   580  00B1                     atan@x:	
   581                           ; 2 bytes @ 0x11
   582                           
   583                           
   584                           ; 4 bytes @ 0x11
   585  00B1                     	ds	2
   586  00B3                     UART_send_float@ival:	
   587  00B3                     sqrt@exp:	
   588                           ; 2 bytes @ 0x13
   589                           
   590                           
   591                           ; 2 bytes @ 0x13
   592  00B3                     	ds	2
   593  00B5                     atan@recip:	
   594  00B5                     sqrt@root:	
   595                           ; 1 bytes @ 0x15
   596                           
   597                           
   598                           ; 4 bytes @ 0x15
   599  00B5                     	ds	1
   600  00B6                     atan@val_squared:	
   601                           
   602                           ; 4 bytes @ 0x16
   603  00B6                     	ds	3
   604  00B9                     sqrt@frac:	
   605                           
   606                           ; 4 bytes @ 0x19
   607  00B9                     	ds	1
   608  00BA                     atan@val:	
   609                           
   610                           ; 4 bytes @ 0x1A
   611  00BA                     	ds	4
   612  00BE                     ?_asin:	
   613  00BE                     asin@x:	
   614                           ; 4 bytes @ 0x1E
   615                           
   616                           
   617                           ; 4 bytes @ 0x1E
   618  00BE                     	ds	8
   619  00C6                     _asin$833:	
   620                           
   621                           ; 4 bytes @ 0x26
   622  00C6                     	ds	4
   623  00CA                     _asin$835:	
   624                           
   625                           ; 4 bytes @ 0x2A
   626  00CA                     	ds	4
   627  00CE                     asin@y:	
   628                           
   629                           ; 4 bytes @ 0x2E
   630  00CE                     	ds	4
   631  00D2                     _asin$834:	
   632                           
   633                           ; 4 bytes @ 0x32
   634  00D2                     	ds	4
   635  00D6                     ?_acos:	
   636  00D6                     acos@x:	
   637                           ; 4 bytes @ 0x36
   638                           
   639                           
   640                           ; 4 bytes @ 0x36
   641  00D6                     	ds	4
   642  00DA                     _acos$832:	
   643                           
   644                           ; 4 bytes @ 0x3A
   645  00DA                     	ds	4
   646  00DE                     ??_main:	
   647                           
   648                           ; 1 bytes @ 0x3E
   649  00DE                     	ds	4
   650                           
   651                           	psect	cstackCOMMON
   652  0070                     __pcstackCOMMON:	
   653  0070                     ?___flge:	
   654  0070                     ?_ADC_Initialize:	
   655                           ; 1 bit 
   656                           
   657  0070                     ??_ADC_Initialize:	
   658                           ; 1 bytes @ 0x0
   659                           
   660  0070                     ?_Initialize_UART:	
   661                           ; 1 bytes @ 0x0
   662                           
   663  0070                     ??_Initialize_UART:	
   664                           ; 1 bytes @ 0x0
   665                           
   666  0070                     ?_UART_send_char:	
   667                           ; 1 bytes @ 0x0
   668                           
   669  0070                     ??_UART_send_char:	
   670                           ; 1 bytes @ 0x0
   671                           
   672  0070                     ?_UART_send_string:	
   673                           ; 1 bytes @ 0x0
   674                           
   675  0070                     ?_main:	
   676                           ; 1 bytes @ 0x0
   677                           
   678  0070                     ?__Umul8_16:	
   679                           ; 1 bytes @ 0x0
   680                           
   681  0070                     ?_ADC_Read:	
   682                           ; 2 bytes @ 0x0
   683                           
   684  0070                     ?___awdiv:	
   685                           ; 2 bytes @ 0x0
   686                           
   687  0070                     ?___awmod:	
   688                           ; 2 bytes @ 0x0
   689                           
   690  0070                     UART_send_char@bt:	
   691                           ; 2 bytes @ 0x0
   692                           
   693  0070                     __Umul8_16@multiplicand:	
   694                           ; 1 bytes @ 0x0
   695                           
   696  0070                     ___awdiv@divisor:	
   697                           ; 1 bytes @ 0x0
   698                           
   699  0070                     ___awmod@divisor:	
   700                           ; 2 bytes @ 0x0
   701                           
   702  0070                     ___flge@ff1:	
   703                           ; 2 bytes @ 0x0
   704                           
   705                           
   706                           ; 4 bytes @ 0x0
   707  0070                     	ds	1
   708  0071                     ??_UART_send_string:	
   709                           
   710                           ; 1 bytes @ 0x1
   711  0071                     	ds	1
   712  0072                     ??__Umul8_16:	
   713  0072                     ??_ADC_Read:	
   714                           ; 1 bytes @ 0x2
   715                           
   716  0072                     UART_send_string@st_pt:	
   717                           ; 1 bytes @ 0x2
   718                           
   719  0072                     ___awdiv@dividend:	
   720                           ; 1 bytes @ 0x2
   721                           
   722  0072                     ___awmod@dividend:	
   723                           ; 2 bytes @ 0x2
   724                           
   725                           
   726                           ; 2 bytes @ 0x2
   727  0072                     	ds	2
   728  0074                     ??___awdiv:	
   729  0074                     ??___awmod:	
   730                           ; 1 bytes @ 0x4
   731                           
   732  0074                     ADC_Read@channel:	
   733                           ; 1 bytes @ 0x4
   734                           
   735  0074                     __Umul8_16@product:	
   736                           ; 1 bytes @ 0x4
   737                           
   738  0074                     ___flge@ff2:	
   739                           ; 2 bytes @ 0x4
   740                           
   741                           
   742                           ; 4 bytes @ 0x4
   743  0074                     	ds	1
   744  0075                     ?___xxtofl:	
   745  0075                     ___awdiv@counter:	
   746                           ; 4 bytes @ 0x5
   747                           
   748  0075                     ___awmod@counter:	
   749                           ; 1 bytes @ 0x5
   750                           
   751  0075                     ___xxtofl@val:	
   752                           ; 1 bytes @ 0x5
   753                           
   754                           
   755                           ; 4 bytes @ 0x5
   756  0075                     	ds	1
   757  0076                     ___awdiv@sign:	
   758  0076                     ___awmod@sign:	
   759                           ; 1 bytes @ 0x6
   760                           
   761  0076                     __Umul8_16@word_mpld:	
   762                           ; 1 bytes @ 0x6
   763                           
   764                           
   765                           ; 2 bytes @ 0x6
   766  0076                     	ds	1
   767  0077                     ___awdiv@quotient:	
   768                           
   769                           ; 2 bytes @ 0x7
   770  0077                     	ds	1
   771  0078                     ??___flge:	
   772  0078                     __Umul8_16@multiplier:	
   773                           ; 1 bytes @ 0x8
   774                           
   775                           
   776                           ; 1 bytes @ 0x8
   777  0078                     	ds	1
   778  0079                     ??___xxtofl:	
   779  0079                     ___fladd@signs:	
   780                           ; 1 bytes @ 0x9
   781                           
   782                           
   783                           ; 1 bytes @ 0x9
   784  0079                     	ds	1
   785  007A                     ___fladd@aexp:	
   786                           
   787                           ; 1 bytes @ 0xA
   788  007A                     	ds	1
   789  007B                     ___fladd@bexp:	
   790                           
   791                           ; 1 bytes @ 0xB
   792  007B                     	ds	1
   793  007C                     ___fladd@grs:	
   794                           
   795                           ; 1 bytes @ 0xC
   796  007C                     	ds	1
   797  007D                     ??_fabs:	
   798  007D                     ??_atan:	
   799                           ; 1 bytes @ 0xD
   800                           
   801  007D                     ??_UART_send_float:	
   802                           ; 1 bytes @ 0xD
   803                           
   804  007D                     ??___flneg:	
   805                           ; 1 bytes @ 0xD
   806                           
   807  007D                     ??___flsub:	
   808                           ; 1 bytes @ 0xD
   809                           
   810                           
   811                           ; 1 bytes @ 0xD
   812  007D                     	ds	1
   813  007E                     ??_acos:	
   814  007E                     ??_asin:	
   815                           ; 1 bytes @ 0xE
   816                           
   817                           
   818                           	psect	cstackBANK0
   819  0020                     __pcstackBANK0:	
   820                           ; 1 bytes @ 0xE
   821                           
   822  0020                     ?___fladd:	
   823  0020                     ___xxtofl@sign:	
   824                           ; 4 bytes @ 0x0
   825                           
   826  0020                     ___fladd@b:	
   827                           ; 1 bytes @ 0x0
   828                           
   829                           
   830                           ; 4 bytes @ 0x0
   831  0020                     	ds	1
   832  0021                     ___xxtofl@exp:	
   833                           
   834                           ; 1 bytes @ 0x1
   835  0021                     	ds	1
   836  0022                     ___xxtofl@arg:	
   837                           
   838                           ; 4 bytes @ 0x2
   839  0022                     	ds	2
   840  0024                     ___fladd@a:	
   841                           
   842                           ; 4 bytes @ 0x4
   843  0024                     	ds	4
   844  0028                     ??___fladd:	
   845                           
   846                           ; 1 bytes @ 0x8
   847  0028                     	ds	8
   848  0030                     ?___flneg:	
   849  0030                     ___flneg@f1:	
   850                           ; 4 bytes @ 0x10
   851                           
   852                           
   853                           ; 4 bytes @ 0x10
   854  0030                     	ds	4
   855  0034                     ?_fabs:	
   856  0034                     ?___fldiv:	
   857                           ; 4 bytes @ 0x14
   858                           
   859  0034                     ___fldiv@a:	
   860                           ; 4 bytes @ 0x14
   861                           
   862  0034                     fabs@d:	
   863                           ; 4 bytes @ 0x14
   864                           
   865                           
   866                           ; 4 bytes @ 0x14
   867  0034                     	ds	4
   868  0038                     ?___fleq:	
   869  0038                     ___fleq@ff1:	
   870                           ; 1 bit 
   871                           
   872  0038                     ___fldiv@b:	
   873                           ; 4 bytes @ 0x18
   874                           
   875                           
   876                           ; 4 bytes @ 0x18
   877  0038                     	ds	4
   878  003C                     ??___fldiv:	
   879  003C                     ___fleq@ff2:	
   880                           ; 1 bytes @ 0x1C
   881                           
   882                           
   883                           ; 4 bytes @ 0x1C
   884  003C                     	ds	4
   885  0040                     ??___fleq:	
   886                           
   887                           ; 1 bytes @ 0x20
   888  0040                     	ds	1
   889  0041                     ___fldiv@rem:	
   890                           
   891                           ; 4 bytes @ 0x21
   892  0041                     	ds	4
   893  0045                     ___fldiv@sign:	
   894                           
   895                           ; 1 bytes @ 0x25
   896  0045                     	ds	1
   897  0046                     ___fldiv@new_exp:	
   898                           
   899                           ; 2 bytes @ 0x26
   900  0046                     	ds	2
   901  0048                     ___fldiv@grs:	
   902                           
   903                           ; 4 bytes @ 0x28
   904  0048                     	ds	4
   905  004C                     ___fldiv@bexp:	
   906                           
   907                           ; 1 bytes @ 0x2C
   908  004C                     	ds	1
   909  004D                     ___fldiv@aexp:	
   910                           
   911                           ; 1 bytes @ 0x2D
   912  004D                     	ds	1
   913  004E                     ?___flmul:	
   914  004E                     ___flmul@b:	
   915                           ; 4 bytes @ 0x2E
   916                           
   917                           
   918                           ; 4 bytes @ 0x2E
   919  004E                     	ds	4
   920  0052                     ___flmul@a:	
   921                           
   922                           ; 4 bytes @ 0x32
   923  0052                     	ds	4
   924  0056                     ??___flmul:	
   925                           
   926                           ; 1 bytes @ 0x36
   927  0056                     	ds	5
   928  005B                     ___flmul@sign:	
   929                           
   930                           ; 1 bytes @ 0x3B
   931  005B                     	ds	1
   932  005C                     ___flmul@grs:	
   933                           
   934                           ; 4 bytes @ 0x3C
   935  005C                     	ds	4
   936  0060                     ___flmul@aexp:	
   937                           
   938                           ; 1 bytes @ 0x40
   939  0060                     	ds	1
   940  0061                     ___flmul@bexp:	
   941                           
   942                           ; 1 bytes @ 0x41
   943  0061                     	ds	1
   944  0062                     ___flmul@prod:	
   945                           
   946                           ; 4 bytes @ 0x42
   947  0062                     	ds	4
   948  0066                     ___flmul@temp:	
   949                           
   950                           ; 2 bytes @ 0x46
   951  0066                     	ds	2
   952  0068                     ?_eval_poly:	
   953  0068                     ?___fltol:	
   954                           ; 4 bytes @ 0x48
   955                           
   956  0068                     ?___flsub:	
   957                           ; 4 bytes @ 0x48
   958                           
   959  0068                     ___fltol@f1:	
   960                           ; 4 bytes @ 0x48
   961                           
   962  0068                     ___flsub@a:	
   963                           ; 4 bytes @ 0x48
   964                           
   965  0068                     eval_poly@x:	
   966                           ; 4 bytes @ 0x48
   967                           
   968                           
   969                           ; 4 bytes @ 0x48
   970  0068                     	ds	4
   971  006C                     ___fltol@sign1:	
   972  006C                     eval_poly@d:	
   973                           ; 1 bytes @ 0x4C
   974                           
   975  006C                     ___flsub@b:	
   976                           ; 1 bytes @ 0x4C
   977                           
   978                           
   979                           ; 4 bytes @ 0x4C
   980  006C                     	ds	1
   981  006D                     ___fltol@exp1:	
   982  006D                     eval_poly@n:	
   983                           ; 1 bytes @ 0x4D
   984                           
   985                           
   986                           ; 2 bytes @ 0x4D
   987  006D                     	ds	3
   988                           
   989                           	psect	maintext
   990  003D                     __pmaintext:	
   991 ;;
   992 ;;Main: autosize = 0, tempsize = 4, incstack = 0, save=0
   993 ;;
   994 ;; *************** function _main *****************
   995 ;; Defined at:
   996 ;;		line 110 in file "sun_usart.c"
   997 ;; Parameters:    Size  Location     Type
   998 ;;		None
   999 ;; Auto vars:     Size  Location     Type
  1000 ;;  i               2   46[BANK3 ] int 
  1001 ;;  i               2   44[BANK3 ] int 
  1002 ;;  i               2   42[BANK3 ] int 
  1003 ;;  i               2   40[BANK3 ] int 
  1004 ;;  i               2   38[BANK3 ] int 
  1005 ;;  i               2   36[BANK3 ] int 
  1006 ;;  i               2   34[BANK3 ] int 
  1007 ;;  r               4   68[BANK3 ] float 
  1008 ;;  negy            4   64[BANK3 ] float 
  1009 ;;  negx            4   60[BANK3 ] float 
  1010 ;;  z               4   56[BANK3 ] float 
  1011 ;;  y               4   52[BANK3 ] float 
  1012 ;;  x               4   48[BANK3 ] float 
  1013 ;;  E               4   16[BANK3 ] float 
  1014 ;;  D               4   12[BANK3 ] float 
  1015 ;;  C               4    8[BANK3 ] float 
  1016 ;;  B               4    4[BANK3 ] float 
  1017 ;;  A               4    0[BANK3 ] float 
  1018 ;;  flag            2   32[BANK3 ] short 
  1019 ;; Return value:  Size  Location     Type
  1020 ;;                  1    wreg      void 
  1021 ;; Registers used:
  1022 ;;		wreg, fsr0l, fsr0h, status,2, status,0, btemp+1, pclath, cstack
  1023 ;; Tracked objects:
  1024 ;;		On entry : B00/0
  1025 ;;		On exit  : 0/0
  1026 ;;		Unchanged: 0/0
  1027 ;; Data sizes:     COMMON   BANK0   BANK1   BANK3   BANK2
  1028 ;;      Params:         0       0       0       0       0
  1029 ;;      Locals:         0       0       0      80       0
  1030 ;;      Temps:          0       0       4       0       0
  1031 ;;      Totals:         0       0       4      80       0
  1032 ;;Total ram usage:       84 bytes
  1033 ;; Hardware stack levels required when called:    6
  1034 ;; This function calls:
  1035 ;;		_ADC_Initialize
  1036 ;;		_ADC_Read
  1037 ;;		_Initialize_UART
  1038 ;;		_UART_send_char
  1039 ;;		_UART_send_float
  1040 ;;		_UART_send_string
  1041 ;;		___fladd
  1042 ;;		___fldiv
  1043 ;;		___flmul
  1044 ;;		___xxtofl
  1045 ;;		_acos
  1046 ;;		_sqrt
  1047 ;; This function is called by:
  1048 ;;		Startup code after reset
  1049 ;; This function uses a non-reentrant model
  1050 ;;
  1051                           
  1052                           
  1053                           ;psect for function _main
  1054  003D                     _main:	
  1055                           
  1056                           ;sun_usart.c: 112:     short int flag;;sun_usart.c: 113: float x,y,z,negx,negy,r;;sun_us
      +                          art.c: 114: float A,B,C,D,E;;sun_usart.c: 116: TRISB=0X00;
  1057                           
  1058                           ;incstack = 0
  1059                           ; Regs used in _main: [wreg-fsr0h+status,2+status,0+btemp+1+pclath+cstack]
  1060  003D  1683               	bsf	3,5	;RP0=1, select bank1
  1061  003E  1303               	bcf	3,6	;RP1=0, select bank1
  1062  003F  0186               	clrf	6	;volatile
  1063                           
  1064                           ;sun_usart.c: 117: TRISB0=1;
  1065  0040  1406               	bsf	6,0	;volatile
  1066                           
  1067                           ;sun_usart.c: 119: ADC_Initialize();
  1068  0041  120A  158A  200A  120A  118A  	fcall	_ADC_Initialize
  1069                           
  1070                           ;sun_usart.c: 120: Initialize_UART();
  1071  0046  160A  158A  22C7  120A  118A  	fcall	_Initialize_UART
  1072                           
  1073                           ;sun_usart.c: 122: UART_send_string("UART Module Initialized and active");
  1074  004B  302D               	movlw	(low ((STR_1-__stringbase)| (0+32768)))& (0+255)
  1075  004C  160A  158A  22DF  120A  118A  	fcall	_UART_send_string
  1076                           
  1077                           ;sun_usart.c: 123: for(int i=0;i<10;i++)
  1078  0051  1683               	bsf	3,5	;RP0=1, select bank3
  1079  0052  1703               	bsf	3,6	;RP1=1, select bank3
  1080  0053  01B2               	clrf	main@i^(0+384)
  1081  0054  01B3               	clrf	(main@i+1)^(0+384)
  1082  0055                     l3061:	
  1083                           
  1084                           ;sun_usart.c: 124: UART_send_char(9);
  1085  0055  3009               	movlw	9
  1086  0056  120A  118A  2004  120A  118A  	fcall	_UART_send_char
  1087  005B  3001               	movlw	1
  1088  005C  1683               	bsf	3,5	;RP0=1, select bank3
  1089  005D  1703               	bsf	3,6	;RP1=1, select bank3
  1090  005E  07B2               	addwf	main@i^(0+384),f
  1091  005F  1803               	skipnc
  1092  0060  0AB3               	incf	(main@i+1)^(0+384),f
  1093  0061  3000               	movlw	0
  1094  0062  07B3               	addwf	(main@i+1)^(0+384),f
  1095  0063  0833               	movf	(main@i+1)^(0+384),w
  1096  0064  3A80               	xorlw	128
  1097  0065  00FF               	movwf	127
  1098  0066  3080               	movlw	128
  1099  0067  027F               	subwf	127,w
  1100  0068  1D03               	skipz
  1101  0069  286C               	goto	u4325
  1102  006A  300A               	movlw	10
  1103  006B  0232               	subwf	main@i^(0+384),w
  1104  006C                     u4325:	
  1105  006C  1C03               	skipc
  1106  006D  2855               	goto	l3061
  1107                           
  1108                           ;sun_usart.c: 125: UART_send_string(" ");
  1109  006E  3072               	movlw	(low (((STR_11+12)-__stringbase)| (0+32768)))& (0+255)
  1110  006F  160A  158A  22DF  120A  118A  	fcall	_UART_send_string
  1111                           
  1112                           ;sun_usart.c: 126: UART_send_string("SUN SENSOR WORKING...");
  1113  0074  3050               	movlw	(low ((STR_3-__stringbase)| (0+32768)))& (0+255)
  1114  0075  160A  158A  22DF  120A  118A  	fcall	_UART_send_string
  1115                           
  1116                           ;sun_usart.c: 127: for(int i=0;i<10;i++)
  1117  007A  1683               	bsf	3,5	;RP0=1, select bank3
  1118  007B  1703               	bsf	3,6	;RP1=1, select bank3
  1119  007C  01B4               	clrf	main@i_98^(0+384)
  1120  007D  01B5               	clrf	(main@i_98+1)^(0+384)
  1121  007E                     l3075:	
  1122                           
  1123                           ;sun_usart.c: 128: UART_send_char(9);
  1124  007E  3009               	movlw	9
  1125  007F  120A  118A  2004  120A  118A  	fcall	_UART_send_char
  1126  0084  3001               	movlw	1
  1127  0085  1683               	bsf	3,5	;RP0=1, select bank3
  1128  0086  1703               	bsf	3,6	;RP1=1, select bank3
  1129  0087  07B4               	addwf	main@i_98^(0+384),f
  1130  0088  1803               	skipnc
  1131  0089  0AB5               	incf	(main@i_98+1)^(0+384),f
  1132  008A  3000               	movlw	0
  1133  008B  07B5               	addwf	(main@i_98+1)^(0+384),f
  1134  008C  0835               	movf	(main@i_98+1)^(0+384),w
  1135  008D  3A80               	xorlw	128
  1136  008E  00FF               	movwf	127
  1137  008F  3080               	movlw	128
  1138  0090  027F               	subwf	127,w
  1139  0091  1D03               	skipz
  1140  0092  2895               	goto	u4335
  1141  0093  300A               	movlw	10
  1142  0094  0234               	subwf	main@i_98^(0+384),w
  1143  0095                     u4335:	
  1144  0095  1C03               	skipc
  1145  0096  287E               	goto	l3075
  1146                           
  1147                           ;sun_usart.c: 129: UART_send_string(" ");
  1148  0097  3072               	movlw	(low (((STR_11+12)-__stringbase)| (0+32768)))& (0+255)
  1149  0098  160A  158A  22DF  120A  118A  	fcall	_UART_send_string
  1150  009D                     l3083:	
  1151                           
  1152                           ;sun_usart.c: 131: {;sun_usart.c: 134:     if(flag>=3)
  1153  009D  1683               	bsf	3,5	;RP0=1, select bank3
  1154  009E  1703               	bsf	3,6	;RP1=1, select bank3
  1155  009F  0831               	movf	(main@flag+1)^(0+384),w
  1156  00A0  3A80               	xorlw	128
  1157  00A1  00FF               	movwf	127
  1158  00A2  3080               	movlw	128
  1159  00A3  027F               	subwf	127,w
  1160  00A4  1D03               	skipz
  1161  00A5  28A8               	goto	u4345
  1162  00A6  3003               	movlw	3
  1163  00A7  0230               	subwf	main@flag^(0+384),w
  1164  00A8                     u4345:	
  1165  00A8  1C03               	skipc
  1166  00A9  296F               	goto	l3089
  1167                           
  1168                           ;sun_usart.c: 135:     { ADC_Initialize();
  1169  00AA  120A  158A  200A  120A  118A  	fcall	_ADC_Initialize
  1170                           
  1171                           ;sun_usart.c: 136:      x = (ADC_Read(0));
  1172  00AF  3000               	movlw	0
  1173  00B0  120A  158A  2016  120A  118A  	fcall	_ADC_Read
  1174  00B5  0870               	movf	?_ADC_Read,w
  1175  00B6  1683               	bsf	3,5	;RP0=1, select bank1
  1176  00B7  1303               	bcf	3,6	;RP1=0, select bank1
  1177  00B8  00DE               	movwf	??_main^(0+128)
  1178  00B9  0871               	movf	?_ADC_Read+1,w
  1179  00BA  00DF               	movwf	(??_main^(0+128)+1)
  1180  00BB  01E0               	clrf	(??_main^(0+128)+2)
  1181  00BC  01E1               	clrf	(??_main^(0+128)+3)
  1182  00BD  0861               	movf	(??_main+3)^(0+128),w
  1183  00BE  00F8               	movwf	___xxtofl@val+3
  1184  00BF  0860               	movf	(??_main+2)^(0+128),w
  1185  00C0  00F7               	movwf	___xxtofl@val+2
  1186  00C1  085F               	movf	(??_main+1)^(0+128),w
  1187  00C2  00F6               	movwf	___xxtofl@val+1
  1188  00C3  085E               	movf	??_main^(0+128),w
  1189  00C4  00F5               	movwf	___xxtofl@val
  1190  00C5  3000               	movlw	0
  1191  00C6  160A  158A  254E  120A  118A  	fcall	___xxtofl
  1192  00CB  0878               	movf	?___xxtofl+3,w
  1193  00CC  1683               	bsf	3,5	;RP0=1, select bank3
  1194  00CD  1703               	bsf	3,6	;RP1=1, select bank3
  1195  00CE  00C3               	movwf	(main@x+3)^(0+384)
  1196  00CF  0877               	movf	?___xxtofl+2,w
  1197  00D0  00C2               	movwf	(main@x+2)^(0+384)
  1198  00D1  0876               	movf	?___xxtofl+1,w
  1199  00D2  00C1               	movwf	(main@x+1)^(0+384)
  1200  00D3  0875               	movf	?___xxtofl,w
  1201  00D4  00C0               	movwf	main@x^(0+384)
  1202                           
  1203                           ;sun_usart.c: 137:  y = (ADC_Read(1));
  1204  00D5  3001               	movlw	1
  1205  00D6  120A  158A  2016  120A  118A  	fcall	_ADC_Read
  1206  00DB  0870               	movf	?_ADC_Read,w
  1207  00DC  1683               	bsf	3,5	;RP0=1, select bank1
  1208  00DD  1303               	bcf	3,6	;RP1=0, select bank1
  1209  00DE  00DE               	movwf	??_main^(0+128)
  1210  00DF  0871               	movf	?_ADC_Read+1,w
  1211  00E0  00DF               	movwf	(??_main^(0+128)+1)
  1212  00E1  01E0               	clrf	(??_main^(0+128)+2)
  1213  00E2  01E1               	clrf	(??_main^(0+128)+3)
  1214  00E3  0861               	movf	(??_main+3)^(0+128),w
  1215  00E4  00F8               	movwf	___xxtofl@val+3
  1216  00E5  0860               	movf	(??_main+2)^(0+128),w
  1217  00E6  00F7               	movwf	___xxtofl@val+2
  1218  00E7  085F               	movf	(??_main+1)^(0+128),w
  1219  00E8  00F6               	movwf	___xxtofl@val+1
  1220  00E9  085E               	movf	??_main^(0+128),w
  1221  00EA  00F5               	movwf	___xxtofl@val
  1222  00EB  3000               	movlw	0
  1223  00EC  160A  158A  254E  120A  118A  	fcall	___xxtofl
  1224  00F1  0878               	movf	?___xxtofl+3,w
  1225  00F2  1683               	bsf	3,5	;RP0=1, select bank3
  1226  00F3  1703               	bsf	3,6	;RP1=1, select bank3
  1227  00F4  00C7               	movwf	(main@y+3)^(0+384)
  1228  00F5  0877               	movf	?___xxtofl+2,w
  1229  00F6  00C6               	movwf	(main@y+2)^(0+384)
  1230  00F7  0876               	movf	?___xxtofl+1,w
  1231  00F8  00C5               	movwf	(main@y+1)^(0+384)
  1232  00F9  0875               	movf	?___xxtofl,w
  1233  00FA  00C4               	movwf	main@y^(0+384)
  1234                           
  1235                           ;sun_usart.c: 138:  z = (ADC_Read(2));
  1236  00FB  3002               	movlw	2
  1237  00FC  120A  158A  2016  120A  118A  	fcall	_ADC_Read
  1238  0101  0870               	movf	?_ADC_Read,w
  1239  0102  1683               	bsf	3,5	;RP0=1, select bank1
  1240  0103  1303               	bcf	3,6	;RP1=0, select bank1
  1241  0104  00DE               	movwf	??_main^(0+128)
  1242  0105  0871               	movf	?_ADC_Read+1,w
  1243  0106  00DF               	movwf	(??_main^(0+128)+1)
  1244  0107  01E0               	clrf	(??_main^(0+128)+2)
  1245  0108  01E1               	clrf	(??_main^(0+128)+3)
  1246  0109  0861               	movf	(??_main+3)^(0+128),w
  1247  010A  00F8               	movwf	___xxtofl@val+3
  1248  010B  0860               	movf	(??_main+2)^(0+128),w
  1249  010C  00F7               	movwf	___xxtofl@val+2
  1250  010D  085F               	movf	(??_main+1)^(0+128),w
  1251  010E  00F6               	movwf	___xxtofl@val+1
  1252  010F  085E               	movf	??_main^(0+128),w
  1253  0110  00F5               	movwf	___xxtofl@val
  1254  0111  3000               	movlw	0
  1255  0112  160A  158A  254E  120A  118A  	fcall	___xxtofl
  1256  0117  0878               	movf	?___xxtofl+3,w
  1257  0118  1683               	bsf	3,5	;RP0=1, select bank3
  1258  0119  1703               	bsf	3,6	;RP1=1, select bank3
  1259  011A  00CB               	movwf	(main@z+3)^(0+384)
  1260  011B  0877               	movf	?___xxtofl+2,w
  1261  011C  00CA               	movwf	(main@z+2)^(0+384)
  1262  011D  0876               	movf	?___xxtofl+1,w
  1263  011E  00C9               	movwf	(main@z+1)^(0+384)
  1264  011F  0875               	movf	?___xxtofl,w
  1265  0120  00C8               	movwf	main@z^(0+384)
  1266                           
  1267                           ;sun_usart.c: 139:  negx = (ADC_Read(4));
  1268  0121  3004               	movlw	4
  1269  0122  120A  158A  2016  120A  118A  	fcall	_ADC_Read
  1270  0127  0870               	movf	?_ADC_Read,w
  1271  0128  1683               	bsf	3,5	;RP0=1, select bank1
  1272  0129  1303               	bcf	3,6	;RP1=0, select bank1
  1273  012A  00DE               	movwf	??_main^(0+128)
  1274  012B  0871               	movf	?_ADC_Read+1,w
  1275  012C  00DF               	movwf	(??_main^(0+128)+1)
  1276  012D  01E0               	clrf	(??_main^(0+128)+2)
  1277  012E  01E1               	clrf	(??_main^(0+128)+3)
  1278  012F  0861               	movf	(??_main+3)^(0+128),w
  1279  0130  00F8               	movwf	___xxtofl@val+3
  1280  0131  0860               	movf	(??_main+2)^(0+128),w
  1281  0132  00F7               	movwf	___xxtofl@val+2
  1282  0133  085F               	movf	(??_main+1)^(0+128),w
  1283  0134  00F6               	movwf	___xxtofl@val+1
  1284  0135  085E               	movf	??_main^(0+128),w
  1285  0136  00F5               	movwf	___xxtofl@val
  1286  0137  3000               	movlw	0
  1287  0138  160A  158A  254E  120A  118A  	fcall	___xxtofl
  1288  013D  0878               	movf	?___xxtofl+3,w
  1289  013E  1683               	bsf	3,5	;RP0=1, select bank3
  1290  013F  1703               	bsf	3,6	;RP1=1, select bank3
  1291  0140  00CF               	movwf	(main@negx+3)^(0+384)
  1292  0141  0877               	movf	?___xxtofl+2,w
  1293  0142  00CE               	movwf	(main@negx+2)^(0+384)
  1294  0143  0876               	movf	?___xxtofl+1,w
  1295  0144  00CD               	movwf	(main@negx+1)^(0+384)
  1296  0145  0875               	movf	?___xxtofl,w
  1297  0146  00CC               	movwf	main@negx^(0+384)
  1298                           
  1299                           ;sun_usart.c: 140:  negy = (ADC_Read(5));
  1300  0147  3005               	movlw	5
  1301  0148  120A  158A  2016  120A  118A  	fcall	_ADC_Read
  1302  014D  0870               	movf	?_ADC_Read,w
  1303  014E  1683               	bsf	3,5	;RP0=1, select bank1
  1304  014F  1303               	bcf	3,6	;RP1=0, select bank1
  1305  0150  00DE               	movwf	??_main^(0+128)
  1306  0151  0871               	movf	?_ADC_Read+1,w
  1307  0152  00DF               	movwf	(??_main^(0+128)+1)
  1308  0153  01E0               	clrf	(??_main^(0+128)+2)
  1309  0154  01E1               	clrf	(??_main^(0+128)+3)
  1310  0155  0861               	movf	(??_main+3)^(0+128),w
  1311  0156  00F8               	movwf	___xxtofl@val+3
  1312  0157  0860               	movf	(??_main+2)^(0+128),w
  1313  0158  00F7               	movwf	___xxtofl@val+2
  1314  0159  085F               	movf	(??_main+1)^(0+128),w
  1315  015A  00F6               	movwf	___xxtofl@val+1
  1316  015B  085E               	movf	??_main^(0+128),w
  1317  015C  00F5               	movwf	___xxtofl@val
  1318  015D  3000               	movlw	0
  1319  015E  160A  158A  254E  120A  118A  	fcall	___xxtofl
  1320  0163  0878               	movf	?___xxtofl+3,w
  1321  0164  1683               	bsf	3,5	;RP0=1, select bank3
  1322  0165  1703               	bsf	3,6	;RP1=1, select bank3
  1323  0166  00D3               	movwf	(main@negy+3)^(0+384)
  1324  0167  0877               	movf	?___xxtofl+2,w
  1325  0168  00D2               	movwf	(main@negy+2)^(0+384)
  1326  0169  0876               	movf	?___xxtofl+1,w
  1327  016A  00D1               	movwf	(main@negy+1)^(0+384)
  1328  016B  0875               	movf	?___xxtofl,w
  1329  016C  00D0               	movwf	main@negy^(0+384)
  1330                           
  1331                           ;sun_usart.c: 141:      flag=0;}
  1332  016D  01B0               	clrf	main@flag^(0+384)
  1333  016E  01B1               	clrf	(main@flag+1)^(0+384)
  1334  016F                     l3089:	
  1335                           
  1336                           ;sun_usart.c: 142:     flag++;
  1337  016F  3001               	movlw	1
  1338  0170  1683               	bsf	3,5	;RP0=1, select bank3
  1339  0171  1703               	bsf	3,6	;RP1=1, select bank3
  1340  0172  07B0               	addwf	main@flag^(0+384),f
  1341  0173  1803               	skipnc
  1342  0174  0AB1               	incf	(main@flag+1)^(0+384),f
  1343  0175  3000               	movlw	0
  1344  0176  07B1               	addwf	(main@flag+1)^(0+384),f
  1345                           
  1346                           ;sun_usart.c: 143: r= sqrt((x+negx)*(x+negx) + (y+negy)*(y+negy) + z*z);
  1347  0177  0853               	movf	(main@negy+3)^(0+384),w
  1348  0178  1283               	bcf	3,5	;RP0=0, select bank0
  1349  0179  1303               	bcf	3,6	;RP1=0, select bank0
  1350  017A  00A3               	movwf	___fladd@b+3
  1351  017B  1683               	bsf	3,5	;RP0=1, select bank3
  1352  017C  1703               	bsf	3,6	;RP1=1, select bank3
  1353  017D  0852               	movf	(main@negy+2)^(0+384),w
  1354  017E  1283               	bcf	3,5	;RP0=0, select bank0
  1355  017F  1303               	bcf	3,6	;RP1=0, select bank0
  1356  0180  00A2               	movwf	___fladd@b+2
  1357  0181  1683               	bsf	3,5	;RP0=1, select bank3
  1358  0182  1703               	bsf	3,6	;RP1=1, select bank3
  1359  0183  0851               	movf	(main@negy+1)^(0+384),w
  1360  0184  1283               	bcf	3,5	;RP0=0, select bank0
  1361  0185  1303               	bcf	3,6	;RP1=0, select bank0
  1362  0186  00A1               	movwf	___fladd@b+1
  1363  0187  1683               	bsf	3,5	;RP0=1, select bank3
  1364  0188  1703               	bsf	3,6	;RP1=1, select bank3
  1365  0189  0850               	movf	main@negy^(0+384),w
  1366  018A  1283               	bcf	3,5	;RP0=0, select bank0
  1367  018B  1303               	bcf	3,6	;RP1=0, select bank0
  1368  018C  00A0               	movwf	___fladd@b
  1369  018D  1683               	bsf	3,5	;RP0=1, select bank3
  1370  018E  1703               	bsf	3,6	;RP1=1, select bank3
  1371  018F  0847               	movf	(main@y+3)^(0+384),w
  1372  0190  1283               	bcf	3,5	;RP0=0, select bank0
  1373  0191  1303               	bcf	3,6	;RP1=0, select bank0
  1374  0192  00A7               	movwf	___fladd@a+3
  1375  0193  1683               	bsf	3,5	;RP0=1, select bank3
  1376  0194  1703               	bsf	3,6	;RP1=1, select bank3
  1377  0195  0846               	movf	(main@y+2)^(0+384),w
  1378  0196  1283               	bcf	3,5	;RP0=0, select bank0
  1379  0197  1303               	bcf	3,6	;RP1=0, select bank0
  1380  0198  00A6               	movwf	___fladd@a+2
  1381  0199  1683               	bsf	3,5	;RP0=1, select bank3
  1382  019A  1703               	bsf	3,6	;RP1=1, select bank3
  1383  019B  0845               	movf	(main@y+1)^(0+384),w
  1384  019C  1283               	bcf	3,5	;RP0=0, select bank0
  1385  019D  1303               	bcf	3,6	;RP1=0, select bank0
  1386  019E  00A5               	movwf	___fladd@a+1
  1387  019F  1683               	bsf	3,5	;RP0=1, select bank3
  1388  01A0  1703               	bsf	3,6	;RP1=1, select bank3
  1389  01A1  0844               	movf	main@y^(0+384),w
  1390  01A2  1283               	bcf	3,5	;RP0=0, select bank0
  1391  01A3  1303               	bcf	3,6	;RP1=0, select bank0
  1392  01A4  00A4               	movwf	___fladd@a
  1393  01A5  160A  118A  233E  120A  118A  	fcall	___fladd
  1394  01AA  1283               	bcf	3,5	;RP0=0, select bank0
  1395  01AB  1303               	bcf	3,6	;RP1=0, select bank0
  1396  01AC  0823               	movf	?___fladd+3,w
  1397  01AD  00D1               	movwf	___flmul@b+3
  1398  01AE  0822               	movf	?___fladd+2,w
  1399  01AF  00D0               	movwf	___flmul@b+2
  1400  01B0  0821               	movf	?___fladd+1,w
  1401  01B1  00CF               	movwf	___flmul@b+1
  1402  01B2  0820               	movf	?___fladd,w
  1403  01B3  00CE               	movwf	___flmul@b
  1404  01B4  1683               	bsf	3,5	;RP0=1, select bank3
  1405  01B5  1703               	bsf	3,6	;RP1=1, select bank3
  1406  01B6  0853               	movf	(main@negy+3)^(0+384),w
  1407  01B7  1283               	bcf	3,5	;RP0=0, select bank0
  1408  01B8  1303               	bcf	3,6	;RP1=0, select bank0
  1409  01B9  00A3               	movwf	___fladd@b+3
  1410  01BA  1683               	bsf	3,5	;RP0=1, select bank3
  1411  01BB  1703               	bsf	3,6	;RP1=1, select bank3
  1412  01BC  0852               	movf	(main@negy+2)^(0+384),w
  1413  01BD  1283               	bcf	3,5	;RP0=0, select bank0
  1414  01BE  1303               	bcf	3,6	;RP1=0, select bank0
  1415  01BF  00A2               	movwf	___fladd@b+2
  1416  01C0  1683               	bsf	3,5	;RP0=1, select bank3
  1417  01C1  1703               	bsf	3,6	;RP1=1, select bank3
  1418  01C2  0851               	movf	(main@negy+1)^(0+384),w
  1419  01C3  1283               	bcf	3,5	;RP0=0, select bank0
  1420  01C4  1303               	bcf	3,6	;RP1=0, select bank0
  1421  01C5  00A1               	movwf	___fladd@b+1
  1422  01C6  1683               	bsf	3,5	;RP0=1, select bank3
  1423  01C7  1703               	bsf	3,6	;RP1=1, select bank3
  1424  01C8  0850               	movf	main@negy^(0+384),w
  1425  01C9  1283               	bcf	3,5	;RP0=0, select bank0
  1426  01CA  1303               	bcf	3,6	;RP1=0, select bank0
  1427  01CB  00A0               	movwf	___fladd@b
  1428  01CC  1683               	bsf	3,5	;RP0=1, select bank3
  1429  01CD  1703               	bsf	3,6	;RP1=1, select bank3
  1430  01CE  0847               	movf	(main@y+3)^(0+384),w
  1431  01CF  1283               	bcf	3,5	;RP0=0, select bank0
  1432  01D0  1303               	bcf	3,6	;RP1=0, select bank0
  1433  01D1  00A7               	movwf	___fladd@a+3
  1434  01D2  1683               	bsf	3,5	;RP0=1, select bank3
  1435  01D3  1703               	bsf	3,6	;RP1=1, select bank3
  1436  01D4  0846               	movf	(main@y+2)^(0+384),w
  1437  01D5  1283               	bcf	3,5	;RP0=0, select bank0
  1438  01D6  1303               	bcf	3,6	;RP1=0, select bank0
  1439  01D7  00A6               	movwf	___fladd@a+2
  1440  01D8  1683               	bsf	3,5	;RP0=1, select bank3
  1441  01D9  1703               	bsf	3,6	;RP1=1, select bank3
  1442  01DA  0845               	movf	(main@y+1)^(0+384),w
  1443  01DB  1283               	bcf	3,5	;RP0=0, select bank0
  1444  01DC  1303               	bcf	3,6	;RP1=0, select bank0
  1445  01DD  00A5               	movwf	___fladd@a+1
  1446  01DE  1683               	bsf	3,5	;RP0=1, select bank3
  1447  01DF  1703               	bsf	3,6	;RP1=1, select bank3
  1448  01E0  0844               	movf	main@y^(0+384),w
  1449  01E1  1283               	bcf	3,5	;RP0=0, select bank0
  1450  01E2  1303               	bcf	3,6	;RP1=0, select bank0
  1451  01E3  00A4               	movwf	___fladd@a
  1452  01E4  160A  118A  233E  120A  118A  	fcall	___fladd
  1453  01E9  1283               	bcf	3,5	;RP0=0, select bank0
  1454  01EA  1303               	bcf	3,6	;RP1=0, select bank0
  1455  01EB  0823               	movf	?___fladd+3,w
  1456  01EC  00D5               	movwf	___flmul@a+3
  1457  01ED  0822               	movf	?___fladd+2,w
  1458  01EE  00D4               	movwf	___flmul@a+2
  1459  01EF  0821               	movf	?___fladd+1,w
  1460  01F0  00D3               	movwf	___flmul@a+1
  1461  01F1  0820               	movf	?___fladd,w
  1462  01F2  00D2               	movwf	___flmul@a
  1463  01F3  120A  158A  24EB  120A  118A  	fcall	___flmul
  1464  01F8  1283               	bcf	3,5	;RP0=0, select bank0
  1465  01F9  1303               	bcf	3,6	;RP1=0, select bank0
  1466  01FA  0851               	movf	?___flmul+3,w
  1467  01FB  1683               	bsf	3,5	;RP0=1, select bank3
  1468  01FC  1703               	bsf	3,6	;RP1=1, select bank3
  1469  01FD  00A7               	movwf	(_main$827+3)^(0+384)
  1470  01FE  1283               	bcf	3,5	;RP0=0, select bank0
  1471  01FF  1303               	bcf	3,6	;RP1=0, select bank0
  1472  0200  0850               	movf	?___flmul+2,w
  1473  0201  1683               	bsf	3,5	;RP0=1, select bank3
  1474  0202  1703               	bsf	3,6	;RP1=1, select bank3
  1475  0203  00A6               	movwf	(_main$827+2)^(0+384)
  1476  0204  1283               	bcf	3,5	;RP0=0, select bank0
  1477  0205  1303               	bcf	3,6	;RP1=0, select bank0
  1478  0206  084F               	movf	?___flmul+1,w
  1479  0207  1683               	bsf	3,5	;RP0=1, select bank3
  1480  0208  1703               	bsf	3,6	;RP1=1, select bank3
  1481  0209  00A5               	movwf	(_main$827+1)^(0+384)
  1482  020A  1283               	bcf	3,5	;RP0=0, select bank0
  1483  020B  1303               	bcf	3,6	;RP1=0, select bank0
  1484  020C  084E               	movf	?___flmul,w
  1485  020D  1683               	bsf	3,5	;RP0=1, select bank3
  1486  020E  1703               	bsf	3,6	;RP1=1, select bank3
  1487  020F  00A4               	movwf	_main$827^(0+384)
  1488                           
  1489                           ;sun_usart.c: 143: r= sqrt((x+negx)*(x+negx) + (y+negy)*(y+negy) + z*z);
  1490  0210  084F               	movf	(main@negx+3)^(0+384),w
  1491  0211  1283               	bcf	3,5	;RP0=0, select bank0
  1492  0212  1303               	bcf	3,6	;RP1=0, select bank0
  1493  0213  00A3               	movwf	___fladd@b+3
  1494  0214  1683               	bsf	3,5	;RP0=1, select bank3
  1495  0215  1703               	bsf	3,6	;RP1=1, select bank3
  1496  0216  084E               	movf	(main@negx+2)^(0+384),w
  1497  0217  1283               	bcf	3,5	;RP0=0, select bank0
  1498  0218  1303               	bcf	3,6	;RP1=0, select bank0
  1499  0219  00A2               	movwf	___fladd@b+2
  1500  021A  1683               	bsf	3,5	;RP0=1, select bank3
  1501  021B  1703               	bsf	3,6	;RP1=1, select bank3
  1502  021C  084D               	movf	(main@negx+1)^(0+384),w
  1503  021D  1283               	bcf	3,5	;RP0=0, select bank0
  1504  021E  1303               	bcf	3,6	;RP1=0, select bank0
  1505  021F  00A1               	movwf	___fladd@b+1
  1506  0220  1683               	bsf	3,5	;RP0=1, select bank3
  1507  0221  1703               	bsf	3,6	;RP1=1, select bank3
  1508  0222  084C               	movf	main@negx^(0+384),w
  1509  0223  1283               	bcf	3,5	;RP0=0, select bank0
  1510  0224  1303               	bcf	3,6	;RP1=0, select bank0
  1511  0225  00A0               	movwf	___fladd@b
  1512  0226  1683               	bsf	3,5	;RP0=1, select bank3
  1513  0227  1703               	bsf	3,6	;RP1=1, select bank3
  1514  0228  0843               	movf	(main@x+3)^(0+384),w
  1515  0229  1283               	bcf	3,5	;RP0=0, select bank0
  1516  022A  1303               	bcf	3,6	;RP1=0, select bank0
  1517  022B  00A7               	movwf	___fladd@a+3
  1518  022C  1683               	bsf	3,5	;RP0=1, select bank3
  1519  022D  1703               	bsf	3,6	;RP1=1, select bank3
  1520  022E  0842               	movf	(main@x+2)^(0+384),w
  1521  022F  1283               	bcf	3,5	;RP0=0, select bank0
  1522  0230  1303               	bcf	3,6	;RP1=0, select bank0
  1523  0231  00A6               	movwf	___fladd@a+2
  1524  0232  1683               	bsf	3,5	;RP0=1, select bank3
  1525  0233  1703               	bsf	3,6	;RP1=1, select bank3
  1526  0234  0841               	movf	(main@x+1)^(0+384),w
  1527  0235  1283               	bcf	3,5	;RP0=0, select bank0
  1528  0236  1303               	bcf	3,6	;RP1=0, select bank0
  1529  0237  00A5               	movwf	___fladd@a+1
  1530  0238  1683               	bsf	3,5	;RP0=1, select bank3
  1531  0239  1703               	bsf	3,6	;RP1=1, select bank3
  1532  023A  0840               	movf	main@x^(0+384),w
  1533  023B  1283               	bcf	3,5	;RP0=0, select bank0
  1534  023C  1303               	bcf	3,6	;RP1=0, select bank0
  1535  023D  00A4               	movwf	___fladd@a
  1536  023E  160A  118A  233E  120A  118A  	fcall	___fladd
  1537  0243  1283               	bcf	3,5	;RP0=0, select bank0
  1538  0244  1303               	bcf	3,6	;RP1=0, select bank0
  1539  0245  0823               	movf	?___fladd+3,w
  1540  0246  00D1               	movwf	___flmul@b+3
  1541  0247  0822               	movf	?___fladd+2,w
  1542  0248  00D0               	movwf	___flmul@b+2
  1543  0249  0821               	movf	?___fladd+1,w
  1544  024A  00CF               	movwf	___flmul@b+1
  1545  024B  0820               	movf	?___fladd,w
  1546  024C  00CE               	movwf	___flmul@b
  1547  024D  1683               	bsf	3,5	;RP0=1, select bank3
  1548  024E  1703               	bsf	3,6	;RP1=1, select bank3
  1549  024F  084F               	movf	(main@negx+3)^(0+384),w
  1550  0250  1283               	bcf	3,5	;RP0=0, select bank0
  1551  0251  1303               	bcf	3,6	;RP1=0, select bank0
  1552  0252  00A3               	movwf	___fladd@b+3
  1553  0253  1683               	bsf	3,5	;RP0=1, select bank3
  1554  0254  1703               	bsf	3,6	;RP1=1, select bank3
  1555  0255  084E               	movf	(main@negx+2)^(0+384),w
  1556  0256  1283               	bcf	3,5	;RP0=0, select bank0
  1557  0257  1303               	bcf	3,6	;RP1=0, select bank0
  1558  0258  00A2               	movwf	___fladd@b+2
  1559  0259  1683               	bsf	3,5	;RP0=1, select bank3
  1560  025A  1703               	bsf	3,6	;RP1=1, select bank3
  1561  025B  084D               	movf	(main@negx+1)^(0+384),w
  1562  025C  1283               	bcf	3,5	;RP0=0, select bank0
  1563  025D  1303               	bcf	3,6	;RP1=0, select bank0
  1564  025E  00A1               	movwf	___fladd@b+1
  1565  025F  1683               	bsf	3,5	;RP0=1, select bank3
  1566  0260  1703               	bsf	3,6	;RP1=1, select bank3
  1567  0261  084C               	movf	main@negx^(0+384),w
  1568  0262  1283               	bcf	3,5	;RP0=0, select bank0
  1569  0263  1303               	bcf	3,6	;RP1=0, select bank0
  1570  0264  00A0               	movwf	___fladd@b
  1571  0265  1683               	bsf	3,5	;RP0=1, select bank3
  1572  0266  1703               	bsf	3,6	;RP1=1, select bank3
  1573  0267  0843               	movf	(main@x+3)^(0+384),w
  1574  0268  1283               	bcf	3,5	;RP0=0, select bank0
  1575  0269  1303               	bcf	3,6	;RP1=0, select bank0
  1576  026A  00A7               	movwf	___fladd@a+3
  1577  026B  1683               	bsf	3,5	;RP0=1, select bank3
  1578  026C  1703               	bsf	3,6	;RP1=1, select bank3
  1579  026D  0842               	movf	(main@x+2)^(0+384),w
  1580  026E  1283               	bcf	3,5	;RP0=0, select bank0
  1581  026F  1303               	bcf	3,6	;RP1=0, select bank0
  1582  0270  00A6               	movwf	___fladd@a+2
  1583  0271  1683               	bsf	3,5	;RP0=1, select bank3
  1584  0272  1703               	bsf	3,6	;RP1=1, select bank3
  1585  0273  0841               	movf	(main@x+1)^(0+384),w
  1586  0274  1283               	bcf	3,5	;RP0=0, select bank0
  1587  0275  1303               	bcf	3,6	;RP1=0, select bank0
  1588  0276  00A5               	movwf	___fladd@a+1
  1589  0277  1683               	bsf	3,5	;RP0=1, select bank3
  1590  0278  1703               	bsf	3,6	;RP1=1, select bank3
  1591  0279  0840               	movf	main@x^(0+384),w
  1592  027A  1283               	bcf	3,5	;RP0=0, select bank0
  1593  027B  1303               	bcf	3,6	;RP1=0, select bank0
  1594  027C  00A4               	movwf	___fladd@a
  1595  027D  160A  118A  233E  120A  118A  	fcall	___fladd
  1596  0282  1283               	bcf	3,5	;RP0=0, select bank0
  1597  0283  1303               	bcf	3,6	;RP1=0, select bank0
  1598  0284  0823               	movf	?___fladd+3,w
  1599  0285  00D5               	movwf	___flmul@a+3
  1600  0286  0822               	movf	?___fladd+2,w
  1601  0287  00D4               	movwf	___flmul@a+2
  1602  0288  0821               	movf	?___fladd+1,w
  1603  0289  00D3               	movwf	___flmul@a+1
  1604  028A  0820               	movf	?___fladd,w
  1605  028B  00D2               	movwf	___flmul@a
  1606  028C  120A  158A  24EB  120A  118A  	fcall	___flmul
  1607  0291  1283               	bcf	3,5	;RP0=0, select bank0
  1608  0292  1303               	bcf	3,6	;RP1=0, select bank0
  1609  0293  0851               	movf	?___flmul+3,w
  1610  0294  1683               	bsf	3,5	;RP0=1, select bank3
  1611  0295  1703               	bsf	3,6	;RP1=1, select bank3
  1612  0296  00AB               	movwf	(_main$828+3)^(0+384)
  1613  0297  1283               	bcf	3,5	;RP0=0, select bank0
  1614  0298  1303               	bcf	3,6	;RP1=0, select bank0
  1615  0299  0850               	movf	?___flmul+2,w
  1616  029A  1683               	bsf	3,5	;RP0=1, select bank3
  1617  029B  1703               	bsf	3,6	;RP1=1, select bank3
  1618  029C  00AA               	movwf	(_main$828+2)^(0+384)
  1619  029D  1283               	bcf	3,5	;RP0=0, select bank0
  1620  029E  1303               	bcf	3,6	;RP1=0, select bank0
  1621  029F  084F               	movf	?___flmul+1,w
  1622  02A0  1683               	bsf	3,5	;RP0=1, select bank3
  1623  02A1  1703               	bsf	3,6	;RP1=1, select bank3
  1624  02A2  00A9               	movwf	(_main$828+1)^(0+384)
  1625  02A3  1283               	bcf	3,5	;RP0=0, select bank0
  1626  02A4  1303               	bcf	3,6	;RP1=0, select bank0
  1627  02A5  084E               	movf	?___flmul,w
  1628  02A6  1683               	bsf	3,5	;RP0=1, select bank3
  1629  02A7  1703               	bsf	3,6	;RP1=1, select bank3
  1630  02A8  00A8               	movwf	_main$828^(0+384)
  1631                           
  1632                           ;sun_usart.c: 143: r= sqrt((x+negx)*(x+negx) + (y+negy)*(y+negy) + z*z);
  1633  02A9  0827               	movf	(_main$827+3)^(0+384),w
  1634  02AA  1283               	bcf	3,5	;RP0=0, select bank0
  1635  02AB  1303               	bcf	3,6	;RP1=0, select bank0
  1636  02AC  00A3               	movwf	___fladd@b+3
  1637  02AD  1683               	bsf	3,5	;RP0=1, select bank3
  1638  02AE  1703               	bsf	3,6	;RP1=1, select bank3
  1639  02AF  0826               	movf	(_main$827+2)^(0+384),w
  1640  02B0  1283               	bcf	3,5	;RP0=0, select bank0
  1641  02B1  1303               	bcf	3,6	;RP1=0, select bank0
  1642  02B2  00A2               	movwf	___fladd@b+2
  1643  02B3  1683               	bsf	3,5	;RP0=1, select bank3
  1644  02B4  1703               	bsf	3,6	;RP1=1, select bank3
  1645  02B5  0825               	movf	(_main$827+1)^(0+384),w
  1646  02B6  1283               	bcf	3,5	;RP0=0, select bank0
  1647  02B7  1303               	bcf	3,6	;RP1=0, select bank0
  1648  02B8  00A1               	movwf	___fladd@b+1
  1649  02B9  1683               	bsf	3,5	;RP0=1, select bank3
  1650  02BA  1703               	bsf	3,6	;RP1=1, select bank3
  1651  02BB  0824               	movf	_main$827^(0+384),w
  1652  02BC  1283               	bcf	3,5	;RP0=0, select bank0
  1653  02BD  1303               	bcf	3,6	;RP1=0, select bank0
  1654  02BE  00A0               	movwf	___fladd@b
  1655  02BF  1683               	bsf	3,5	;RP0=1, select bank3
  1656  02C0  1703               	bsf	3,6	;RP1=1, select bank3
  1657  02C1  082B               	movf	(_main$828+3)^(0+384),w
  1658  02C2  1283               	bcf	3,5	;RP0=0, select bank0
  1659  02C3  1303               	bcf	3,6	;RP1=0, select bank0
  1660  02C4  00A7               	movwf	___fladd@a+3
  1661  02C5  1683               	bsf	3,5	;RP0=1, select bank3
  1662  02C6  1703               	bsf	3,6	;RP1=1, select bank3
  1663  02C7  082A               	movf	(_main$828+2)^(0+384),w
  1664  02C8  1283               	bcf	3,5	;RP0=0, select bank0
  1665  02C9  1303               	bcf	3,6	;RP1=0, select bank0
  1666  02CA  00A6               	movwf	___fladd@a+2
  1667  02CB  1683               	bsf	3,5	;RP0=1, select bank3
  1668  02CC  1703               	bsf	3,6	;RP1=1, select bank3
  1669  02CD  0829               	movf	(_main$828+1)^(0+384),w
  1670  02CE  1283               	bcf	3,5	;RP0=0, select bank0
  1671  02CF  1303               	bcf	3,6	;RP1=0, select bank0
  1672  02D0  00A5               	movwf	___fladd@a+1
  1673  02D1  1683               	bsf	3,5	;RP0=1, select bank3
  1674  02D2  1703               	bsf	3,6	;RP1=1, select bank3
  1675  02D3  0828               	movf	_main$828^(0+384),w
  1676  02D4  1283               	bcf	3,5	;RP0=0, select bank0
  1677  02D5  1303               	bcf	3,6	;RP1=0, select bank0
  1678  02D6  00A4               	movwf	___fladd@a
  1679  02D7  160A  118A  233E  120A  118A  	fcall	___fladd
  1680  02DC  1283               	bcf	3,5	;RP0=0, select bank0
  1681  02DD  1303               	bcf	3,6	;RP1=0, select bank0
  1682  02DE  0823               	movf	?___fladd+3,w
  1683  02DF  1683               	bsf	3,5	;RP0=1, select bank3
  1684  02E0  1703               	bsf	3,6	;RP1=1, select bank3
  1685  02E1  00AF               	movwf	(_main$829+3)^(0+384)
  1686  02E2  1283               	bcf	3,5	;RP0=0, select bank0
  1687  02E3  1303               	bcf	3,6	;RP1=0, select bank0
  1688  02E4  0822               	movf	?___fladd+2,w
  1689  02E5  1683               	bsf	3,5	;RP0=1, select bank3
  1690  02E6  1703               	bsf	3,6	;RP1=1, select bank3
  1691  02E7  00AE               	movwf	(_main$829+2)^(0+384)
  1692  02E8  1283               	bcf	3,5	;RP0=0, select bank0
  1693  02E9  1303               	bcf	3,6	;RP1=0, select bank0
  1694  02EA  0821               	movf	?___fladd+1,w
  1695  02EB  1683               	bsf	3,5	;RP0=1, select bank3
  1696  02EC  1703               	bsf	3,6	;RP1=1, select bank3
  1697  02ED  00AD               	movwf	(_main$829+1)^(0+384)
  1698  02EE  1283               	bcf	3,5	;RP0=0, select bank0
  1699  02EF  1303               	bcf	3,6	;RP1=0, select bank0
  1700  02F0  0820               	movf	?___fladd,w
  1701  02F1  1683               	bsf	3,5	;RP0=1, select bank3
  1702  02F2  1703               	bsf	3,6	;RP1=1, select bank3
  1703  02F3  00AC               	movwf	_main$829^(0+384)
  1704                           
  1705                           ;sun_usart.c: 143: r= sqrt((x+negx)*(x+negx) + (y+negy)*(y+negy) + z*z);
  1706  02F4  084B               	movf	(main@z+3)^(0+384),w
  1707  02F5  1283               	bcf	3,5	;RP0=0, select bank0
  1708  02F6  1303               	bcf	3,6	;RP1=0, select bank0
  1709  02F7  00D1               	movwf	___flmul@b+3
  1710  02F8  1683               	bsf	3,5	;RP0=1, select bank3
  1711  02F9  1703               	bsf	3,6	;RP1=1, select bank3
  1712  02FA  084A               	movf	(main@z+2)^(0+384),w
  1713  02FB  1283               	bcf	3,5	;RP0=0, select bank0
  1714  02FC  1303               	bcf	3,6	;RP1=0, select bank0
  1715  02FD  00D0               	movwf	___flmul@b+2
  1716  02FE  1683               	bsf	3,5	;RP0=1, select bank3
  1717  02FF  1703               	bsf	3,6	;RP1=1, select bank3
  1718  0300  0849               	movf	(main@z+1)^(0+384),w
  1719  0301  1283               	bcf	3,5	;RP0=0, select bank0
  1720  0302  1303               	bcf	3,6	;RP1=0, select bank0
  1721  0303  00CF               	movwf	___flmul@b+1
  1722  0304  1683               	bsf	3,5	;RP0=1, select bank3
  1723  0305  1703               	bsf	3,6	;RP1=1, select bank3
  1724  0306  0848               	movf	main@z^(0+384),w
  1725  0307  1283               	bcf	3,5	;RP0=0, select bank0
  1726  0308  1303               	bcf	3,6	;RP1=0, select bank0
  1727  0309  00CE               	movwf	___flmul@b
  1728  030A  1683               	bsf	3,5	;RP0=1, select bank3
  1729  030B  1703               	bsf	3,6	;RP1=1, select bank3
  1730  030C  084B               	movf	(main@z+3)^(0+384),w
  1731  030D  1283               	bcf	3,5	;RP0=0, select bank0
  1732  030E  1303               	bcf	3,6	;RP1=0, select bank0
  1733  030F  00D5               	movwf	___flmul@a+3
  1734  0310  1683               	bsf	3,5	;RP0=1, select bank3
  1735  0311  1703               	bsf	3,6	;RP1=1, select bank3
  1736  0312  084A               	movf	(main@z+2)^(0+384),w
  1737  0313  1283               	bcf	3,5	;RP0=0, select bank0
  1738  0314  1303               	bcf	3,6	;RP1=0, select bank0
  1739  0315  00D4               	movwf	___flmul@a+2
  1740  0316  1683               	bsf	3,5	;RP0=1, select bank3
  1741  0317  1703               	bsf	3,6	;RP1=1, select bank3
  1742  0318  0849               	movf	(main@z+1)^(0+384),w
  1743  0319  1283               	bcf	3,5	;RP0=0, select bank0
  1744  031A  1303               	bcf	3,6	;RP1=0, select bank0
  1745  031B  00D3               	movwf	___flmul@a+1
  1746  031C  1683               	bsf	3,5	;RP0=1, select bank3
  1747  031D  1703               	bsf	3,6	;RP1=1, select bank3
  1748  031E  0848               	movf	main@z^(0+384),w
  1749  031F  1283               	bcf	3,5	;RP0=0, select bank0
  1750  0320  1303               	bcf	3,6	;RP1=0, select bank0
  1751  0321  00D2               	movwf	___flmul@a
  1752  0322  120A  158A  24EB  120A  118A  	fcall	___flmul
  1753  0327  1283               	bcf	3,5	;RP0=0, select bank0
  1754  0328  1303               	bcf	3,6	;RP1=0, select bank0
  1755  0329  0851               	movf	?___flmul+3,w
  1756  032A  00A3               	movwf	___fladd@b+3
  1757  032B  0850               	movf	?___flmul+2,w
  1758  032C  00A2               	movwf	___fladd@b+2
  1759  032D  084F               	movf	?___flmul+1,w
  1760  032E  00A1               	movwf	___fladd@b+1
  1761  032F  084E               	movf	?___flmul,w
  1762  0330  00A0               	movwf	___fladd@b
  1763  0331  1683               	bsf	3,5	;RP0=1, select bank3
  1764  0332  1703               	bsf	3,6	;RP1=1, select bank3
  1765  0333  082F               	movf	(_main$829+3)^(0+384),w
  1766  0334  1283               	bcf	3,5	;RP0=0, select bank0
  1767  0335  1303               	bcf	3,6	;RP1=0, select bank0
  1768  0336  00A7               	movwf	___fladd@a+3
  1769  0337  1683               	bsf	3,5	;RP0=1, select bank3
  1770  0338  1703               	bsf	3,6	;RP1=1, select bank3
  1771  0339  082E               	movf	(_main$829+2)^(0+384),w
  1772  033A  1283               	bcf	3,5	;RP0=0, select bank0
  1773  033B  1303               	bcf	3,6	;RP1=0, select bank0
  1774  033C  00A6               	movwf	___fladd@a+2
  1775  033D  1683               	bsf	3,5	;RP0=1, select bank3
  1776  033E  1703               	bsf	3,6	;RP1=1, select bank3
  1777  033F  082D               	movf	(_main$829+1)^(0+384),w
  1778  0340  1283               	bcf	3,5	;RP0=0, select bank0
  1779  0341  1303               	bcf	3,6	;RP1=0, select bank0
  1780  0342  00A5               	movwf	___fladd@a+1
  1781  0343  1683               	bsf	3,5	;RP0=1, select bank3
  1782  0344  1703               	bsf	3,6	;RP1=1, select bank3
  1783  0345  082C               	movf	_main$829^(0+384),w
  1784  0346  1283               	bcf	3,5	;RP0=0, select bank0
  1785  0347  1303               	bcf	3,6	;RP1=0, select bank0
  1786  0348  00A4               	movwf	___fladd@a
  1787  0349  160A  118A  233E  120A  118A  	fcall	___fladd
  1788  034E  1283               	bcf	3,5	;RP0=0, select bank0
  1789  034F  1303               	bcf	3,6	;RP1=0, select bank0
  1790  0350  0823               	movf	?___fladd+3,w
  1791  0351  1683               	bsf	3,5	;RP0=1, select bank1
  1792  0352  1303               	bcf	3,6	;RP1=0, select bank1
  1793  0353  00A3               	movwf	(sqrt@a+3)^(0+128)
  1794  0354  1283               	bcf	3,5	;RP0=0, select bank0
  1795  0355  1303               	bcf	3,6	;RP1=0, select bank0
  1796  0356  0822               	movf	?___fladd+2,w
  1797  0357  1683               	bsf	3,5	;RP0=1, select bank1
  1798  0358  1303               	bcf	3,6	;RP1=0, select bank1
  1799  0359  00A2               	movwf	(sqrt@a+2)^(0+128)
  1800  035A  1283               	bcf	3,5	;RP0=0, select bank0
  1801  035B  1303               	bcf	3,6	;RP1=0, select bank0
  1802  035C  0821               	movf	?___fladd+1,w
  1803  035D  1683               	bsf	3,5	;RP0=1, select bank1
  1804  035E  1303               	bcf	3,6	;RP1=0, select bank1
  1805  035F  00A1               	movwf	(sqrt@a+1)^(0+128)
  1806  0360  1283               	bcf	3,5	;RP0=0, select bank0
  1807  0361  1303               	bcf	3,6	;RP1=0, select bank0
  1808  0362  0820               	movf	?___fladd,w
  1809  0363  1683               	bsf	3,5	;RP0=1, select bank1
  1810  0364  1303               	bcf	3,6	;RP1=0, select bank1
  1811  0365  00A0               	movwf	sqrt@a^(0+128)
  1812  0366  120A  158A  203B  120A  118A  	fcall	_sqrt
  1813  036B  1683               	bsf	3,5	;RP0=1, select bank1
  1814  036C  1303               	bcf	3,6	;RP1=0, select bank1
  1815  036D  0823               	movf	(?_sqrt+3)^(0+128),w
  1816  036E  1683               	bsf	3,5	;RP0=1, select bank3
  1817  036F  1703               	bsf	3,6	;RP1=1, select bank3
  1818  0370  00D7               	movwf	(main@r+3)^(0+384)
  1819  0371  1683               	bsf	3,5	;RP0=1, select bank1
  1820  0372  1303               	bcf	3,6	;RP1=0, select bank1
  1821  0373  0822               	movf	(?_sqrt+2)^(0+128),w
  1822  0374  1683               	bsf	3,5	;RP0=1, select bank3
  1823  0375  1703               	bsf	3,6	;RP1=1, select bank3
  1824  0376  00D6               	movwf	(main@r+2)^(0+384)
  1825  0377  1683               	bsf	3,5	;RP0=1, select bank1
  1826  0378  1303               	bcf	3,6	;RP1=0, select bank1
  1827  0379  0821               	movf	(?_sqrt+1)^(0+128),w
  1828  037A  1683               	bsf	3,5	;RP0=1, select bank3
  1829  037B  1703               	bsf	3,6	;RP1=1, select bank3
  1830  037C  00D5               	movwf	(main@r+1)^(0+384)
  1831  037D  1683               	bsf	3,5	;RP0=1, select bank1
  1832  037E  1303               	bcf	3,6	;RP1=0, select bank1
  1833  037F  0820               	movf	?_sqrt^(0+128),w
  1834  0380  1683               	bsf	3,5	;RP0=1, select bank3
  1835  0381  1703               	bsf	3,6	;RP1=1, select bank3
  1836  0382  00D4               	movwf	main@r^(0+384)
  1837                           
  1838                           ;sun_usart.c: 144:  A = acos((x/r))*57.29 ;
  1839  0383  0857               	movf	(main@r+3)^(0+384),w
  1840  0384  1283               	bcf	3,5	;RP0=0, select bank0
  1841  0385  1303               	bcf	3,6	;RP1=0, select bank0
  1842  0386  00B7               	movwf	___fldiv@a+3
  1843  0387  1683               	bsf	3,5	;RP0=1, select bank3
  1844  0388  1703               	bsf	3,6	;RP1=1, select bank3
  1845  0389  0856               	movf	(main@r+2)^(0+384),w
  1846  038A  1283               	bcf	3,5	;RP0=0, select bank0
  1847  038B  1303               	bcf	3,6	;RP1=0, select bank0
  1848  038C  00B6               	movwf	___fldiv@a+2
  1849  038D  1683               	bsf	3,5	;RP0=1, select bank3
  1850  038E  1703               	bsf	3,6	;RP1=1, select bank3
  1851  038F  0855               	movf	(main@r+1)^(0+384),w
  1852  0390  1283               	bcf	3,5	;RP0=0, select bank0
  1853  0391  1303               	bcf	3,6	;RP1=0, select bank0
  1854  0392  00B5               	movwf	___fldiv@a+1
  1855  0393  1683               	bsf	3,5	;RP0=1, select bank3
  1856  0394  1703               	bsf	3,6	;RP1=1, select bank3
  1857  0395  0854               	movf	main@r^(0+384),w
  1858  0396  1283               	bcf	3,5	;RP0=0, select bank0
  1859  0397  1303               	bcf	3,6	;RP1=0, select bank0
  1860  0398  00B4               	movwf	___fldiv@a
  1861  0399  1683               	bsf	3,5	;RP0=1, select bank3
  1862  039A  1703               	bsf	3,6	;RP1=1, select bank3
  1863  039B  0843               	movf	(main@x+3)^(0+384),w
  1864  039C  1283               	bcf	3,5	;RP0=0, select bank0
  1865  039D  1303               	bcf	3,6	;RP1=0, select bank0
  1866  039E  00BB               	movwf	___fldiv@b+3
  1867  039F  1683               	bsf	3,5	;RP0=1, select bank3
  1868  03A0  1703               	bsf	3,6	;RP1=1, select bank3
  1869  03A1  0842               	movf	(main@x+2)^(0+384),w
  1870  03A2  1283               	bcf	3,5	;RP0=0, select bank0
  1871  03A3  1303               	bcf	3,6	;RP1=0, select bank0
  1872  03A4  00BA               	movwf	___fldiv@b+2
  1873  03A5  1683               	bsf	3,5	;RP0=1, select bank3
  1874  03A6  1703               	bsf	3,6	;RP1=1, select bank3
  1875  03A7  0841               	movf	(main@x+1)^(0+384),w
  1876  03A8  1283               	bcf	3,5	;RP0=0, select bank0
  1877  03A9  1303               	bcf	3,6	;RP1=0, select bank0
  1878  03AA  00B9               	movwf	___fldiv@b+1
  1879  03AB  1683               	bsf	3,5	;RP0=1, select bank3
  1880  03AC  1703               	bsf	3,6	;RP1=1, select bank3
  1881  03AD  0840               	movf	main@x^(0+384),w
  1882  03AE  1283               	bcf	3,5	;RP0=0, select bank0
  1883  03AF  1303               	bcf	3,6	;RP1=0, select bank0
  1884  03B0  00B8               	movwf	___fldiv@b
  1885  03B1  160A  118A  219B  120A  118A  	fcall	___fldiv
  1886  03B6  1283               	bcf	3,5	;RP0=0, select bank0
  1887  03B7  1303               	bcf	3,6	;RP1=0, select bank0
  1888  03B8  0837               	movf	?___fldiv+3,w
  1889  03B9  1683               	bsf	3,5	;RP0=1, select bank3
  1890  03BA  1703               	bsf	3,6	;RP1=1, select bank3
  1891  03BB  00DB               	movwf	(_main$830+3)^(0+384)
  1892  03BC  1283               	bcf	3,5	;RP0=0, select bank0
  1893  03BD  1303               	bcf	3,6	;RP1=0, select bank0
  1894  03BE  0836               	movf	?___fldiv+2,w
  1895  03BF  1683               	bsf	3,5	;RP0=1, select bank3
  1896  03C0  1703               	bsf	3,6	;RP1=1, select bank3
  1897  03C1  00DA               	movwf	(_main$830+2)^(0+384)
  1898  03C2  1283               	bcf	3,5	;RP0=0, select bank0
  1899  03C3  1303               	bcf	3,6	;RP1=0, select bank0
  1900  03C4  0835               	movf	?___fldiv+1,w
  1901  03C5  1683               	bsf	3,5	;RP0=1, select bank3
  1902  03C6  1703               	bsf	3,6	;RP1=1, select bank3
  1903  03C7  00D9               	movwf	(_main$830+1)^(0+384)
  1904  03C8  1283               	bcf	3,5	;RP0=0, select bank0
  1905  03C9  1303               	bcf	3,6	;RP1=0, select bank0
  1906  03CA  0834               	movf	?___fldiv,w
  1907  03CB  1683               	bsf	3,5	;RP0=1, select bank3
  1908  03CC  1703               	bsf	3,6	;RP1=1, select bank3
  1909  03CD  00D8               	movwf	_main$830^(0+384)
  1910                           
  1911                           ;sun_usart.c: 144:  A = acos((x/r))*57.29 ;
  1912  03CE  085B               	movf	(_main$830+3)^(0+384),w
  1913  03CF  1683               	bsf	3,5	;RP0=1, select bank1
  1914  03D0  1303               	bcf	3,6	;RP1=0, select bank1
  1915  03D1  00D9               	movwf	(acos@x+3)^(0+128)
  1916  03D2  1683               	bsf	3,5	;RP0=1, select bank3
  1917  03D3  1703               	bsf	3,6	;RP1=1, select bank3
  1918  03D4  085A               	movf	(_main$830+2)^(0+384),w
  1919  03D5  1683               	bsf	3,5	;RP0=1, select bank1
  1920  03D6  1303               	bcf	3,6	;RP1=0, select bank1
  1921  03D7  00D8               	movwf	(acos@x+2)^(0+128)
  1922  03D8  1683               	bsf	3,5	;RP0=1, select bank3
  1923  03D9  1703               	bsf	3,6	;RP1=1, select bank3
  1924  03DA  0859               	movf	(_main$830+1)^(0+384),w
  1925  03DB  1683               	bsf	3,5	;RP0=1, select bank1
  1926  03DC  1303               	bcf	3,6	;RP1=0, select bank1
  1927  03DD  00D7               	movwf	(acos@x+1)^(0+128)
  1928  03DE  1683               	bsf	3,5	;RP0=1, select bank3
  1929  03DF  1703               	bsf	3,6	;RP1=1, select bank3
  1930  03E0  0858               	movf	_main$830^(0+384),w
  1931  03E1  1683               	bsf	3,5	;RP0=1, select bank1
  1932  03E2  1303               	bcf	3,6	;RP1=0, select bank1
  1933  03E3  00D6               	movwf	acos@x^(0+128)
  1934  03E4  160A  118A  2004  120A  118A  	fcall	_acos
  1935  03E9  1683               	bsf	3,5	;RP0=1, select bank1
  1936  03EA  1303               	bcf	3,6	;RP1=0, select bank1
  1937  03EB  0859               	movf	(?_acos+3)^(0+128),w
  1938  03EC  1683               	bsf	3,5	;RP0=1, select bank3
  1939  03ED  1703               	bsf	3,6	;RP1=1, select bank3
  1940  03EE  00DF               	movwf	(_main$831+3)^(0+384)
  1941  03EF  1683               	bsf	3,5	;RP0=1, select bank1
  1942  03F0  1303               	bcf	3,6	;RP1=0, select bank1
  1943  03F1  0858               	movf	(?_acos+2)^(0+128),w
  1944  03F2  1683               	bsf	3,5	;RP0=1, select bank3
  1945  03F3  1703               	bsf	3,6	;RP1=1, select bank3
  1946  03F4  00DE               	movwf	(_main$831+2)^(0+384)
  1947  03F5  1683               	bsf	3,5	;RP0=1, select bank1
  1948  03F6  1303               	bcf	3,6	;RP1=0, select bank1
  1949  03F7  0857               	movf	(?_acos+1)^(0+128),w
  1950  03F8  1683               	bsf	3,5	;RP0=1, select bank3
  1951  03F9  1703               	bsf	3,6	;RP1=1, select bank3
  1952  03FA  00DD               	movwf	(_main$831+1)^(0+384)
  1953  03FB  1683               	bsf	3,5	;RP0=1, select bank1
  1954  03FC  1303               	bcf	3,6	;RP1=0, select bank1
  1955  03FD  0856               	movf	?_acos^(0+128),w
  1956  03FE  1683               	bsf	3,5	;RP0=1, select bank3
  1957  03FF  1703               	bsf	3,6	;RP1=1, select bank3
  1958  0400  00DC               	movwf	_main$831^(0+384)
  1959                           
  1960                           ;sun_usart.c: 144:  A = acos((x/r))*57.29 ;
  1961  0401  3042               	movlw	66
  1962  0402  1283               	bcf	3,5	;RP0=0, select bank0
  1963  0403  1303               	bcf	3,6	;RP1=0, select bank0
  1964  0404  00D1               	movwf	___flmul@b+3
  1965  0405  3065               	movlw	101
  1966  0406  00D0               	movwf	___flmul@b+2
  1967  0407  3028               	movlw	40
  1968  0408  00CF               	movwf	___flmul@b+1
  1969  0409  30F6               	movlw	246
  1970  040A  00CE               	movwf	___flmul@b
  1971  040B  1683               	bsf	3,5	;RP0=1, select bank3
  1972  040C  1703               	bsf	3,6	;RP1=1, select bank3
  1973  040D  085F               	movf	(_main$831+3)^(0+384),w
  1974  040E  1283               	bcf	3,5	;RP0=0, select bank0
  1975  040F  1303               	bcf	3,6	;RP1=0, select bank0
  1976  0410  00D5               	movwf	___flmul@a+3
  1977  0411  1683               	bsf	3,5	;RP0=1, select bank3
  1978  0412  1703               	bsf	3,6	;RP1=1, select bank3
  1979  0413  085E               	movf	(_main$831+2)^(0+384),w
  1980  0414  1283               	bcf	3,5	;RP0=0, select bank0
  1981  0415  1303               	bcf	3,6	;RP1=0, select bank0
  1982  0416  00D4               	movwf	___flmul@a+2
  1983  0417  1683               	bsf	3,5	;RP0=1, select bank3
  1984  0418  1703               	bsf	3,6	;RP1=1, select bank3
  1985  0419  085D               	movf	(_main$831+1)^(0+384),w
  1986  041A  1283               	bcf	3,5	;RP0=0, select bank0
  1987  041B  1303               	bcf	3,6	;RP1=0, select bank0
  1988  041C  00D3               	movwf	___flmul@a+1
  1989  041D  1683               	bsf	3,5	;RP0=1, select bank3
  1990  041E  1703               	bsf	3,6	;RP1=1, select bank3
  1991  041F  085C               	movf	_main$831^(0+384),w
  1992  0420  1283               	bcf	3,5	;RP0=0, select bank0
  1993  0421  1303               	bcf	3,6	;RP1=0, select bank0
  1994  0422  00D2               	movwf	___flmul@a
  1995  0423  120A  158A  24EB  120A  118A  	fcall	___flmul
  1996  0428  1283               	bcf	3,5	;RP0=0, select bank0
  1997  0429  1303               	bcf	3,6	;RP1=0, select bank0
  1998  042A  0851               	movf	?___flmul+3,w
  1999  042B  1683               	bsf	3,5	;RP0=1, select bank3
  2000  042C  1703               	bsf	3,6	;RP1=1, select bank3
  2001  042D  0093               	movwf	(main@A+3)^(0+384)
  2002  042E  1283               	bcf	3,5	;RP0=0, select bank0
  2003  042F  1303               	bcf	3,6	;RP1=0, select bank0
  2004  0430  0850               	movf	?___flmul+2,w
  2005  0431  1683               	bsf	3,5	;RP0=1, select bank3
  2006  0432  1703               	bsf	3,6	;RP1=1, select bank3
  2007  0433  0092               	movwf	(main@A+2)^(0+384)
  2008  0434  1283               	bcf	3,5	;RP0=0, select bank0
  2009  0435  1303               	bcf	3,6	;RP1=0, select bank0
  2010  0436  084F               	movf	?___flmul+1,w
  2011  0437  1683               	bsf	3,5	;RP0=1, select bank3
  2012  0438  1703               	bsf	3,6	;RP1=1, select bank3
  2013  0439  0091               	movwf	(main@A+1)^(0+384)
  2014  043A  1283               	bcf	3,5	;RP0=0, select bank0
  2015  043B  1303               	bcf	3,6	;RP1=0, select bank0
  2016  043C  084E               	movf	?___flmul,w
  2017  043D  1683               	bsf	3,5	;RP0=1, select bank3
  2018  043E  1703               	bsf	3,6	;RP1=1, select bank3
  2019  043F  0090               	movwf	main@A^(0+384)
  2020                           
  2021                           ;sun_usart.c: 145:  B = acos((y/r))*57.29 ;
  2022  0440  0857               	movf	(main@r+3)^(0+384),w
  2023  0441  1283               	bcf	3,5	;RP0=0, select bank0
  2024  0442  1303               	bcf	3,6	;RP1=0, select bank0
  2025  0443  00B7               	movwf	___fldiv@a+3
  2026  0444  1683               	bsf	3,5	;RP0=1, select bank3
  2027  0445  1703               	bsf	3,6	;RP1=1, select bank3
  2028  0446  0856               	movf	(main@r+2)^(0+384),w
  2029  0447  1283               	bcf	3,5	;RP0=0, select bank0
  2030  0448  1303               	bcf	3,6	;RP1=0, select bank0
  2031  0449  00B6               	movwf	___fldiv@a+2
  2032  044A  1683               	bsf	3,5	;RP0=1, select bank3
  2033  044B  1703               	bsf	3,6	;RP1=1, select bank3
  2034  044C  0855               	movf	(main@r+1)^(0+384),w
  2035  044D  1283               	bcf	3,5	;RP0=0, select bank0
  2036  044E  1303               	bcf	3,6	;RP1=0, select bank0
  2037  044F  00B5               	movwf	___fldiv@a+1
  2038  0450  1683               	bsf	3,5	;RP0=1, select bank3
  2039  0451  1703               	bsf	3,6	;RP1=1, select bank3
  2040  0452  0854               	movf	main@r^(0+384),w
  2041  0453  1283               	bcf	3,5	;RP0=0, select bank0
  2042  0454  1303               	bcf	3,6	;RP1=0, select bank0
  2043  0455  00B4               	movwf	___fldiv@a
  2044  0456  1683               	bsf	3,5	;RP0=1, select bank3
  2045  0457  1703               	bsf	3,6	;RP1=1, select bank3
  2046  0458  0847               	movf	(main@y+3)^(0+384),w
  2047  0459  1283               	bcf	3,5	;RP0=0, select bank0
  2048  045A  1303               	bcf	3,6	;RP1=0, select bank0
  2049  045B  00BB               	movwf	___fldiv@b+3
  2050  045C  1683               	bsf	3,5	;RP0=1, select bank3
  2051  045D  1703               	bsf	3,6	;RP1=1, select bank3
  2052  045E  0846               	movf	(main@y+2)^(0+384),w
  2053  045F  1283               	bcf	3,5	;RP0=0, select bank0
  2054  0460  1303               	bcf	3,6	;RP1=0, select bank0
  2055  0461  00BA               	movwf	___fldiv@b+2
  2056  0462  1683               	bsf	3,5	;RP0=1, select bank3
  2057  0463  1703               	bsf	3,6	;RP1=1, select bank3
  2058  0464  0845               	movf	(main@y+1)^(0+384),w
  2059  0465  1283               	bcf	3,5	;RP0=0, select bank0
  2060  0466  1303               	bcf	3,6	;RP1=0, select bank0
  2061  0467  00B9               	movwf	___fldiv@b+1
  2062  0468  1683               	bsf	3,5	;RP0=1, select bank3
  2063  0469  1703               	bsf	3,6	;RP1=1, select bank3
  2064  046A  0844               	movf	main@y^(0+384),w
  2065  046B  1283               	bcf	3,5	;RP0=0, select bank0
  2066  046C  1303               	bcf	3,6	;RP1=0, select bank0
  2067  046D  00B8               	movwf	___fldiv@b
  2068  046E  160A  118A  219B  120A  118A  	fcall	___fldiv
  2069  0473  1283               	bcf	3,5	;RP0=0, select bank0
  2070  0474  1303               	bcf	3,6	;RP1=0, select bank0
  2071  0475  0837               	movf	?___fldiv+3,w
  2072  0476  1683               	bsf	3,5	;RP0=1, select bank3
  2073  0477  1703               	bsf	3,6	;RP1=1, select bank3
  2074  0478  00DB               	movwf	(_main$830+3)^(0+384)
  2075  0479  1283               	bcf	3,5	;RP0=0, select bank0
  2076  047A  1303               	bcf	3,6	;RP1=0, select bank0
  2077  047B  0836               	movf	?___fldiv+2,w
  2078  047C  1683               	bsf	3,5	;RP0=1, select bank3
  2079  047D  1703               	bsf	3,6	;RP1=1, select bank3
  2080  047E  00DA               	movwf	(_main$830+2)^(0+384)
  2081  047F  1283               	bcf	3,5	;RP0=0, select bank0
  2082  0480  1303               	bcf	3,6	;RP1=0, select bank0
  2083  0481  0835               	movf	?___fldiv+1,w
  2084  0482  1683               	bsf	3,5	;RP0=1, select bank3
  2085  0483  1703               	bsf	3,6	;RP1=1, select bank3
  2086  0484  00D9               	movwf	(_main$830+1)^(0+384)
  2087  0485  1283               	bcf	3,5	;RP0=0, select bank0
  2088  0486  1303               	bcf	3,6	;RP1=0, select bank0
  2089  0487  0834               	movf	?___fldiv,w
  2090  0488  1683               	bsf	3,5	;RP0=1, select bank3
  2091  0489  1703               	bsf	3,6	;RP1=1, select bank3
  2092  048A  00D8               	movwf	_main$830^(0+384)
  2093                           
  2094                           ;sun_usart.c: 145:  B = acos((y/r))*57.29 ;
  2095  048B  085B               	movf	(_main$830+3)^(0+384),w
  2096  048C  1683               	bsf	3,5	;RP0=1, select bank1
  2097  048D  1303               	bcf	3,6	;RP1=0, select bank1
  2098  048E  00D9               	movwf	(acos@x+3)^(0+128)
  2099  048F  1683               	bsf	3,5	;RP0=1, select bank3
  2100  0490  1703               	bsf	3,6	;RP1=1, select bank3
  2101  0491  085A               	movf	(_main$830+2)^(0+384),w
  2102  0492  1683               	bsf	3,5	;RP0=1, select bank1
  2103  0493  1303               	bcf	3,6	;RP1=0, select bank1
  2104  0494  00D8               	movwf	(acos@x+2)^(0+128)
  2105  0495  1683               	bsf	3,5	;RP0=1, select bank3
  2106  0496  1703               	bsf	3,6	;RP1=1, select bank3
  2107  0497  0859               	movf	(_main$830+1)^(0+384),w
  2108  0498  1683               	bsf	3,5	;RP0=1, select bank1
  2109  0499  1303               	bcf	3,6	;RP1=0, select bank1
  2110  049A  00D7               	movwf	(acos@x+1)^(0+128)
  2111  049B  1683               	bsf	3,5	;RP0=1, select bank3
  2112  049C  1703               	bsf	3,6	;RP1=1, select bank3
  2113  049D  0858               	movf	_main$830^(0+384),w
  2114  049E  1683               	bsf	3,5	;RP0=1, select bank1
  2115  049F  1303               	bcf	3,6	;RP1=0, select bank1
  2116  04A0  00D6               	movwf	acos@x^(0+128)
  2117  04A1  160A  118A  2004  120A  118A  	fcall	_acos
  2118  04A6  1683               	bsf	3,5	;RP0=1, select bank1
  2119  04A7  1303               	bcf	3,6	;RP1=0, select bank1
  2120  04A8  0859               	movf	(?_acos+3)^(0+128),w
  2121  04A9  1683               	bsf	3,5	;RP0=1, select bank3
  2122  04AA  1703               	bsf	3,6	;RP1=1, select bank3
  2123  04AB  00DF               	movwf	(_main$831+3)^(0+384)
  2124  04AC  1683               	bsf	3,5	;RP0=1, select bank1
  2125  04AD  1303               	bcf	3,6	;RP1=0, select bank1
  2126  04AE  0858               	movf	(?_acos+2)^(0+128),w
  2127  04AF  1683               	bsf	3,5	;RP0=1, select bank3
  2128  04B0  1703               	bsf	3,6	;RP1=1, select bank3
  2129  04B1  00DE               	movwf	(_main$831+2)^(0+384)
  2130  04B2  1683               	bsf	3,5	;RP0=1, select bank1
  2131  04B3  1303               	bcf	3,6	;RP1=0, select bank1
  2132  04B4  0857               	movf	(?_acos+1)^(0+128),w
  2133  04B5  1683               	bsf	3,5	;RP0=1, select bank3
  2134  04B6  1703               	bsf	3,6	;RP1=1, select bank3
  2135  04B7  00DD               	movwf	(_main$831+1)^(0+384)
  2136  04B8  1683               	bsf	3,5	;RP0=1, select bank1
  2137  04B9  1303               	bcf	3,6	;RP1=0, select bank1
  2138  04BA  0856               	movf	?_acos^(0+128),w
  2139  04BB  1683               	bsf	3,5	;RP0=1, select bank3
  2140  04BC  1703               	bsf	3,6	;RP1=1, select bank3
  2141  04BD  00DC               	movwf	_main$831^(0+384)
  2142                           
  2143                           ;sun_usart.c: 145:  B = acos((y/r))*57.29 ;
  2144  04BE  3042               	movlw	66
  2145  04BF  1283               	bcf	3,5	;RP0=0, select bank0
  2146  04C0  1303               	bcf	3,6	;RP1=0, select bank0
  2147  04C1  00D1               	movwf	___flmul@b+3
  2148  04C2  3065               	movlw	101
  2149  04C3  00D0               	movwf	___flmul@b+2
  2150  04C4  3028               	movlw	40
  2151  04C5  00CF               	movwf	___flmul@b+1
  2152  04C6  30F6               	movlw	246
  2153  04C7  00CE               	movwf	___flmul@b
  2154  04C8  1683               	bsf	3,5	;RP0=1, select bank3
  2155  04C9  1703               	bsf	3,6	;RP1=1, select bank3
  2156  04CA  085F               	movf	(_main$831+3)^(0+384),w
  2157  04CB  1283               	bcf	3,5	;RP0=0, select bank0
  2158  04CC  1303               	bcf	3,6	;RP1=0, select bank0
  2159  04CD  00D5               	movwf	___flmul@a+3
  2160  04CE  1683               	bsf	3,5	;RP0=1, select bank3
  2161  04CF  1703               	bsf	3,6	;RP1=1, select bank3
  2162  04D0  085E               	movf	(_main$831+2)^(0+384),w
  2163  04D1  1283               	bcf	3,5	;RP0=0, select bank0
  2164  04D2  1303               	bcf	3,6	;RP1=0, select bank0
  2165  04D3  00D4               	movwf	___flmul@a+2
  2166  04D4  1683               	bsf	3,5	;RP0=1, select bank3
  2167  04D5  1703               	bsf	3,6	;RP1=1, select bank3
  2168  04D6  085D               	movf	(_main$831+1)^(0+384),w
  2169  04D7  1283               	bcf	3,5	;RP0=0, select bank0
  2170  04D8  1303               	bcf	3,6	;RP1=0, select bank0
  2171  04D9  00D3               	movwf	___flmul@a+1
  2172  04DA  1683               	bsf	3,5	;RP0=1, select bank3
  2173  04DB  1703               	bsf	3,6	;RP1=1, select bank3
  2174  04DC  085C               	movf	_main$831^(0+384),w
  2175  04DD  1283               	bcf	3,5	;RP0=0, select bank0
  2176  04DE  1303               	bcf	3,6	;RP1=0, select bank0
  2177  04DF  00D2               	movwf	___flmul@a
  2178  04E0  120A  158A  24EB  120A  118A  	fcall	___flmul
  2179  04E5  1283               	bcf	3,5	;RP0=0, select bank0
  2180  04E6  1303               	bcf	3,6	;RP1=0, select bank0
  2181  04E7  0851               	movf	?___flmul+3,w
  2182  04E8  1683               	bsf	3,5	;RP0=1, select bank3
  2183  04E9  1703               	bsf	3,6	;RP1=1, select bank3
  2184  04EA  0097               	movwf	(main@B+3)^(0+384)
  2185  04EB  1283               	bcf	3,5	;RP0=0, select bank0
  2186  04EC  1303               	bcf	3,6	;RP1=0, select bank0
  2187  04ED  0850               	movf	?___flmul+2,w
  2188  04EE  1683               	bsf	3,5	;RP0=1, select bank3
  2189  04EF  1703               	bsf	3,6	;RP1=1, select bank3
  2190  04F0  0096               	movwf	(main@B+2)^(0+384)
  2191  04F1  1283               	bcf	3,5	;RP0=0, select bank0
  2192  04F2  1303               	bcf	3,6	;RP1=0, select bank0
  2193  04F3  084F               	movf	?___flmul+1,w
  2194  04F4  1683               	bsf	3,5	;RP0=1, select bank3
  2195  04F5  1703               	bsf	3,6	;RP1=1, select bank3
  2196  04F6  0095               	movwf	(main@B+1)^(0+384)
  2197  04F7  1283               	bcf	3,5	;RP0=0, select bank0
  2198  04F8  1303               	bcf	3,6	;RP1=0, select bank0
  2199  04F9  084E               	movf	?___flmul,w
  2200  04FA  1683               	bsf	3,5	;RP0=1, select bank3
  2201  04FB  1703               	bsf	3,6	;RP1=1, select bank3
  2202  04FC  0094               	movwf	main@B^(0+384)
  2203                           
  2204                           ;sun_usart.c: 146:  C = acos((z/r))*57.29 ;
  2205  04FD  0857               	movf	(main@r+3)^(0+384),w
  2206  04FE  1283               	bcf	3,5	;RP0=0, select bank0
  2207  04FF  1303               	bcf	3,6	;RP1=0, select bank0
  2208  0500  00B7               	movwf	___fldiv@a+3
  2209  0501  1683               	bsf	3,5	;RP0=1, select bank3
  2210  0502  1703               	bsf	3,6	;RP1=1, select bank3
  2211  0503  0856               	movf	(main@r+2)^(0+384),w
  2212  0504  1283               	bcf	3,5	;RP0=0, select bank0
  2213  0505  1303               	bcf	3,6	;RP1=0, select bank0
  2214  0506  00B6               	movwf	___fldiv@a+2
  2215  0507  1683               	bsf	3,5	;RP0=1, select bank3
  2216  0508  1703               	bsf	3,6	;RP1=1, select bank3
  2217  0509  0855               	movf	(main@r+1)^(0+384),w
  2218  050A  1283               	bcf	3,5	;RP0=0, select bank0
  2219  050B  1303               	bcf	3,6	;RP1=0, select bank0
  2220  050C  00B5               	movwf	___fldiv@a+1
  2221  050D  1683               	bsf	3,5	;RP0=1, select bank3
  2222  050E  1703               	bsf	3,6	;RP1=1, select bank3
  2223  050F  0854               	movf	main@r^(0+384),w
  2224  0510  1283               	bcf	3,5	;RP0=0, select bank0
  2225  0511  1303               	bcf	3,6	;RP1=0, select bank0
  2226  0512  00B4               	movwf	___fldiv@a
  2227  0513  1683               	bsf	3,5	;RP0=1, select bank3
  2228  0514  1703               	bsf	3,6	;RP1=1, select bank3
  2229  0515  084B               	movf	(main@z+3)^(0+384),w
  2230  0516  1283               	bcf	3,5	;RP0=0, select bank0
  2231  0517  1303               	bcf	3,6	;RP1=0, select bank0
  2232  0518  00BB               	movwf	___fldiv@b+3
  2233  0519  1683               	bsf	3,5	;RP0=1, select bank3
  2234  051A  1703               	bsf	3,6	;RP1=1, select bank3
  2235  051B  084A               	movf	(main@z+2)^(0+384),w
  2236  051C  1283               	bcf	3,5	;RP0=0, select bank0
  2237  051D  1303               	bcf	3,6	;RP1=0, select bank0
  2238  051E  00BA               	movwf	___fldiv@b+2
  2239  051F  1683               	bsf	3,5	;RP0=1, select bank3
  2240  0520  1703               	bsf	3,6	;RP1=1, select bank3
  2241  0521  0849               	movf	(main@z+1)^(0+384),w
  2242  0522  1283               	bcf	3,5	;RP0=0, select bank0
  2243  0523  1303               	bcf	3,6	;RP1=0, select bank0
  2244  0524  00B9               	movwf	___fldiv@b+1
  2245  0525  1683               	bsf	3,5	;RP0=1, select bank3
  2246  0526  1703               	bsf	3,6	;RP1=1, select bank3
  2247  0527  0848               	movf	main@z^(0+384),w
  2248  0528  1283               	bcf	3,5	;RP0=0, select bank0
  2249  0529  1303               	bcf	3,6	;RP1=0, select bank0
  2250  052A  00B8               	movwf	___fldiv@b
  2251  052B  160A  118A  219B  120A  118A  	fcall	___fldiv
  2252  0530  1283               	bcf	3,5	;RP0=0, select bank0
  2253  0531  1303               	bcf	3,6	;RP1=0, select bank0
  2254  0532  0837               	movf	?___fldiv+3,w
  2255  0533  1683               	bsf	3,5	;RP0=1, select bank3
  2256  0534  1703               	bsf	3,6	;RP1=1, select bank3
  2257  0535  00DB               	movwf	(_main$830+3)^(0+384)
  2258  0536  1283               	bcf	3,5	;RP0=0, select bank0
  2259  0537  1303               	bcf	3,6	;RP1=0, select bank0
  2260  0538  0836               	movf	?___fldiv+2,w
  2261  0539  1683               	bsf	3,5	;RP0=1, select bank3
  2262  053A  1703               	bsf	3,6	;RP1=1, select bank3
  2263  053B  00DA               	movwf	(_main$830+2)^(0+384)
  2264  053C  1283               	bcf	3,5	;RP0=0, select bank0
  2265  053D  1303               	bcf	3,6	;RP1=0, select bank0
  2266  053E  0835               	movf	?___fldiv+1,w
  2267  053F  1683               	bsf	3,5	;RP0=1, select bank3
  2268  0540  1703               	bsf	3,6	;RP1=1, select bank3
  2269  0541  00D9               	movwf	(_main$830+1)^(0+384)
  2270  0542  1283               	bcf	3,5	;RP0=0, select bank0
  2271  0543  1303               	bcf	3,6	;RP1=0, select bank0
  2272  0544  0834               	movf	?___fldiv,w
  2273  0545  1683               	bsf	3,5	;RP0=1, select bank3
  2274  0546  1703               	bsf	3,6	;RP1=1, select bank3
  2275  0547  00D8               	movwf	_main$830^(0+384)
  2276                           
  2277                           ;sun_usart.c: 146:  C = acos((z/r))*57.29 ;
  2278  0548  085B               	movf	(_main$830+3)^(0+384),w
  2279  0549  1683               	bsf	3,5	;RP0=1, select bank1
  2280  054A  1303               	bcf	3,6	;RP1=0, select bank1
  2281  054B  00D9               	movwf	(acos@x+3)^(0+128)
  2282  054C  1683               	bsf	3,5	;RP0=1, select bank3
  2283  054D  1703               	bsf	3,6	;RP1=1, select bank3
  2284  054E  085A               	movf	(_main$830+2)^(0+384),w
  2285  054F  1683               	bsf	3,5	;RP0=1, select bank1
  2286  0550  1303               	bcf	3,6	;RP1=0, select bank1
  2287  0551  00D8               	movwf	(acos@x+2)^(0+128)
  2288  0552  1683               	bsf	3,5	;RP0=1, select bank3
  2289  0553  1703               	bsf	3,6	;RP1=1, select bank3
  2290  0554  0859               	movf	(_main$830+1)^(0+384),w
  2291  0555  1683               	bsf	3,5	;RP0=1, select bank1
  2292  0556  1303               	bcf	3,6	;RP1=0, select bank1
  2293  0557  00D7               	movwf	(acos@x+1)^(0+128)
  2294  0558  1683               	bsf	3,5	;RP0=1, select bank3
  2295  0559  1703               	bsf	3,6	;RP1=1, select bank3
  2296  055A  0858               	movf	_main$830^(0+384),w
  2297  055B  1683               	bsf	3,5	;RP0=1, select bank1
  2298  055C  1303               	bcf	3,6	;RP1=0, select bank1
  2299  055D  00D6               	movwf	acos@x^(0+128)
  2300  055E  160A  118A  2004  120A  118A  	fcall	_acos
  2301  0563  1683               	bsf	3,5	;RP0=1, select bank1
  2302  0564  1303               	bcf	3,6	;RP1=0, select bank1
  2303  0565  0859               	movf	(?_acos+3)^(0+128),w
  2304  0566  1683               	bsf	3,5	;RP0=1, select bank3
  2305  0567  1703               	bsf	3,6	;RP1=1, select bank3
  2306  0568  00DF               	movwf	(_main$831+3)^(0+384)
  2307  0569  1683               	bsf	3,5	;RP0=1, select bank1
  2308  056A  1303               	bcf	3,6	;RP1=0, select bank1
  2309  056B  0858               	movf	(?_acos+2)^(0+128),w
  2310  056C  1683               	bsf	3,5	;RP0=1, select bank3
  2311  056D  1703               	bsf	3,6	;RP1=1, select bank3
  2312  056E  00DE               	movwf	(_main$831+2)^(0+384)
  2313  056F  1683               	bsf	3,5	;RP0=1, select bank1
  2314  0570  1303               	bcf	3,6	;RP1=0, select bank1
  2315  0571  0857               	movf	(?_acos+1)^(0+128),w
  2316  0572  1683               	bsf	3,5	;RP0=1, select bank3
  2317  0573  1703               	bsf	3,6	;RP1=1, select bank3
  2318  0574  00DD               	movwf	(_main$831+1)^(0+384)
  2319  0575  1683               	bsf	3,5	;RP0=1, select bank1
  2320  0576  1303               	bcf	3,6	;RP1=0, select bank1
  2321  0577  0856               	movf	?_acos^(0+128),w
  2322  0578  1683               	bsf	3,5	;RP0=1, select bank3
  2323  0579  1703               	bsf	3,6	;RP1=1, select bank3
  2324  057A  00DC               	movwf	_main$831^(0+384)
  2325                           
  2326                           ;sun_usart.c: 146:  C = acos((z/r))*57.29 ;
  2327  057B  3042               	movlw	66
  2328  057C  1283               	bcf	3,5	;RP0=0, select bank0
  2329  057D  1303               	bcf	3,6	;RP1=0, select bank0
  2330  057E  00D1               	movwf	___flmul@b+3
  2331  057F  3065               	movlw	101
  2332  0580  00D0               	movwf	___flmul@b+2
  2333  0581  3028               	movlw	40
  2334  0582  00CF               	movwf	___flmul@b+1
  2335  0583  30F6               	movlw	246
  2336  0584  00CE               	movwf	___flmul@b
  2337  0585  1683               	bsf	3,5	;RP0=1, select bank3
  2338  0586  1703               	bsf	3,6	;RP1=1, select bank3
  2339  0587  085F               	movf	(_main$831+3)^(0+384),w
  2340  0588  1283               	bcf	3,5	;RP0=0, select bank0
  2341  0589  1303               	bcf	3,6	;RP1=0, select bank0
  2342  058A  00D5               	movwf	___flmul@a+3
  2343  058B  1683               	bsf	3,5	;RP0=1, select bank3
  2344  058C  1703               	bsf	3,6	;RP1=1, select bank3
  2345  058D  085E               	movf	(_main$831+2)^(0+384),w
  2346  058E  1283               	bcf	3,5	;RP0=0, select bank0
  2347  058F  1303               	bcf	3,6	;RP1=0, select bank0
  2348  0590  00D4               	movwf	___flmul@a+2
  2349  0591  1683               	bsf	3,5	;RP0=1, select bank3
  2350  0592  1703               	bsf	3,6	;RP1=1, select bank3
  2351  0593  085D               	movf	(_main$831+1)^(0+384),w
  2352  0594  1283               	bcf	3,5	;RP0=0, select bank0
  2353  0595  1303               	bcf	3,6	;RP1=0, select bank0
  2354  0596  00D3               	movwf	___flmul@a+1
  2355  0597  1683               	bsf	3,5	;RP0=1, select bank3
  2356  0598  1703               	bsf	3,6	;RP1=1, select bank3
  2357  0599  085C               	movf	_main$831^(0+384),w
  2358  059A  1283               	bcf	3,5	;RP0=0, select bank0
  2359  059B  1303               	bcf	3,6	;RP1=0, select bank0
  2360  059C  00D2               	movwf	___flmul@a
  2361  059D  120A  158A  24EB  120A  118A  	fcall	___flmul
  2362  05A2  1283               	bcf	3,5	;RP0=0, select bank0
  2363  05A3  1303               	bcf	3,6	;RP1=0, select bank0
  2364  05A4  0851               	movf	?___flmul+3,w
  2365  05A5  1683               	bsf	3,5	;RP0=1, select bank3
  2366  05A6  1703               	bsf	3,6	;RP1=1, select bank3
  2367  05A7  009B               	movwf	(main@C+3)^(0+384)
  2368  05A8  1283               	bcf	3,5	;RP0=0, select bank0
  2369  05A9  1303               	bcf	3,6	;RP1=0, select bank0
  2370  05AA  0850               	movf	?___flmul+2,w
  2371  05AB  1683               	bsf	3,5	;RP0=1, select bank3
  2372  05AC  1703               	bsf	3,6	;RP1=1, select bank3
  2373  05AD  009A               	movwf	(main@C+2)^(0+384)
  2374  05AE  1283               	bcf	3,5	;RP0=0, select bank0
  2375  05AF  1303               	bcf	3,6	;RP1=0, select bank0
  2376  05B0  084F               	movf	?___flmul+1,w
  2377  05B1  1683               	bsf	3,5	;RP0=1, select bank3
  2378  05B2  1703               	bsf	3,6	;RP1=1, select bank3
  2379  05B3  0099               	movwf	(main@C+1)^(0+384)
  2380  05B4  1283               	bcf	3,5	;RP0=0, select bank0
  2381  05B5  1303               	bcf	3,6	;RP1=0, select bank0
  2382  05B6  084E               	movf	?___flmul,w
  2383  05B7  1683               	bsf	3,5	;RP0=1, select bank3
  2384  05B8  1703               	bsf	3,6	;RP1=1, select bank3
  2385  05B9  0098               	movwf	main@C^(0+384)
  2386                           
  2387                           ;sun_usart.c: 147:  D = acos((negx/r))*57.29 ;
  2388  05BA  0857               	movf	(main@r+3)^(0+384),w
  2389  05BB  1283               	bcf	3,5	;RP0=0, select bank0
  2390  05BC  1303               	bcf	3,6	;RP1=0, select bank0
  2391  05BD  00B7               	movwf	___fldiv@a+3
  2392  05BE  1683               	bsf	3,5	;RP0=1, select bank3
  2393  05BF  1703               	bsf	3,6	;RP1=1, select bank3
  2394  05C0  0856               	movf	(main@r+2)^(0+384),w
  2395  05C1  1283               	bcf	3,5	;RP0=0, select bank0
  2396  05C2  1303               	bcf	3,6	;RP1=0, select bank0
  2397  05C3  00B6               	movwf	___fldiv@a+2
  2398  05C4  1683               	bsf	3,5	;RP0=1, select bank3
  2399  05C5  1703               	bsf	3,6	;RP1=1, select bank3
  2400  05C6  0855               	movf	(main@r+1)^(0+384),w
  2401  05C7  1283               	bcf	3,5	;RP0=0, select bank0
  2402  05C8  1303               	bcf	3,6	;RP1=0, select bank0
  2403  05C9  00B5               	movwf	___fldiv@a+1
  2404  05CA  1683               	bsf	3,5	;RP0=1, select bank3
  2405  05CB  1703               	bsf	3,6	;RP1=1, select bank3
  2406  05CC  0854               	movf	main@r^(0+384),w
  2407  05CD  1283               	bcf	3,5	;RP0=0, select bank0
  2408  05CE  1303               	bcf	3,6	;RP1=0, select bank0
  2409  05CF  00B4               	movwf	___fldiv@a
  2410  05D0  1683               	bsf	3,5	;RP0=1, select bank3
  2411  05D1  1703               	bsf	3,6	;RP1=1, select bank3
  2412  05D2  084F               	movf	(main@negx+3)^(0+384),w
  2413  05D3  1283               	bcf	3,5	;RP0=0, select bank0
  2414  05D4  1303               	bcf	3,6	;RP1=0, select bank0
  2415  05D5  00BB               	movwf	___fldiv@b+3
  2416  05D6  1683               	bsf	3,5	;RP0=1, select bank3
  2417  05D7  1703               	bsf	3,6	;RP1=1, select bank3
  2418  05D8  084E               	movf	(main@negx+2)^(0+384),w
  2419  05D9  1283               	bcf	3,5	;RP0=0, select bank0
  2420  05DA  1303               	bcf	3,6	;RP1=0, select bank0
  2421  05DB  00BA               	movwf	___fldiv@b+2
  2422  05DC  1683               	bsf	3,5	;RP0=1, select bank3
  2423  05DD  1703               	bsf	3,6	;RP1=1, select bank3
  2424  05DE  084D               	movf	(main@negx+1)^(0+384),w
  2425  05DF  1283               	bcf	3,5	;RP0=0, select bank0
  2426  05E0  1303               	bcf	3,6	;RP1=0, select bank0
  2427  05E1  00B9               	movwf	___fldiv@b+1
  2428  05E2  1683               	bsf	3,5	;RP0=1, select bank3
  2429  05E3  1703               	bsf	3,6	;RP1=1, select bank3
  2430  05E4  084C               	movf	main@negx^(0+384),w
  2431  05E5  1283               	bcf	3,5	;RP0=0, select bank0
  2432  05E6  1303               	bcf	3,6	;RP1=0, select bank0
  2433  05E7  00B8               	movwf	___fldiv@b
  2434  05E8  160A  118A  219B  120A  118A  	fcall	___fldiv
  2435  05ED  1283               	bcf	3,5	;RP0=0, select bank0
  2436  05EE  1303               	bcf	3,6	;RP1=0, select bank0
  2437  05EF  0837               	movf	?___fldiv+3,w
  2438  05F0  1683               	bsf	3,5	;RP0=1, select bank3
  2439  05F1  1703               	bsf	3,6	;RP1=1, select bank3
  2440  05F2  00DB               	movwf	(_main$830+3)^(0+384)
  2441  05F3  1283               	bcf	3,5	;RP0=0, select bank0
  2442  05F4  1303               	bcf	3,6	;RP1=0, select bank0
  2443  05F5  0836               	movf	?___fldiv+2,w
  2444  05F6  1683               	bsf	3,5	;RP0=1, select bank3
  2445  05F7  1703               	bsf	3,6	;RP1=1, select bank3
  2446  05F8  00DA               	movwf	(_main$830+2)^(0+384)
  2447  05F9  1283               	bcf	3,5	;RP0=0, select bank0
  2448  05FA  1303               	bcf	3,6	;RP1=0, select bank0
  2449  05FB  0835               	movf	?___fldiv+1,w
  2450  05FC  1683               	bsf	3,5	;RP0=1, select bank3
  2451  05FD  1703               	bsf	3,6	;RP1=1, select bank3
  2452  05FE  00D9               	movwf	(_main$830+1)^(0+384)
  2453  05FF  1283               	bcf	3,5	;RP0=0, select bank0
  2454  0600  1303               	bcf	3,6	;RP1=0, select bank0
  2455  0601  0834               	movf	?___fldiv,w
  2456  0602  1683               	bsf	3,5	;RP0=1, select bank3
  2457  0603  1703               	bsf	3,6	;RP1=1, select bank3
  2458  0604  00D8               	movwf	_main$830^(0+384)
  2459                           
  2460                           ;sun_usart.c: 147:  D = acos((negx/r))*57.29 ;
  2461  0605  085B               	movf	(_main$830+3)^(0+384),w
  2462  0606  1683               	bsf	3,5	;RP0=1, select bank1
  2463  0607  1303               	bcf	3,6	;RP1=0, select bank1
  2464  0608  00D9               	movwf	(acos@x+3)^(0+128)
  2465  0609  1683               	bsf	3,5	;RP0=1, select bank3
  2466  060A  1703               	bsf	3,6	;RP1=1, select bank3
  2467  060B  085A               	movf	(_main$830+2)^(0+384),w
  2468  060C  1683               	bsf	3,5	;RP0=1, select bank1
  2469  060D  1303               	bcf	3,6	;RP1=0, select bank1
  2470  060E  00D8               	movwf	(acos@x+2)^(0+128)
  2471  060F  1683               	bsf	3,5	;RP0=1, select bank3
  2472  0610  1703               	bsf	3,6	;RP1=1, select bank3
  2473  0611  0859               	movf	(_main$830+1)^(0+384),w
  2474  0612  1683               	bsf	3,5	;RP0=1, select bank1
  2475  0613  1303               	bcf	3,6	;RP1=0, select bank1
  2476  0614  00D7               	movwf	(acos@x+1)^(0+128)
  2477  0615  1683               	bsf	3,5	;RP0=1, select bank3
  2478  0616  1703               	bsf	3,6	;RP1=1, select bank3
  2479  0617  0858               	movf	_main$830^(0+384),w
  2480  0618  1683               	bsf	3,5	;RP0=1, select bank1
  2481  0619  1303               	bcf	3,6	;RP1=0, select bank1
  2482  061A  00D6               	movwf	acos@x^(0+128)
  2483  061B  160A  118A  2004  120A  118A  	fcall	_acos
  2484  0620  1683               	bsf	3,5	;RP0=1, select bank1
  2485  0621  1303               	bcf	3,6	;RP1=0, select bank1
  2486  0622  0859               	movf	(?_acos+3)^(0+128),w
  2487  0623  1683               	bsf	3,5	;RP0=1, select bank3
  2488  0624  1703               	bsf	3,6	;RP1=1, select bank3
  2489  0625  00DF               	movwf	(_main$831+3)^(0+384)
  2490  0626  1683               	bsf	3,5	;RP0=1, select bank1
  2491  0627  1303               	bcf	3,6	;RP1=0, select bank1
  2492  0628  0858               	movf	(?_acos+2)^(0+128),w
  2493  0629  1683               	bsf	3,5	;RP0=1, select bank3
  2494  062A  1703               	bsf	3,6	;RP1=1, select bank3
  2495  062B  00DE               	movwf	(_main$831+2)^(0+384)
  2496  062C  1683               	bsf	3,5	;RP0=1, select bank1
  2497  062D  1303               	bcf	3,6	;RP1=0, select bank1
  2498  062E  0857               	movf	(?_acos+1)^(0+128),w
  2499  062F  1683               	bsf	3,5	;RP0=1, select bank3
  2500  0630  1703               	bsf	3,6	;RP1=1, select bank3
  2501  0631  00DD               	movwf	(_main$831+1)^(0+384)
  2502  0632  1683               	bsf	3,5	;RP0=1, select bank1
  2503  0633  1303               	bcf	3,6	;RP1=0, select bank1
  2504  0634  0856               	movf	?_acos^(0+128),w
  2505  0635  1683               	bsf	3,5	;RP0=1, select bank3
  2506  0636  1703               	bsf	3,6	;RP1=1, select bank3
  2507  0637  00DC               	movwf	_main$831^(0+384)
  2508                           
  2509                           ;sun_usart.c: 147:  D = acos((negx/r))*57.29 ;
  2510  0638  3042               	movlw	66
  2511  0639  1283               	bcf	3,5	;RP0=0, select bank0
  2512  063A  1303               	bcf	3,6	;RP1=0, select bank0
  2513  063B  00D1               	movwf	___flmul@b+3
  2514  063C  3065               	movlw	101
  2515  063D  00D0               	movwf	___flmul@b+2
  2516  063E  3028               	movlw	40
  2517  063F  00CF               	movwf	___flmul@b+1
  2518  0640  30F6               	movlw	246
  2519  0641  00CE               	movwf	___flmul@b
  2520  0642  1683               	bsf	3,5	;RP0=1, select bank3
  2521  0643  1703               	bsf	3,6	;RP1=1, select bank3
  2522  0644  085F               	movf	(_main$831+3)^(0+384),w
  2523  0645  1283               	bcf	3,5	;RP0=0, select bank0
  2524  0646  1303               	bcf	3,6	;RP1=0, select bank0
  2525  0647  00D5               	movwf	___flmul@a+3
  2526  0648  1683               	bsf	3,5	;RP0=1, select bank3
  2527  0649  1703               	bsf	3,6	;RP1=1, select bank3
  2528  064A  085E               	movf	(_main$831+2)^(0+384),w
  2529  064B  1283               	bcf	3,5	;RP0=0, select bank0
  2530  064C  1303               	bcf	3,6	;RP1=0, select bank0
  2531  064D  00D4               	movwf	___flmul@a+2
  2532  064E  1683               	bsf	3,5	;RP0=1, select bank3
  2533  064F  1703               	bsf	3,6	;RP1=1, select bank3
  2534  0650  085D               	movf	(_main$831+1)^(0+384),w
  2535  0651  1283               	bcf	3,5	;RP0=0, select bank0
  2536  0652  1303               	bcf	3,6	;RP1=0, select bank0
  2537  0653  00D3               	movwf	___flmul@a+1
  2538  0654  1683               	bsf	3,5	;RP0=1, select bank3
  2539  0655  1703               	bsf	3,6	;RP1=1, select bank3
  2540  0656  085C               	movf	_main$831^(0+384),w
  2541  0657  1283               	bcf	3,5	;RP0=0, select bank0
  2542  0658  1303               	bcf	3,6	;RP1=0, select bank0
  2543  0659  00D2               	movwf	___flmul@a
  2544  065A  120A  158A  24EB  120A  118A  	fcall	___flmul
  2545  065F  1283               	bcf	3,5	;RP0=0, select bank0
  2546  0660  1303               	bcf	3,6	;RP1=0, select bank0
  2547  0661  0851               	movf	?___flmul+3,w
  2548  0662  1683               	bsf	3,5	;RP0=1, select bank3
  2549  0663  1703               	bsf	3,6	;RP1=1, select bank3
  2550  0664  009F               	movwf	(main@D+3)^(0+384)
  2551  0665  1283               	bcf	3,5	;RP0=0, select bank0
  2552  0666  1303               	bcf	3,6	;RP1=0, select bank0
  2553  0667  0850               	movf	?___flmul+2,w
  2554  0668  1683               	bsf	3,5	;RP0=1, select bank3
  2555  0669  1703               	bsf	3,6	;RP1=1, select bank3
  2556  066A  009E               	movwf	(main@D+2)^(0+384)
  2557  066B  1283               	bcf	3,5	;RP0=0, select bank0
  2558  066C  1303               	bcf	3,6	;RP1=0, select bank0
  2559  066D  084F               	movf	?___flmul+1,w
  2560  066E  1683               	bsf	3,5	;RP0=1, select bank3
  2561  066F  1703               	bsf	3,6	;RP1=1, select bank3
  2562  0670  009D               	movwf	(main@D+1)^(0+384)
  2563  0671  1283               	bcf	3,5	;RP0=0, select bank0
  2564  0672  1303               	bcf	3,6	;RP1=0, select bank0
  2565  0673  084E               	movf	?___flmul,w
  2566  0674  1683               	bsf	3,5	;RP0=1, select bank3
  2567  0675  1703               	bsf	3,6	;RP1=1, select bank3
  2568  0676  009C               	movwf	main@D^(0+384)
  2569                           
  2570                           ;sun_usart.c: 148:  E = acos((negy/r))*57.29 ;
  2571  0677  0857               	movf	(main@r+3)^(0+384),w
  2572  0678  1283               	bcf	3,5	;RP0=0, select bank0
  2573  0679  1303               	bcf	3,6	;RP1=0, select bank0
  2574  067A  00B7               	movwf	___fldiv@a+3
  2575  067B  1683               	bsf	3,5	;RP0=1, select bank3
  2576  067C  1703               	bsf	3,6	;RP1=1, select bank3
  2577  067D  0856               	movf	(main@r+2)^(0+384),w
  2578  067E  1283               	bcf	3,5	;RP0=0, select bank0
  2579  067F  1303               	bcf	3,6	;RP1=0, select bank0
  2580  0680  00B6               	movwf	___fldiv@a+2
  2581  0681  1683               	bsf	3,5	;RP0=1, select bank3
  2582  0682  1703               	bsf	3,6	;RP1=1, select bank3
  2583  0683  0855               	movf	(main@r+1)^(0+384),w
  2584  0684  1283               	bcf	3,5	;RP0=0, select bank0
  2585  0685  1303               	bcf	3,6	;RP1=0, select bank0
  2586  0686  00B5               	movwf	___fldiv@a+1
  2587  0687  1683               	bsf	3,5	;RP0=1, select bank3
  2588  0688  1703               	bsf	3,6	;RP1=1, select bank3
  2589  0689  0854               	movf	main@r^(0+384),w
  2590  068A  1283               	bcf	3,5	;RP0=0, select bank0
  2591  068B  1303               	bcf	3,6	;RP1=0, select bank0
  2592  068C  00B4               	movwf	___fldiv@a
  2593  068D  1683               	bsf	3,5	;RP0=1, select bank3
  2594  068E  1703               	bsf	3,6	;RP1=1, select bank3
  2595  068F  0853               	movf	(main@negy+3)^(0+384),w
  2596  0690  1283               	bcf	3,5	;RP0=0, select bank0
  2597  0691  1303               	bcf	3,6	;RP1=0, select bank0
  2598  0692  00BB               	movwf	___fldiv@b+3
  2599  0693  1683               	bsf	3,5	;RP0=1, select bank3
  2600  0694  1703               	bsf	3,6	;RP1=1, select bank3
  2601  0695  0852               	movf	(main@negy+2)^(0+384),w
  2602  0696  1283               	bcf	3,5	;RP0=0, select bank0
  2603  0697  1303               	bcf	3,6	;RP1=0, select bank0
  2604  0698  00BA               	movwf	___fldiv@b+2
  2605  0699  1683               	bsf	3,5	;RP0=1, select bank3
  2606  069A  1703               	bsf	3,6	;RP1=1, select bank3
  2607  069B  0851               	movf	(main@negy+1)^(0+384),w
  2608  069C  1283               	bcf	3,5	;RP0=0, select bank0
  2609  069D  1303               	bcf	3,6	;RP1=0, select bank0
  2610  069E  00B9               	movwf	___fldiv@b+1
  2611  069F  1683               	bsf	3,5	;RP0=1, select bank3
  2612  06A0  1703               	bsf	3,6	;RP1=1, select bank3
  2613  06A1  0850               	movf	main@negy^(0+384),w
  2614  06A2  1283               	bcf	3,5	;RP0=0, select bank0
  2615  06A3  1303               	bcf	3,6	;RP1=0, select bank0
  2616  06A4  00B8               	movwf	___fldiv@b
  2617  06A5  160A  118A  219B  120A  118A  	fcall	___fldiv
  2618  06AA  1283               	bcf	3,5	;RP0=0, select bank0
  2619  06AB  1303               	bcf	3,6	;RP1=0, select bank0
  2620  06AC  0837               	movf	?___fldiv+3,w
  2621  06AD  1683               	bsf	3,5	;RP0=1, select bank3
  2622  06AE  1703               	bsf	3,6	;RP1=1, select bank3
  2623  06AF  00DB               	movwf	(_main$830+3)^(0+384)
  2624  06B0  1283               	bcf	3,5	;RP0=0, select bank0
  2625  06B1  1303               	bcf	3,6	;RP1=0, select bank0
  2626  06B2  0836               	movf	?___fldiv+2,w
  2627  06B3  1683               	bsf	3,5	;RP0=1, select bank3
  2628  06B4  1703               	bsf	3,6	;RP1=1, select bank3
  2629  06B5  00DA               	movwf	(_main$830+2)^(0+384)
  2630  06B6  1283               	bcf	3,5	;RP0=0, select bank0
  2631  06B7  1303               	bcf	3,6	;RP1=0, select bank0
  2632  06B8  0835               	movf	?___fldiv+1,w
  2633  06B9  1683               	bsf	3,5	;RP0=1, select bank3
  2634  06BA  1703               	bsf	3,6	;RP1=1, select bank3
  2635  06BB  00D9               	movwf	(_main$830+1)^(0+384)
  2636  06BC  1283               	bcf	3,5	;RP0=0, select bank0
  2637  06BD  1303               	bcf	3,6	;RP1=0, select bank0
  2638  06BE  0834               	movf	?___fldiv,w
  2639  06BF  1683               	bsf	3,5	;RP0=1, select bank3
  2640  06C0  1703               	bsf	3,6	;RP1=1, select bank3
  2641  06C1  00D8               	movwf	_main$830^(0+384)
  2642                           
  2643                           ;sun_usart.c: 148:  E = acos((negy/r))*57.29 ;
  2644  06C2  085B               	movf	(_main$830+3)^(0+384),w
  2645  06C3  1683               	bsf	3,5	;RP0=1, select bank1
  2646  06C4  1303               	bcf	3,6	;RP1=0, select bank1
  2647  06C5  00D9               	movwf	(acos@x+3)^(0+128)
  2648  06C6  1683               	bsf	3,5	;RP0=1, select bank3
  2649  06C7  1703               	bsf	3,6	;RP1=1, select bank3
  2650  06C8  085A               	movf	(_main$830+2)^(0+384),w
  2651  06C9  1683               	bsf	3,5	;RP0=1, select bank1
  2652  06CA  1303               	bcf	3,6	;RP1=0, select bank1
  2653  06CB  00D8               	movwf	(acos@x+2)^(0+128)
  2654  06CC  1683               	bsf	3,5	;RP0=1, select bank3
  2655  06CD  1703               	bsf	3,6	;RP1=1, select bank3
  2656  06CE  0859               	movf	(_main$830+1)^(0+384),w
  2657  06CF  1683               	bsf	3,5	;RP0=1, select bank1
  2658  06D0  1303               	bcf	3,6	;RP1=0, select bank1
  2659  06D1  00D7               	movwf	(acos@x+1)^(0+128)
  2660  06D2  1683               	bsf	3,5	;RP0=1, select bank3
  2661  06D3  1703               	bsf	3,6	;RP1=1, select bank3
  2662  06D4  0858               	movf	_main$830^(0+384),w
  2663  06D5  1683               	bsf	3,5	;RP0=1, select bank1
  2664  06D6  1303               	bcf	3,6	;RP1=0, select bank1
  2665  06D7  00D6               	movwf	acos@x^(0+128)
  2666  06D8  160A  118A  2004  120A  118A  	fcall	_acos
  2667  06DD  1683               	bsf	3,5	;RP0=1, select bank1
  2668  06DE  1303               	bcf	3,6	;RP1=0, select bank1
  2669  06DF  0859               	movf	(?_acos+3)^(0+128),w
  2670  06E0  1683               	bsf	3,5	;RP0=1, select bank3
  2671  06E1  1703               	bsf	3,6	;RP1=1, select bank3
  2672  06E2  00DF               	movwf	(_main$831+3)^(0+384)
  2673  06E3  1683               	bsf	3,5	;RP0=1, select bank1
  2674  06E4  1303               	bcf	3,6	;RP1=0, select bank1
  2675  06E5  0858               	movf	(?_acos+2)^(0+128),w
  2676  06E6  1683               	bsf	3,5	;RP0=1, select bank3
  2677  06E7  1703               	bsf	3,6	;RP1=1, select bank3
  2678  06E8  00DE               	movwf	(_main$831+2)^(0+384)
  2679  06E9  1683               	bsf	3,5	;RP0=1, select bank1
  2680  06EA  1303               	bcf	3,6	;RP1=0, select bank1
  2681  06EB  0857               	movf	(?_acos+1)^(0+128),w
  2682  06EC  1683               	bsf	3,5	;RP0=1, select bank3
  2683  06ED  1703               	bsf	3,6	;RP1=1, select bank3
  2684  06EE  00DD               	movwf	(_main$831+1)^(0+384)
  2685  06EF  1683               	bsf	3,5	;RP0=1, select bank1
  2686  06F0  1303               	bcf	3,6	;RP1=0, select bank1
  2687  06F1  0856               	movf	?_acos^(0+128),w
  2688  06F2  1683               	bsf	3,5	;RP0=1, select bank3
  2689  06F3  1703               	bsf	3,6	;RP1=1, select bank3
  2690  06F4  00DC               	movwf	_main$831^(0+384)
  2691                           
  2692                           ;sun_usart.c: 148:  E = acos((negy/r))*57.29 ;
  2693  06F5  3042               	movlw	66
  2694  06F6  1283               	bcf	3,5	;RP0=0, select bank0
  2695  06F7  1303               	bcf	3,6	;RP1=0, select bank0
  2696  06F8  00D1               	movwf	___flmul@b+3
  2697  06F9  3065               	movlw	101
  2698  06FA  00D0               	movwf	___flmul@b+2
  2699  06FB  3028               	movlw	40
  2700  06FC  00CF               	movwf	___flmul@b+1
  2701  06FD  30F6               	movlw	246
  2702  06FE  00CE               	movwf	___flmul@b
  2703  06FF  1683               	bsf	3,5	;RP0=1, select bank3
  2704  0700  1703               	bsf	3,6	;RP1=1, select bank3
  2705  0701  085F               	movf	(_main$831+3)^(0+384),w
  2706  0702  1283               	bcf	3,5	;RP0=0, select bank0
  2707  0703  1303               	bcf	3,6	;RP1=0, select bank0
  2708  0704  00D5               	movwf	___flmul@a+3
  2709  0705  1683               	bsf	3,5	;RP0=1, select bank3
  2710  0706  1703               	bsf	3,6	;RP1=1, select bank3
  2711  0707  085E               	movf	(_main$831+2)^(0+384),w
  2712  0708  1283               	bcf	3,5	;RP0=0, select bank0
  2713  0709  1303               	bcf	3,6	;RP1=0, select bank0
  2714  070A  00D4               	movwf	___flmul@a+2
  2715  070B  1683               	bsf	3,5	;RP0=1, select bank3
  2716  070C  1703               	bsf	3,6	;RP1=1, select bank3
  2717  070D  085D               	movf	(_main$831+1)^(0+384),w
  2718  070E  1283               	bcf	3,5	;RP0=0, select bank0
  2719  070F  1303               	bcf	3,6	;RP1=0, select bank0
  2720  0710  00D3               	movwf	___flmul@a+1
  2721  0711  1683               	bsf	3,5	;RP0=1, select bank3
  2722  0712  1703               	bsf	3,6	;RP1=1, select bank3
  2723  0713  085C               	movf	_main$831^(0+384),w
  2724  0714  1283               	bcf	3,5	;RP0=0, select bank0
  2725  0715  1303               	bcf	3,6	;RP1=0, select bank0
  2726  0716  00D2               	movwf	___flmul@a
  2727  0717  120A  158A  24EB  120A  118A  	fcall	___flmul
  2728  071C  1283               	bcf	3,5	;RP0=0, select bank0
  2729  071D  1303               	bcf	3,6	;RP1=0, select bank0
  2730  071E  0851               	movf	?___flmul+3,w
  2731  071F  1683               	bsf	3,5	;RP0=1, select bank3
  2732  0720  1703               	bsf	3,6	;RP1=1, select bank3
  2733  0721  00A3               	movwf	(main@E+3)^(0+384)
  2734  0722  1283               	bcf	3,5	;RP0=0, select bank0
  2735  0723  1303               	bcf	3,6	;RP1=0, select bank0
  2736  0724  0850               	movf	?___flmul+2,w
  2737  0725  1683               	bsf	3,5	;RP0=1, select bank3
  2738  0726  1703               	bsf	3,6	;RP1=1, select bank3
  2739  0727  00A2               	movwf	(main@E+2)^(0+384)
  2740  0728  1283               	bcf	3,5	;RP0=0, select bank0
  2741  0729  1303               	bcf	3,6	;RP1=0, select bank0
  2742  072A  084F               	movf	?___flmul+1,w
  2743  072B  1683               	bsf	3,5	;RP0=1, select bank3
  2744  072C  1703               	bsf	3,6	;RP1=1, select bank3
  2745  072D  00A1               	movwf	(main@E+1)^(0+384)
  2746  072E  1283               	bcf	3,5	;RP0=0, select bank0
  2747  072F  1303               	bcf	3,6	;RP1=0, select bank0
  2748  0730  084E               	movf	?___flmul,w
  2749  0731  1683               	bsf	3,5	;RP0=1, select bank3
  2750  0732  1703               	bsf	3,6	;RP1=1, select bank3
  2751  0733  00A0               	movwf	main@E^(0+384)
  2752                           
  2753                           ;sun_usart.c: 154: UART_send_string(" X AXIS: ");
  2754  0734  306A               	movlw	(low (((STR_11+4)-__stringbase)| (0+32768)))& (0+255)
  2755  0735  160A  158A  22DF  120A  118A  	fcall	_UART_send_string
  2756                           
  2757                           ;sun_usart.c: 155:     UART_send_float(A);UART_send_float(x); for(int i=0;i<10;i++)
  2758  073A  1683               	bsf	3,5	;RP0=1, select bank3
  2759  073B  1703               	bsf	3,6	;RP1=1, select bank3
  2760  073C  0813               	movf	(main@A+3)^(0+384),w
  2761  073D  1683               	bsf	3,5	;RP0=1, select bank1
  2762  073E  1303               	bcf	3,6	;RP1=0, select bank1
  2763  073F  00A8               	movwf	(UART_send_float@bt+3)^(0+128)
  2764  0740  1683               	bsf	3,5	;RP0=1, select bank3
  2765  0741  1703               	bsf	3,6	;RP1=1, select bank3
  2766  0742  0812               	movf	(main@A+2)^(0+384),w
  2767  0743  1683               	bsf	3,5	;RP0=1, select bank1
  2768  0744  1303               	bcf	3,6	;RP1=0, select bank1
  2769  0745  00A7               	movwf	(UART_send_float@bt+2)^(0+128)
  2770  0746  1683               	bsf	3,5	;RP0=1, select bank3
  2771  0747  1703               	bsf	3,6	;RP1=1, select bank3
  2772  0748  0811               	movf	(main@A+1)^(0+384),w
  2773  0749  1683               	bsf	3,5	;RP0=1, select bank1
  2774  074A  1303               	bcf	3,6	;RP1=0, select bank1
  2775  074B  00A6               	movwf	(UART_send_float@bt+1)^(0+128)
  2776  074C  1683               	bsf	3,5	;RP0=1, select bank3
  2777  074D  1703               	bsf	3,6	;RP1=1, select bank3
  2778  074E  0810               	movf	main@A^(0+384),w
  2779  074F  1683               	bsf	3,5	;RP0=1, select bank1
  2780  0750  1303               	bcf	3,6	;RP1=0, select bank1
  2781  0751  00A5               	movwf	UART_send_float@bt^(0+128)
  2782  0752  160A  158A  26D8  120A  118A  	fcall	_UART_send_float
  2783  0757  1683               	bsf	3,5	;RP0=1, select bank3
  2784  0758  1703               	bsf	3,6	;RP1=1, select bank3
  2785  0759  0843               	movf	(main@x+3)^(0+384),w
  2786  075A  1683               	bsf	3,5	;RP0=1, select bank1
  2787  075B  1303               	bcf	3,6	;RP1=0, select bank1
  2788  075C  00A8               	movwf	(UART_send_float@bt+3)^(0+128)
  2789  075D  1683               	bsf	3,5	;RP0=1, select bank3
  2790  075E  1703               	bsf	3,6	;RP1=1, select bank3
  2791  075F  0842               	movf	(main@x+2)^(0+384),w
  2792  0760  1683               	bsf	3,5	;RP0=1, select bank1
  2793  0761  1303               	bcf	3,6	;RP1=0, select bank1
  2794  0762  00A7               	movwf	(UART_send_float@bt+2)^(0+128)
  2795  0763  1683               	bsf	3,5	;RP0=1, select bank3
  2796  0764  1703               	bsf	3,6	;RP1=1, select bank3
  2797  0765  0841               	movf	(main@x+1)^(0+384),w
  2798  0766  1683               	bsf	3,5	;RP0=1, select bank1
  2799  0767  1303               	bcf	3,6	;RP1=0, select bank1
  2800  0768  00A6               	movwf	(UART_send_float@bt+1)^(0+128)
  2801  0769  1683               	bsf	3,5	;RP0=1, select bank3
  2802  076A  1703               	bsf	3,6	;RP1=1, select bank3
  2803  076B  0840               	movf	main@x^(0+384),w
  2804  076C  1683               	bsf	3,5	;RP0=1, select bank1
  2805  076D  1303               	bcf	3,6	;RP1=0, select bank1
  2806  076E  00A5               	movwf	UART_send_float@bt^(0+128)
  2807  076F  160A  158A  26D8  120A  118A  	fcall	_UART_send_float
  2808  0774  1683               	bsf	3,5	;RP0=1, select bank3
  2809  0775  1703               	bsf	3,6	;RP1=1, select bank3
  2810  0776  01B6               	clrf	main@i_103^(0+384)
  2811  0777  01B7               	clrf	(main@i_103+1)^(0+384)
  2812  0778                     l3137:	
  2813  0778  0837               	movf	(main@i_103+1)^(0+384),w
  2814  0779  3A80               	xorlw	128
  2815  077A  00FF               	movwf	127
  2816  077B  3080               	movlw	128
  2817  077C  027F               	subwf	127,w
  2818  077D  1D03               	skipz
  2819  077E  2F81               	goto	u4355
  2820  077F  300A               	movlw	10
  2821  0780  0236               	subwf	main@i_103^(0+384),w
  2822  0781                     u4355:	
  2823  0781  1803               	btfsc	3,0
  2824  0782  2F92               	goto	l3147
  2825                           
  2826                           ;sun_usart.c: 156: UART_send_char(9);
  2827  0783  3009               	movlw	9
  2828  0784  120A  118A  2004  120A  118A  	fcall	_UART_send_char
  2829  0789  3001               	movlw	1
  2830  078A  1683               	bsf	3,5	;RP0=1, select bank3
  2831  078B  1703               	bsf	3,6	;RP1=1, select bank3
  2832  078C  07B6               	addwf	main@i_103^(0+384),f
  2833  078D  1803               	skipnc
  2834  078E  0AB7               	incf	(main@i_103+1)^(0+384),f
  2835  078F  3000               	movlw	0
  2836  0790  07B7               	addwf	(main@i_103+1)^(0+384),f
  2837  0791  2F78               	goto	l3137
  2838  0792                     l3147:	
  2839                           
  2840                           ;sun_usart.c: 157: UART_send_string(" ");
  2841  0792  3072               	movlw	(low (((STR_11+12)-__stringbase)| (0+32768)))& (0+255)
  2842  0793  160A  158A  22DF  120A  118A  	fcall	_UART_send_string
  2843                           
  2844                           ;sun_usart.c: 158: UART_send_string(" Y AXIS: ");
  2845  0798  3081               	movlw	(low ((STR_7-__stringbase)| (0+32768)))& (0+255)
  2846  0799  160A  158A  22DF  120A  118A  	fcall	_UART_send_string
  2847                           
  2848                           ;sun_usart.c: 159:     UART_send_float(B);UART_send_float(y); for(int i=0;i<10;i++)
  2849  079E  1683               	bsf	3,5	;RP0=1, select bank3
  2850  079F  1703               	bsf	3,6	;RP1=1, select bank3
  2851  07A0  0817               	movf	(main@B+3)^(0+384),w
  2852  07A1  1683               	bsf	3,5	;RP0=1, select bank1
  2853  07A2  1303               	bcf	3,6	;RP1=0, select bank1
  2854  07A3  00A8               	movwf	(UART_send_float@bt+3)^(0+128)
  2855  07A4  1683               	bsf	3,5	;RP0=1, select bank3
  2856  07A5  1703               	bsf	3,6	;RP1=1, select bank3
  2857  07A6  0816               	movf	(main@B+2)^(0+384),w
  2858  07A7  1683               	bsf	3,5	;RP0=1, select bank1
  2859  07A8  1303               	bcf	3,6	;RP1=0, select bank1
  2860  07A9  00A7               	movwf	(UART_send_float@bt+2)^(0+128)
  2861  07AA  1683               	bsf	3,5	;RP0=1, select bank3
  2862  07AB  1703               	bsf	3,6	;RP1=1, select bank3
  2863  07AC  0815               	movf	(main@B+1)^(0+384),w
  2864  07AD  1683               	bsf	3,5	;RP0=1, select bank1
  2865  07AE  1303               	bcf	3,6	;RP1=0, select bank1
  2866  07AF  00A6               	movwf	(UART_send_float@bt+1)^(0+128)
  2867  07B0  1683               	bsf	3,5	;RP0=1, select bank3
  2868  07B1  1703               	bsf	3,6	;RP1=1, select bank3
  2869  07B2  0814               	movf	main@B^(0+384),w
  2870  07B3  1683               	bsf	3,5	;RP0=1, select bank1
  2871  07B4  1303               	bcf	3,6	;RP1=0, select bank1
  2872  07B5  00A5               	movwf	UART_send_float@bt^(0+128)
  2873  07B6  160A  158A  26D8  120A  118A  	fcall	_UART_send_float
  2874  07BB  1683               	bsf	3,5	;RP0=1, select bank3
  2875  07BC  1703               	bsf	3,6	;RP1=1, select bank3
  2876  07BD  0847               	movf	(main@y+3)^(0+384),w
  2877  07BE  1683               	bsf	3,5	;RP0=1, select bank1
  2878  07BF  1303               	bcf	3,6	;RP1=0, select bank1
  2879  07C0  00A8               	movwf	(UART_send_float@bt+3)^(0+128)
  2880  07C1  1683               	bsf	3,5	;RP0=1, select bank3
  2881  07C2  1703               	bsf	3,6	;RP1=1, select bank3
  2882  07C3  0846               	movf	(main@y+2)^(0+384),w
  2883  07C4  1683               	bsf	3,5	;RP0=1, select bank1
  2884  07C5  1303               	bcf	3,6	;RP1=0, select bank1
  2885  07C6  00A7               	movwf	(UART_send_float@bt+2)^(0+128)
  2886  07C7  1683               	bsf	3,5	;RP0=1, select bank3
  2887  07C8  1703               	bsf	3,6	;RP1=1, select bank3
  2888  07C9  0845               	movf	(main@y+1)^(0+384),w
  2889  07CA  1683               	bsf	3,5	;RP0=1, select bank1
  2890  07CB  1303               	bcf	3,6	;RP1=0, select bank1
  2891  07CC  00A6               	movwf	(UART_send_float@bt+1)^(0+128)
  2892  07CD  1683               	bsf	3,5	;RP0=1, select bank3
  2893  07CE  1703               	bsf	3,6	;RP1=1, select bank3
  2894  07CF  0844               	movf	main@y^(0+384),w
  2895  07D0  1683               	bsf	3,5	;RP0=1, select bank1
  2896  07D1  1303               	bcf	3,6	;RP1=0, select bank1
  2897  07D2  00A5               	movwf	UART_send_float@bt^(0+128)
  2898  07D3  160A  158A  26D8  120A  118A  	fcall	_UART_send_float
  2899  07D8  1683               	bsf	3,5	;RP0=1, select bank3
  2900  07D9  1703               	bsf	3,6	;RP1=1, select bank3
  2901  07DA  01B8               	clrf	main@i_106^(0+384)
  2902  07DB  01B9               	clrf	(main@i_106+1)^(0+384)
  2903  07DC                     l3155:	
  2904  07DC  0839               	movf	(main@i_106+1)^(0+384),w
  2905  07DD  3A80               	xorlw	128
  2906  07DE  00FF               	movwf	127
  2907  07DF  3080               	movlw	128
  2908  07E0  027F               	subwf	127,w
  2909  07E1  1D03               	skipz
  2910  07E2  2FE5               	goto	u4365
  2911  07E3  300A               	movlw	10
  2912  07E4  0238               	subwf	main@i_106^(0+384),w
  2913  07E5                     u4365:	
  2914  07E5  160A  118A  1803   	btfsc	3,0
  2915  07E8  2857               	goto	l3165
  2916                           
  2917                           ;sun_usart.c: 160: UART_send_char(9);
  2918  07E9  3009               	movlw	9
  2919  07EA  120A  118A  2004  120A  118A  	fcall	_UART_send_char
  2920  07EF  3001               	movlw	1
  2921  07F0  1683               	bsf	3,5	;RP0=1, select bank3
  2922  07F1  1703               	bsf	3,6	;RP1=1, select bank3
  2923  07F2  07B8               	addwf	main@i_106^(0+384),f
  2924  07F3  1803               	skipnc
  2925  07F4  0AB9               	incf	(main@i_106+1)^(0+384),f
  2926  07F5  3000               	movlw	0
  2927  07F6  07B9               	addwf	(main@i_106+1)^(0+384),f
  2928  07F7  2FDC               	goto	l3155
  2929                           
  2930                           	psect	text1
  2931  1004                     __ptext1:	
  2932 ;; *************** function _acos *****************
  2933 ;; Defined at:
  2934 ;;		line 8 in file "C:\Program Files (x86)\Microchip\xc8\v2.05\pic\sources\c90\common\acos.c"
  2935 ;; Parameters:    Size  Location     Type
  2936 ;;  x               4   54[BANK1 ] void 
  2937 ;; Auto vars:     Size  Location     Type
  2938 ;;		None
  2939 ;; Return value:  Size  Location     Type
  2940 ;;                  4   54[BANK1 ] void 
  2941 ;; Registers used:
  2942 ;;		wreg, fsr0l, fsr0h, status,2, status,0, btemp+1, pclath, cstack
  2943 ;; Tracked objects:
  2944 ;;		On entry : 0/0
  2945 ;;		On exit  : 0/0
  2946 ;;		Unchanged: 0/0
  2947 ;; Data sizes:     COMMON   BANK0   BANK1   BANK3   BANK2
  2948 ;;      Params:         0       0       4       0       0
  2949 ;;      Locals:         0       0       4       0       0
  2950 ;;      Temps:          0       0       0       0       0
  2951 ;;      Totals:         0       0       8       0       0
  2952 ;;Total ram usage:        8 bytes
  2953 ;; Hardware stack levels used:    1
  2954 ;; Hardware stack levels required when called:    5
  2955 ;; This function calls:
  2956 ;;		___flsub
  2957 ;;		_asin
  2958 ;; This function is called by:
  2959 ;;		_main
  2960 ;; This function uses a non-reentrant model
  2961 ;;
  2962                           
  2963                           
  2964                           ;psect for function _acos
  2965  1004                     _acos:	
  2966                           
  2967                           ;incstack = 0
  2968                           ; Regs used in _acos: [wreg-fsr0h+status,2+status,0+btemp+1+pclath+cstack]
  2969  1004  1683               	bsf	3,5	;RP0=1, select bank1
  2970  1005  1303               	bcf	3,6	;RP1=0, select bank1
  2971  1006  0859               	movf	(acos@x+3)^(0+128),w
  2972  1007  00C1               	movwf	(asin@x+3)^(0+128)
  2973  1008  0858               	movf	(acos@x+2)^(0+128),w
  2974  1009  00C0               	movwf	(asin@x+2)^(0+128)
  2975  100A  0857               	movf	(acos@x+1)^(0+128),w
  2976  100B  00BF               	movwf	(asin@x+1)^(0+128)
  2977  100C  0856               	movf	acos@x^(0+128),w
  2978  100D  00BE               	movwf	asin@x^(0+128)
  2979  100E  120A  158A  21F9  160A  118A  	fcall	_asin
  2980  1013  1683               	bsf	3,5	;RP0=1, select bank1
  2981  1014  1303               	bcf	3,6	;RP1=0, select bank1
  2982  1015  0841               	movf	(?_asin+3)^(0+128),w
  2983  1016  00DD               	movwf	(_acos$832+3)^(0+128)
  2984  1017  0840               	movf	(?_asin+2)^(0+128),w
  2985  1018  00DC               	movwf	(_acos$832+2)^(0+128)
  2986  1019  083F               	movf	(?_asin+1)^(0+128),w
  2987  101A  00DB               	movwf	(_acos$832+1)^(0+128)
  2988  101B  083E               	movf	?_asin^(0+128),w
  2989  101C  00DA               	movwf	_acos$832^(0+128)
  2990  101D  085D               	movf	(_acos$832+3)^(0+128),w
  2991  101E  1283               	bcf	3,5	;RP0=0, select bank0
  2992  101F  1303               	bcf	3,6	;RP1=0, select bank0
  2993  1020  00EB               	movwf	___flsub@a+3
  2994  1021  1683               	bsf	3,5	;RP0=1, select bank1
  2995  1022  1303               	bcf	3,6	;RP1=0, select bank1
  2996  1023  085C               	movf	(_acos$832+2)^(0+128),w
  2997  1024  1283               	bcf	3,5	;RP0=0, select bank0
  2998  1025  1303               	bcf	3,6	;RP1=0, select bank0
  2999  1026  00EA               	movwf	___flsub@a+2
  3000  1027  1683               	bsf	3,5	;RP0=1, select bank1
  3001  1028  1303               	bcf	3,6	;RP1=0, select bank1
  3002  1029  085B               	movf	(_acos$832+1)^(0+128),w
  3003  102A  1283               	bcf	3,5	;RP0=0, select bank0
  3004  102B  1303               	bcf	3,6	;RP1=0, select bank0
  3005  102C  00E9               	movwf	___flsub@a+1
  3006  102D  1683               	bsf	3,5	;RP0=1, select bank1
  3007  102E  1303               	bcf	3,6	;RP1=0, select bank1
  3008  102F  085A               	movf	_acos$832^(0+128),w
  3009  1030  1283               	bcf	3,5	;RP0=0, select bank0
  3010  1031  1303               	bcf	3,6	;RP1=0, select bank0
  3011  1032  00E8               	movwf	___flsub@a
  3012  1033  303F               	movlw	63
  3013  1034  00EF               	movwf	___flsub@b+3
  3014  1035  30C9               	movlw	201
  3015  1036  00EE               	movwf	___flsub@b+2
  3016  1037  300F               	movlw	15
  3017  1038  00ED               	movwf	___flsub@b+1
  3018  1039  30DB               	movlw	219
  3019  103A  00EC               	movwf	___flsub@b
  3020  103B  160A  158A  22FB   	fcall	___flsub
  3021  103E  1283               	bcf	3,5	;RP0=0, select bank0
  3022  103F  1303               	bcf	3,6	;RP1=0, select bank0
  3023  1040  086B               	movf	?___flsub+3,w
  3024  1041  1683               	bsf	3,5	;RP0=1, select bank1
  3025  1042  1303               	bcf	3,6	;RP1=0, select bank1
  3026  1043  00D9               	movwf	(?_acos+3)^(0+128)
  3027  1044  1283               	bcf	3,5	;RP0=0, select bank0
  3028  1045  1303               	bcf	3,6	;RP1=0, select bank0
  3029  1046  086A               	movf	?___flsub+2,w
  3030  1047  1683               	bsf	3,5	;RP0=1, select bank1
  3031  1048  1303               	bcf	3,6	;RP1=0, select bank1
  3032  1049  00D8               	movwf	(?_acos+2)^(0+128)
  3033  104A  1283               	bcf	3,5	;RP0=0, select bank0
  3034  104B  1303               	bcf	3,6	;RP1=0, select bank0
  3035  104C  0869               	movf	?___flsub+1,w
  3036  104D  1683               	bsf	3,5	;RP0=1, select bank1
  3037  104E  1303               	bcf	3,6	;RP1=0, select bank1
  3038  104F  00D7               	movwf	(?_acos+1)^(0+128)
  3039  1050  1283               	bcf	3,5	;RP0=0, select bank0
  3040  1051  1303               	bcf	3,6	;RP1=0, select bank0
  3041  1052  0868               	movf	?___flsub,w
  3042  1053  1683               	bsf	3,5	;RP0=1, select bank1
  3043  1054  1303               	bcf	3,6	;RP1=0, select bank1
  3044  1055  00D6               	movwf	?_acos^(0+128)
  3045  1056  0008               	return
  3046  1057                     __end_of_acos:	
  3047                           
  3048                           	psect	text2
  3049  09F9                     __ptext2:	
  3050 ;; *************** function _asin *****************
  3051 ;; Defined at:
  3052 ;;		line 9 in file "C:\Program Files (x86)\Microchip\xc8\v2.05\pic\sources\c90\common\asin.c"
  3053 ;; Parameters:    Size  Location     Type
  3054 ;;  x               4   30[BANK1 ] void 
  3055 ;; Auto vars:     Size  Location     Type
  3056 ;;  y               4   46[BANK1 ] void 
  3057 ;;  sgn             4    0        void 
  3058 ;; Return value:  Size  Location     Type
  3059 ;;                  4   30[BANK1 ] void 
  3060 ;; Registers used:
  3061 ;;		wreg, fsr0l, fsr0h, status,2, status,0, btemp+1, pclath, cstack
  3062 ;; Tracked objects:
  3063 ;;		On entry : 0/0
  3064 ;;		On exit  : 0/0
  3065 ;;		Unchanged: 0/0
  3066 ;; Data sizes:     COMMON   BANK0   BANK1   BANK3   BANK2
  3067 ;;      Params:         0       0       4       0       0
  3068 ;;      Locals:         0       0      20       0       0
  3069 ;;      Temps:          0       0       0       0       0
  3070 ;;      Totals:         0       0      24       0       0
  3071 ;;Total ram usage:       24 bytes
  3072 ;; Hardware stack levels used:    1
  3073 ;; Hardware stack levels required when called:    4
  3074 ;; This function calls:
  3075 ;;		___fldiv
  3076 ;;		___flge
  3077 ;;		___flmul
  3078 ;;		___flneg
  3079 ;;		___flsub
  3080 ;;		_atan
  3081 ;;		_fabs
  3082 ;;		_sqrt
  3083 ;; This function is called by:
  3084 ;;		_acos
  3085 ;; This function uses a non-reentrant model
  3086 ;;
  3087                           
  3088                           
  3089                           ;psect for function _asin
  3090  09F9                     _asin:	
  3091                           
  3092                           ;incstack = 0
  3093                           ; Regs used in _asin: [wreg-fsr0h+status,2+status,0+btemp+1+pclath+cstack]
  3094  09F9  1683               	bsf	3,5	;RP0=1, select bank1
  3095  09FA  1303               	bcf	3,6	;RP1=0, select bank1
  3096  09FB  0841               	movf	(asin@x+3)^(0+128),w
  3097  09FC  1283               	bcf	3,5	;RP0=0, select bank0
  3098  09FD  1303               	bcf	3,6	;RP1=0, select bank0
  3099  09FE  00B7               	movwf	fabs@d+3
  3100  09FF  1683               	bsf	3,5	;RP0=1, select bank1
  3101  0A00  1303               	bcf	3,6	;RP1=0, select bank1
  3102  0A01  0840               	movf	(asin@x+2)^(0+128),w
  3103  0A02  1283               	bcf	3,5	;RP0=0, select bank0
  3104  0A03  1303               	bcf	3,6	;RP1=0, select bank0
  3105  0A04  00B6               	movwf	fabs@d+2
  3106  0A05  1683               	bsf	3,5	;RP0=1, select bank1
  3107  0A06  1303               	bcf	3,6	;RP1=0, select bank1
  3108  0A07  083F               	movf	(asin@x+1)^(0+128),w
  3109  0A08  1283               	bcf	3,5	;RP0=0, select bank0
  3110  0A09  1303               	bcf	3,6	;RP1=0, select bank0
  3111  0A0A  00B5               	movwf	fabs@d+1
  3112  0A0B  1683               	bsf	3,5	;RP0=1, select bank1
  3113  0A0C  1303               	bcf	3,6	;RP1=0, select bank1
  3114  0A0D  083E               	movf	asin@x^(0+128),w
  3115  0A0E  1283               	bcf	3,5	;RP0=0, select bank0
  3116  0A0F  1303               	bcf	3,6	;RP1=0, select bank0
  3117  0A10  00B4               	movwf	fabs@d
  3118  0A11  120A  118A  200C  120A  158A  	fcall	_fabs
  3119  0A16  1283               	bcf	3,5	;RP0=0, select bank0
  3120  0A17  1303               	bcf	3,6	;RP1=0, select bank0
  3121  0A18  0837               	movf	?_fabs+3,w
  3122  0A19  1683               	bsf	3,5	;RP0=1, select bank1
  3123  0A1A  1303               	bcf	3,6	;RP1=0, select bank1
  3124  0A1B  00C9               	movwf	(_asin$833+3)^(0+128)
  3125  0A1C  1283               	bcf	3,5	;RP0=0, select bank0
  3126  0A1D  1303               	bcf	3,6	;RP1=0, select bank0
  3127  0A1E  0836               	movf	?_fabs+2,w
  3128  0A1F  1683               	bsf	3,5	;RP0=1, select bank1
  3129  0A20  1303               	bcf	3,6	;RP1=0, select bank1
  3130  0A21  00C8               	movwf	(_asin$833+2)^(0+128)
  3131  0A22  1283               	bcf	3,5	;RP0=0, select bank0
  3132  0A23  1303               	bcf	3,6	;RP1=0, select bank0
  3133  0A24  0835               	movf	?_fabs+1,w
  3134  0A25  1683               	bsf	3,5	;RP0=1, select bank1
  3135  0A26  1303               	bcf	3,6	;RP1=0, select bank1
  3136  0A27  00C7               	movwf	(_asin$833+1)^(0+128)
  3137  0A28  1283               	bcf	3,5	;RP0=0, select bank0
  3138  0A29  1303               	bcf	3,6	;RP1=0, select bank0
  3139  0A2A  0834               	movf	?_fabs,w
  3140  0A2B  1683               	bsf	3,5	;RP0=1, select bank1
  3141  0A2C  1303               	bcf	3,6	;RP1=0, select bank1
  3142  0A2D  00C6               	movwf	_asin$833^(0+128)
  3143  0A2E  303F               	movlw	63
  3144  0A2F  00F3               	movwf	___flge@ff1+3
  3145  0A30  3080               	movlw	128
  3146  0A31  00F2               	movwf	___flge@ff1+2
  3147  0A32  3000               	movlw	0
  3148  0A33  00F1               	movwf	___flge@ff1+1
  3149  0A34  3000               	movlw	0
  3150  0A35  00F0               	movwf	___flge@ff1
  3151  0A36  0849               	movf	(_asin$833+3)^(0+128),w
  3152  0A37  00F7               	movwf	___flge@ff2+3
  3153  0A38  0848               	movf	(_asin$833+2)^(0+128),w
  3154  0A39  00F6               	movwf	___flge@ff2+2
  3155  0A3A  0847               	movf	(_asin$833+1)^(0+128),w
  3156  0A3B  00F5               	movwf	___flge@ff2+1
  3157  0A3C  0846               	movf	_asin$833^(0+128),w
  3158  0A3D  00F4               	movwf	___flge@ff2
  3159  0A3E  160A  158A  24BB  120A  158A  	fcall	___flge
  3160  0A43  1803               	btfsc	3,0
  3161  0A44  2A54               	goto	l3009
  3162  0A45  3021               	movlw	33
  3163  0A46  1683               	bsf	3,5	;RP0=1, select bank1
  3164  0A47  1303               	bcf	3,6	;RP1=0, select bank1
  3165  0A48  00E2               	movwf	_errno^(0+128)
  3166  0A49  3000               	movlw	0
  3167  0A4A  00E3               	movwf	(_errno^(0+128)+1)
  3168  0A4B  3000               	movlw	0
  3169  0A4C  00C1               	movwf	(?_asin+3)^(0+128)
  3170  0A4D  3000               	movlw	0
  3171  0A4E  00C0               	movwf	(?_asin+2)^(0+128)
  3172  0A4F  3000               	movlw	0
  3173  0A50  00BF               	movwf	(?_asin+1)^(0+128)
  3174  0A51  3000               	movlw	0
  3175  0A52  00BE               	movwf	?_asin^(0+128)
  3176  0A53  0008               	return
  3177  0A54                     l3009:	
  3178  0A54  1683               	bsf	3,5	;RP0=1, select bank1
  3179  0A55  1303               	bcf	3,6	;RP1=0, select bank1
  3180  0A56  0841               	movf	(asin@x+3)^(0+128),w
  3181  0A57  1283               	bcf	3,5	;RP0=0, select bank0
  3182  0A58  1303               	bcf	3,6	;RP1=0, select bank0
  3183  0A59  00D1               	movwf	___flmul@b+3
  3184  0A5A  1683               	bsf	3,5	;RP0=1, select bank1
  3185  0A5B  1303               	bcf	3,6	;RP1=0, select bank1
  3186  0A5C  0840               	movf	(asin@x+2)^(0+128),w
  3187  0A5D  1283               	bcf	3,5	;RP0=0, select bank0
  3188  0A5E  1303               	bcf	3,6	;RP1=0, select bank0
  3189  0A5F  00D0               	movwf	___flmul@b+2
  3190  0A60  1683               	bsf	3,5	;RP0=1, select bank1
  3191  0A61  1303               	bcf	3,6	;RP1=0, select bank1
  3192  0A62  083F               	movf	(asin@x+1)^(0+128),w
  3193  0A63  1283               	bcf	3,5	;RP0=0, select bank0
  3194  0A64  1303               	bcf	3,6	;RP1=0, select bank0
  3195  0A65  00CF               	movwf	___flmul@b+1
  3196  0A66  1683               	bsf	3,5	;RP0=1, select bank1
  3197  0A67  1303               	bcf	3,6	;RP1=0, select bank1
  3198  0A68  083E               	movf	asin@x^(0+128),w
  3199  0A69  1283               	bcf	3,5	;RP0=0, select bank0
  3200  0A6A  1303               	bcf	3,6	;RP1=0, select bank0
  3201  0A6B  00CE               	movwf	___flmul@b
  3202  0A6C  1683               	bsf	3,5	;RP0=1, select bank1
  3203  0A6D  1303               	bcf	3,6	;RP1=0, select bank1
  3204  0A6E  0841               	movf	(asin@x+3)^(0+128),w
  3205  0A6F  1283               	bcf	3,5	;RP0=0, select bank0
  3206  0A70  1303               	bcf	3,6	;RP1=0, select bank0
  3207  0A71  00D5               	movwf	___flmul@a+3
  3208  0A72  1683               	bsf	3,5	;RP0=1, select bank1
  3209  0A73  1303               	bcf	3,6	;RP1=0, select bank1
  3210  0A74  0840               	movf	(asin@x+2)^(0+128),w
  3211  0A75  1283               	bcf	3,5	;RP0=0, select bank0
  3212  0A76  1303               	bcf	3,6	;RP1=0, select bank0
  3213  0A77  00D4               	movwf	___flmul@a+2
  3214  0A78  1683               	bsf	3,5	;RP0=1, select bank1
  3215  0A79  1303               	bcf	3,6	;RP1=0, select bank1
  3216  0A7A  083F               	movf	(asin@x+1)^(0+128),w
  3217  0A7B  1283               	bcf	3,5	;RP0=0, select bank0
  3218  0A7C  1303               	bcf	3,6	;RP1=0, select bank0
  3219  0A7D  00D3               	movwf	___flmul@a+1
  3220  0A7E  1683               	bsf	3,5	;RP0=1, select bank1
  3221  0A7F  1303               	bcf	3,6	;RP1=0, select bank1
  3222  0A80  083E               	movf	asin@x^(0+128),w
  3223  0A81  1283               	bcf	3,5	;RP0=0, select bank0
  3224  0A82  1303               	bcf	3,6	;RP1=0, select bank0
  3225  0A83  00D2               	movwf	___flmul@a
  3226  0A84  120A  158A  24EB  120A  158A  	fcall	___flmul
  3227  0A89  1283               	bcf	3,5	;RP0=0, select bank0
  3228  0A8A  1303               	bcf	3,6	;RP1=0, select bank0
  3229  0A8B  0851               	movf	?___flmul+3,w
  3230  0A8C  00EB               	movwf	___flsub@a+3
  3231  0A8D  0850               	movf	?___flmul+2,w
  3232  0A8E  00EA               	movwf	___flsub@a+2
  3233  0A8F  084F               	movf	?___flmul+1,w
  3234  0A90  00E9               	movwf	___flsub@a+1
  3235  0A91  084E               	movf	?___flmul,w
  3236  0A92  00E8               	movwf	___flsub@a
  3237  0A93  303F               	movlw	63
  3238  0A94  00EF               	movwf	___flsub@b+3
  3239  0A95  3080               	movlw	128
  3240  0A96  00EE               	movwf	___flsub@b+2
  3241  0A97  3000               	movlw	0
  3242  0A98  00ED               	movwf	___flsub@b+1
  3243  0A99  3000               	movlw	0
  3244  0A9A  00EC               	movwf	___flsub@b
  3245  0A9B  160A  158A  22FB  120A  158A  	fcall	___flsub
  3246  0AA0  1283               	bcf	3,5	;RP0=0, select bank0
  3247  0AA1  1303               	bcf	3,6	;RP1=0, select bank0
  3248  0AA2  086B               	movf	?___flsub+3,w
  3249  0AA3  1683               	bsf	3,5	;RP0=1, select bank1
  3250  0AA4  1303               	bcf	3,6	;RP1=0, select bank1
  3251  0AA5  00A3               	movwf	(sqrt@a+3)^(0+128)
  3252  0AA6  1283               	bcf	3,5	;RP0=0, select bank0
  3253  0AA7  1303               	bcf	3,6	;RP1=0, select bank0
  3254  0AA8  086A               	movf	?___flsub+2,w
  3255  0AA9  1683               	bsf	3,5	;RP0=1, select bank1
  3256  0AAA  1303               	bcf	3,6	;RP1=0, select bank1
  3257  0AAB  00A2               	movwf	(sqrt@a+2)^(0+128)
  3258  0AAC  1283               	bcf	3,5	;RP0=0, select bank0
  3259  0AAD  1303               	bcf	3,6	;RP1=0, select bank0
  3260  0AAE  0869               	movf	?___flsub+1,w
  3261  0AAF  1683               	bsf	3,5	;RP0=1, select bank1
  3262  0AB0  1303               	bcf	3,6	;RP1=0, select bank1
  3263  0AB1  00A1               	movwf	(sqrt@a+1)^(0+128)
  3264  0AB2  1283               	bcf	3,5	;RP0=0, select bank0
  3265  0AB3  1303               	bcf	3,6	;RP1=0, select bank0
  3266  0AB4  0868               	movf	?___flsub,w
  3267  0AB5  1683               	bsf	3,5	;RP0=1, select bank1
  3268  0AB6  1303               	bcf	3,6	;RP1=0, select bank1
  3269  0AB7  00A0               	movwf	sqrt@a^(0+128)
  3270  0AB8  120A  158A  203B  120A  158A  	fcall	_sqrt
  3271  0ABD  1683               	bsf	3,5	;RP0=1, select bank1
  3272  0ABE  1303               	bcf	3,6	;RP1=0, select bank1
  3273  0ABF  0823               	movf	(?_sqrt+3)^(0+128),w
  3274  0AC0  00D1               	movwf	(asin@y+3)^(0+128)
  3275  0AC1  0822               	movf	(?_sqrt+2)^(0+128),w
  3276  0AC2  00D0               	movwf	(asin@y+2)^(0+128)
  3277  0AC3  0821               	movf	(?_sqrt+1)^(0+128),w
  3278  0AC4  00CF               	movwf	(asin@y+1)^(0+128)
  3279  0AC5  0820               	movf	?_sqrt^(0+128),w
  3280  0AC6  00CE               	movwf	asin@y^(0+128)
  3281  0AC7  0841               	movf	(asin@x+3)^(0+128),w
  3282  0AC8  1283               	bcf	3,5	;RP0=0, select bank0
  3283  0AC9  1303               	bcf	3,6	;RP1=0, select bank0
  3284  0ACA  00B7               	movwf	fabs@d+3
  3285  0ACB  1683               	bsf	3,5	;RP0=1, select bank1
  3286  0ACC  1303               	bcf	3,6	;RP1=0, select bank1
  3287  0ACD  0840               	movf	(asin@x+2)^(0+128),w
  3288  0ACE  1283               	bcf	3,5	;RP0=0, select bank0
  3289  0ACF  1303               	bcf	3,6	;RP1=0, select bank0
  3290  0AD0  00B6               	movwf	fabs@d+2
  3291  0AD1  1683               	bsf	3,5	;RP0=1, select bank1
  3292  0AD2  1303               	bcf	3,6	;RP1=0, select bank1
  3293  0AD3  083F               	movf	(asin@x+1)^(0+128),w
  3294  0AD4  1283               	bcf	3,5	;RP0=0, select bank0
  3295  0AD5  1303               	bcf	3,6	;RP1=0, select bank0
  3296  0AD6  00B5               	movwf	fabs@d+1
  3297  0AD7  1683               	bsf	3,5	;RP0=1, select bank1
  3298  0AD8  1303               	bcf	3,6	;RP1=0, select bank1
  3299  0AD9  083E               	movf	asin@x^(0+128),w
  3300  0ADA  1283               	bcf	3,5	;RP0=0, select bank0
  3301  0ADB  1303               	bcf	3,6	;RP1=0, select bank0
  3302  0ADC  00B4               	movwf	fabs@d
  3303  0ADD  120A  118A  200C  120A  158A  	fcall	_fabs
  3304  0AE2  1283               	bcf	3,5	;RP0=0, select bank0
  3305  0AE3  1303               	bcf	3,6	;RP1=0, select bank0
  3306  0AE4  0837               	movf	?_fabs+3,w
  3307  0AE5  1683               	bsf	3,5	;RP0=1, select bank1
  3308  0AE6  1303               	bcf	3,6	;RP1=0, select bank1
  3309  0AE7  00C9               	movwf	(_asin$833+3)^(0+128)
  3310  0AE8  1283               	bcf	3,5	;RP0=0, select bank0
  3311  0AE9  1303               	bcf	3,6	;RP1=0, select bank0
  3312  0AEA  0836               	movf	?_fabs+2,w
  3313  0AEB  1683               	bsf	3,5	;RP0=1, select bank1
  3314  0AEC  1303               	bcf	3,6	;RP1=0, select bank1
  3315  0AED  00C8               	movwf	(_asin$833+2)^(0+128)
  3316  0AEE  1283               	bcf	3,5	;RP0=0, select bank0
  3317  0AEF  1303               	bcf	3,6	;RP1=0, select bank0
  3318  0AF0  0835               	movf	?_fabs+1,w
  3319  0AF1  1683               	bsf	3,5	;RP0=1, select bank1
  3320  0AF2  1303               	bcf	3,6	;RP1=0, select bank1
  3321  0AF3  00C7               	movwf	(_asin$833+1)^(0+128)
  3322  0AF4  1283               	bcf	3,5	;RP0=0, select bank0
  3323  0AF5  1303               	bcf	3,6	;RP1=0, select bank0
  3324  0AF6  0834               	movf	?_fabs,w
  3325  0AF7  1683               	bsf	3,5	;RP0=1, select bank1
  3326  0AF8  1303               	bcf	3,6	;RP1=0, select bank1
  3327  0AF9  00C6               	movwf	_asin$833^(0+128)
  3328  0AFA  0849               	movf	(_asin$833+3)^(0+128),w
  3329  0AFB  00F3               	movwf	___flge@ff1+3
  3330  0AFC  0848               	movf	(_asin$833+2)^(0+128),w
  3331  0AFD  00F2               	movwf	___flge@ff1+2
  3332  0AFE  0847               	movf	(_asin$833+1)^(0+128),w
  3333  0AFF  00F1               	movwf	___flge@ff1+1
  3334  0B00  0846               	movf	_asin$833^(0+128),w
  3335  0B01  00F0               	movwf	___flge@ff1
  3336  0B02  303F               	movlw	63
  3337  0B03  00F7               	movwf	___flge@ff2+3
  3338  0B04  3035               	movlw	53
  3339  0B05  00F6               	movwf	___flge@ff2+2
  3340  0B06  30C2               	movlw	194
  3341  0B07  00F5               	movwf	___flge@ff2+1
  3342  0B08  308F               	movlw	143
  3343  0B09  00F4               	movwf	___flge@ff2
  3344  0B0A  160A  158A  24BB  120A  158A  	fcall	___flge
  3345  0B0F  1803               	btfsc	3,0
  3346  0B10  2B74               	goto	l3021
  3347  0B11  1683               	bsf	3,5	;RP0=1, select bank1
  3348  0B12  1303               	bcf	3,6	;RP1=0, select bank1
  3349  0B13  0851               	movf	(asin@y+3)^(0+128),w
  3350  0B14  1283               	bcf	3,5	;RP0=0, select bank0
  3351  0B15  1303               	bcf	3,6	;RP1=0, select bank0
  3352  0B16  00B7               	movwf	___fldiv@a+3
  3353  0B17  1683               	bsf	3,5	;RP0=1, select bank1
  3354  0B18  1303               	bcf	3,6	;RP1=0, select bank1
  3355  0B19  0850               	movf	(asin@y+2)^(0+128),w
  3356  0B1A  1283               	bcf	3,5	;RP0=0, select bank0
  3357  0B1B  1303               	bcf	3,6	;RP1=0, select bank0
  3358  0B1C  00B6               	movwf	___fldiv@a+2
  3359  0B1D  1683               	bsf	3,5	;RP0=1, select bank1
  3360  0B1E  1303               	bcf	3,6	;RP1=0, select bank1
  3361  0B1F  084F               	movf	(asin@y+1)^(0+128),w
  3362  0B20  1283               	bcf	3,5	;RP0=0, select bank0
  3363  0B21  1303               	bcf	3,6	;RP1=0, select bank0
  3364  0B22  00B5               	movwf	___fldiv@a+1
  3365  0B23  1683               	bsf	3,5	;RP0=1, select bank1
  3366  0B24  1303               	bcf	3,6	;RP1=0, select bank1
  3367  0B25  084E               	movf	asin@y^(0+128),w
  3368  0B26  1283               	bcf	3,5	;RP0=0, select bank0
  3369  0B27  1303               	bcf	3,6	;RP1=0, select bank0
  3370  0B28  00B4               	movwf	___fldiv@a
  3371  0B29  1683               	bsf	3,5	;RP0=1, select bank1
  3372  0B2A  1303               	bcf	3,6	;RP1=0, select bank1
  3373  0B2B  0841               	movf	(asin@x+3)^(0+128),w
  3374  0B2C  1283               	bcf	3,5	;RP0=0, select bank0
  3375  0B2D  1303               	bcf	3,6	;RP1=0, select bank0
  3376  0B2E  00BB               	movwf	___fldiv@b+3
  3377  0B2F  1683               	bsf	3,5	;RP0=1, select bank1
  3378  0B30  1303               	bcf	3,6	;RP1=0, select bank1
  3379  0B31  0840               	movf	(asin@x+2)^(0+128),w
  3380  0B32  1283               	bcf	3,5	;RP0=0, select bank0
  3381  0B33  1303               	bcf	3,6	;RP1=0, select bank0
  3382  0B34  00BA               	movwf	___fldiv@b+2
  3383  0B35  1683               	bsf	3,5	;RP0=1, select bank1
  3384  0B36  1303               	bcf	3,6	;RP1=0, select bank1
  3385  0B37  083F               	movf	(asin@x+1)^(0+128),w
  3386  0B38  1283               	bcf	3,5	;RP0=0, select bank0
  3387  0B39  1303               	bcf	3,6	;RP1=0, select bank0
  3388  0B3A  00B9               	movwf	___fldiv@b+1
  3389  0B3B  1683               	bsf	3,5	;RP0=1, select bank1
  3390  0B3C  1303               	bcf	3,6	;RP1=0, select bank1
  3391  0B3D  083E               	movf	asin@x^(0+128),w
  3392  0B3E  1283               	bcf	3,5	;RP0=0, select bank0
  3393  0B3F  1303               	bcf	3,6	;RP1=0, select bank0
  3394  0B40  00B8               	movwf	___fldiv@b
  3395  0B41  160A  118A  219B  120A  158A  	fcall	___fldiv
  3396  0B46  1283               	bcf	3,5	;RP0=0, select bank0
  3397  0B47  1303               	bcf	3,6	;RP1=0, select bank0
  3398  0B48  0837               	movf	?___fldiv+3,w
  3399  0B49  1683               	bsf	3,5	;RP0=1, select bank1
  3400  0B4A  1303               	bcf	3,6	;RP1=0, select bank1
  3401  0B4B  00D5               	movwf	(_asin$834+3)^(0+128)
  3402  0B4C  1283               	bcf	3,5	;RP0=0, select bank0
  3403  0B4D  1303               	bcf	3,6	;RP1=0, select bank0
  3404  0B4E  0836               	movf	?___fldiv+2,w
  3405  0B4F  1683               	bsf	3,5	;RP0=1, select bank1
  3406  0B50  1303               	bcf	3,6	;RP1=0, select bank1
  3407  0B51  00D4               	movwf	(_asin$834+2)^(0+128)
  3408  0B52  1283               	bcf	3,5	;RP0=0, select bank0
  3409  0B53  1303               	bcf	3,6	;RP1=0, select bank0
  3410  0B54  0835               	movf	?___fldiv+1,w
  3411  0B55  1683               	bsf	3,5	;RP0=1, select bank1
  3412  0B56  1303               	bcf	3,6	;RP1=0, select bank1
  3413  0B57  00D3               	movwf	(_asin$834+1)^(0+128)
  3414  0B58  1283               	bcf	3,5	;RP0=0, select bank0
  3415  0B59  1303               	bcf	3,6	;RP1=0, select bank0
  3416  0B5A  0834               	movf	?___fldiv,w
  3417  0B5B  1683               	bsf	3,5	;RP0=1, select bank1
  3418  0B5C  1303               	bcf	3,6	;RP1=0, select bank1
  3419  0B5D  00D2               	movwf	_asin$834^(0+128)
  3420  0B5E  0855               	movf	(_asin$834+3)^(0+128),w
  3421  0B5F  00AC               	movwf	(atan@f+3)^(0+128)
  3422  0B60  0854               	movf	(_asin$834+2)^(0+128),w
  3423  0B61  00AB               	movwf	(atan@f+2)^(0+128)
  3424  0B62  0853               	movf	(_asin$834+1)^(0+128),w
  3425  0B63  00AA               	movwf	(atan@f+1)^(0+128)
  3426  0B64  0852               	movf	_asin$834^(0+128),w
  3427  0B65  00A9               	movwf	atan@f^(0+128)
  3428  0B66  160A  118A  2575   	fcall	_atan
  3429  0B69  1683               	bsf	3,5	;RP0=1, select bank1
  3430  0B6A  1303               	bcf	3,6	;RP1=0, select bank1
  3431  0B6B  082C               	movf	(?_atan+3)^(0+128),w
  3432  0B6C  00C1               	movwf	(?_asin+3)^(0+128)
  3433  0B6D  082B               	movf	(?_atan+2)^(0+128),w
  3434  0B6E  00C0               	movwf	(?_asin+2)^(0+128)
  3435  0B6F  082A               	movf	(?_atan+1)^(0+128),w
  3436  0B70  00BF               	movwf	(?_asin+1)^(0+128)
  3437  0B71  0829               	movf	?_atan^(0+128),w
  3438  0B72  00BE               	movwf	?_asin^(0+128)
  3439  0B73  0008               	return
  3440  0B74                     l3021:	
  3441  0B74  1683               	bsf	3,5	;RP0=1, select bank1
  3442  0B75  1303               	bcf	3,6	;RP1=0, select bank1
  3443  0B76  0841               	movf	(asin@x+3)^(0+128),w
  3444  0B77  00F3               	movwf	___flge@ff1+3
  3445  0B78  0840               	movf	(asin@x+2)^(0+128),w
  3446  0B79  00F2               	movwf	___flge@ff1+2
  3447  0B7A  083F               	movf	(asin@x+1)^(0+128),w
  3448  0B7B  00F1               	movwf	___flge@ff1+1
  3449  0B7C  083E               	movf	asin@x^(0+128),w
  3450  0B7D  00F0               	movwf	___flge@ff1
  3451  0B7E  3000               	movlw	0
  3452  0B7F  00F7               	movwf	___flge@ff2+3
  3453  0B80  3000               	movlw	0
  3454  0B81  00F6               	movwf	___flge@ff2+2
  3455  0B82  3000               	movlw	0
  3456  0B83  00F5               	movwf	___flge@ff2+1
  3457  0B84  3000               	movlw	0
  3458  0B85  00F4               	movwf	___flge@ff2
  3459  0B86  160A  158A  24BB  120A  158A  	fcall	___flge
  3460  0B8B  1803               	btfsc	3,0
  3461  0B8C  2C4D               	goto	l3031
  3462  0B8D  1683               	bsf	3,5	;RP0=1, select bank1
  3463  0B8E  1303               	bcf	3,6	;RP1=0, select bank1
  3464  0B8F  0851               	movf	(asin@y+3)^(0+128),w
  3465  0B90  1283               	bcf	3,5	;RP0=0, select bank0
  3466  0B91  1303               	bcf	3,6	;RP1=0, select bank0
  3467  0B92  00B3               	movwf	___flneg@f1+3
  3468  0B93  1683               	bsf	3,5	;RP0=1, select bank1
  3469  0B94  1303               	bcf	3,6	;RP1=0, select bank1
  3470  0B95  0850               	movf	(asin@y+2)^(0+128),w
  3471  0B96  1283               	bcf	3,5	;RP0=0, select bank0
  3472  0B97  1303               	bcf	3,6	;RP1=0, select bank0
  3473  0B98  00B2               	movwf	___flneg@f1+2
  3474  0B99  1683               	bsf	3,5	;RP0=1, select bank1
  3475  0B9A  1303               	bcf	3,6	;RP1=0, select bank1
  3476  0B9B  084F               	movf	(asin@y+1)^(0+128),w
  3477  0B9C  1283               	bcf	3,5	;RP0=0, select bank0
  3478  0B9D  1303               	bcf	3,6	;RP1=0, select bank0
  3479  0B9E  00B1               	movwf	___flneg@f1+1
  3480  0B9F  1683               	bsf	3,5	;RP0=1, select bank1
  3481  0BA0  1303               	bcf	3,6	;RP1=0, select bank1
  3482  0BA1  084E               	movf	asin@y^(0+128),w
  3483  0BA2  1283               	bcf	3,5	;RP0=0, select bank0
  3484  0BA3  1303               	bcf	3,6	;RP1=0, select bank0
  3485  0BA4  00B0               	movwf	___flneg@f1
  3486  0BA5  160A  158A  22BC  120A  158A  	fcall	___flneg
  3487  0BAA  1283               	bcf	3,5	;RP0=0, select bank0
  3488  0BAB  1303               	bcf	3,6	;RP1=0, select bank0
  3489  0BAC  0833               	movf	?___flneg+3,w
  3490  0BAD  00BB               	movwf	___fldiv@b+3
  3491  0BAE  0832               	movf	?___flneg+2,w
  3492  0BAF  00BA               	movwf	___fldiv@b+2
  3493  0BB0  0831               	movf	?___flneg+1,w
  3494  0BB1  00B9               	movwf	___fldiv@b+1
  3495  0BB2  0830               	movf	?___flneg,w
  3496  0BB3  00B8               	movwf	___fldiv@b
  3497  0BB4  1683               	bsf	3,5	;RP0=1, select bank1
  3498  0BB5  1303               	bcf	3,6	;RP1=0, select bank1
  3499  0BB6  0841               	movf	(asin@x+3)^(0+128),w
  3500  0BB7  1283               	bcf	3,5	;RP0=0, select bank0
  3501  0BB8  1303               	bcf	3,6	;RP1=0, select bank0
  3502  0BB9  00B7               	movwf	___fldiv@a+3
  3503  0BBA  1683               	bsf	3,5	;RP0=1, select bank1
  3504  0BBB  1303               	bcf	3,6	;RP1=0, select bank1
  3505  0BBC  0840               	movf	(asin@x+2)^(0+128),w
  3506  0BBD  1283               	bcf	3,5	;RP0=0, select bank0
  3507  0BBE  1303               	bcf	3,6	;RP1=0, select bank0
  3508  0BBF  00B6               	movwf	___fldiv@a+2
  3509  0BC0  1683               	bsf	3,5	;RP0=1, select bank1
  3510  0BC1  1303               	bcf	3,6	;RP1=0, select bank1
  3511  0BC2  083F               	movf	(asin@x+1)^(0+128),w
  3512  0BC3  1283               	bcf	3,5	;RP0=0, select bank0
  3513  0BC4  1303               	bcf	3,6	;RP1=0, select bank0
  3514  0BC5  00B5               	movwf	___fldiv@a+1
  3515  0BC6  1683               	bsf	3,5	;RP0=1, select bank1
  3516  0BC7  1303               	bcf	3,6	;RP1=0, select bank1
  3517  0BC8  083E               	movf	asin@x^(0+128),w
  3518  0BC9  1283               	bcf	3,5	;RP0=0, select bank0
  3519  0BCA  1303               	bcf	3,6	;RP1=0, select bank0
  3520  0BCB  00B4               	movwf	___fldiv@a
  3521  0BCC  160A  118A  219B  120A  158A  	fcall	___fldiv
  3522  0BD1  1283               	bcf	3,5	;RP0=0, select bank0
  3523  0BD2  1303               	bcf	3,6	;RP1=0, select bank0
  3524  0BD3  0837               	movf	?___fldiv+3,w
  3525  0BD4  1683               	bsf	3,5	;RP0=1, select bank1
  3526  0BD5  1303               	bcf	3,6	;RP1=0, select bank1
  3527  0BD6  00D5               	movwf	(_asin$834+3)^(0+128)
  3528  0BD7  1283               	bcf	3,5	;RP0=0, select bank0
  3529  0BD8  1303               	bcf	3,6	;RP1=0, select bank0
  3530  0BD9  0836               	movf	?___fldiv+2,w
  3531  0BDA  1683               	bsf	3,5	;RP0=1, select bank1
  3532  0BDB  1303               	bcf	3,6	;RP1=0, select bank1
  3533  0BDC  00D4               	movwf	(_asin$834+2)^(0+128)
  3534  0BDD  1283               	bcf	3,5	;RP0=0, select bank0
  3535  0BDE  1303               	bcf	3,6	;RP1=0, select bank0
  3536  0BDF  0835               	movf	?___fldiv+1,w
  3537  0BE0  1683               	bsf	3,5	;RP0=1, select bank1
  3538  0BE1  1303               	bcf	3,6	;RP1=0, select bank1
  3539  0BE2  00D3               	movwf	(_asin$834+1)^(0+128)
  3540  0BE3  1283               	bcf	3,5	;RP0=0, select bank0
  3541  0BE4  1303               	bcf	3,6	;RP1=0, select bank0
  3542  0BE5  0834               	movf	?___fldiv,w
  3543  0BE6  1683               	bsf	3,5	;RP0=1, select bank1
  3544  0BE7  1303               	bcf	3,6	;RP1=0, select bank1
  3545  0BE8  00D2               	movwf	_asin$834^(0+128)
  3546  0BE9  0855               	movf	(_asin$834+3)^(0+128),w
  3547  0BEA  00AC               	movwf	(atan@f+3)^(0+128)
  3548  0BEB  0854               	movf	(_asin$834+2)^(0+128),w
  3549  0BEC  00AB               	movwf	(atan@f+2)^(0+128)
  3550  0BED  0853               	movf	(_asin$834+1)^(0+128),w
  3551  0BEE  00AA               	movwf	(atan@f+1)^(0+128)
  3552  0BEF  0852               	movf	_asin$834^(0+128),w
  3553  0BF0  00A9               	movwf	atan@f^(0+128)
  3554  0BF1  160A  118A  2575  120A  158A  	fcall	_atan
  3555  0BF6  1683               	bsf	3,5	;RP0=1, select bank1
  3556  0BF7  1303               	bcf	3,6	;RP1=0, select bank1
  3557  0BF8  082C               	movf	(?_atan+3)^(0+128),w
  3558  0BF9  00CD               	movwf	(_asin$835+3)^(0+128)
  3559  0BFA  082B               	movf	(?_atan+2)^(0+128),w
  3560  0BFB  00CC               	movwf	(_asin$835+2)^(0+128)
  3561  0BFC  082A               	movf	(?_atan+1)^(0+128),w
  3562  0BFD  00CB               	movwf	(_asin$835+1)^(0+128)
  3563  0BFE  0829               	movf	?_atan^(0+128),w
  3564  0BFF  00CA               	movwf	_asin$835^(0+128)
  3565  0C00  303F               	movlw	63
  3566  0C01  1283               	bcf	3,5	;RP0=0, select bank0
  3567  0C02  1303               	bcf	3,6	;RP1=0, select bank0
  3568  0C03  00EF               	movwf	___flsub@b+3
  3569  0C04  30C9               	movlw	201
  3570  0C05  00EE               	movwf	___flsub@b+2
  3571  0C06  300F               	movlw	15
  3572  0C07  00ED               	movwf	___flsub@b+1
  3573  0C08  30DB               	movlw	219
  3574  0C09  00EC               	movwf	___flsub@b
  3575  0C0A  1683               	bsf	3,5	;RP0=1, select bank1
  3576  0C0B  1303               	bcf	3,6	;RP1=0, select bank1
  3577  0C0C  084D               	movf	(_asin$835+3)^(0+128),w
  3578  0C0D  1283               	bcf	3,5	;RP0=0, select bank0
  3579  0C0E  1303               	bcf	3,6	;RP1=0, select bank0
  3580  0C0F  00EB               	movwf	___flsub@a+3
  3581  0C10  1683               	bsf	3,5	;RP0=1, select bank1
  3582  0C11  1303               	bcf	3,6	;RP1=0, select bank1
  3583  0C12  084C               	movf	(_asin$835+2)^(0+128),w
  3584  0C13  1283               	bcf	3,5	;RP0=0, select bank0
  3585  0C14  1303               	bcf	3,6	;RP1=0, select bank0
  3586  0C15  00EA               	movwf	___flsub@a+2
  3587  0C16  1683               	bsf	3,5	;RP0=1, select bank1
  3588  0C17  1303               	bcf	3,6	;RP1=0, select bank1
  3589  0C18  084B               	movf	(_asin$835+1)^(0+128),w
  3590  0C19  1283               	bcf	3,5	;RP0=0, select bank0
  3591  0C1A  1303               	bcf	3,6	;RP1=0, select bank0
  3592  0C1B  00E9               	movwf	___flsub@a+1
  3593  0C1C  1683               	bsf	3,5	;RP0=1, select bank1
  3594  0C1D  1303               	bcf	3,6	;RP1=0, select bank1
  3595  0C1E  084A               	movf	_asin$835^(0+128),w
  3596  0C1F  1283               	bcf	3,5	;RP0=0, select bank0
  3597  0C20  1303               	bcf	3,6	;RP1=0, select bank0
  3598  0C21  00E8               	movwf	___flsub@a
  3599  0C22  160A  158A  22FB  120A  158A  	fcall	___flsub
  3600  0C27  1283               	bcf	3,5	;RP0=0, select bank0
  3601  0C28  1303               	bcf	3,6	;RP1=0, select bank0
  3602  0C29  086B               	movf	?___flsub+3,w
  3603  0C2A  00B3               	movwf	___flneg@f1+3
  3604  0C2B  086A               	movf	?___flsub+2,w
  3605  0C2C  00B2               	movwf	___flneg@f1+2
  3606  0C2D  0869               	movf	?___flsub+1,w
  3607  0C2E  00B1               	movwf	___flneg@f1+1
  3608  0C2F  0868               	movf	?___flsub,w
  3609  0C30  00B0               	movwf	___flneg@f1
  3610  0C31  160A  158A  22BC   	fcall	___flneg
  3611  0C34  1283               	bcf	3,5	;RP0=0, select bank0
  3612  0C35  1303               	bcf	3,6	;RP1=0, select bank0
  3613  0C36  0833               	movf	?___flneg+3,w
  3614  0C37  1683               	bsf	3,5	;RP0=1, select bank1
  3615  0C38  1303               	bcf	3,6	;RP1=0, select bank1
  3616  0C39  00C1               	movwf	(?_asin+3)^(0+128)
  3617  0C3A  1283               	bcf	3,5	;RP0=0, select bank0
  3618  0C3B  1303               	bcf	3,6	;RP1=0, select bank0
  3619  0C3C  0832               	movf	?___flneg+2,w
  3620  0C3D  1683               	bsf	3,5	;RP0=1, select bank1
  3621  0C3E  1303               	bcf	3,6	;RP1=0, select bank1
  3622  0C3F  00C0               	movwf	(?_asin+2)^(0+128)
  3623  0C40  1283               	bcf	3,5	;RP0=0, select bank0
  3624  0C41  1303               	bcf	3,6	;RP1=0, select bank0
  3625  0C42  0831               	movf	?___flneg+1,w
  3626  0C43  1683               	bsf	3,5	;RP0=1, select bank1
  3627  0C44  1303               	bcf	3,6	;RP1=0, select bank1
  3628  0C45  00BF               	movwf	(?_asin+1)^(0+128)
  3629  0C46  1283               	bcf	3,5	;RP0=0, select bank0
  3630  0C47  1303               	bcf	3,6	;RP1=0, select bank0
  3631  0C48  0830               	movf	?___flneg,w
  3632  0C49  1683               	bsf	3,5	;RP0=1, select bank1
  3633  0C4A  1303               	bcf	3,6	;RP1=0, select bank1
  3634  0C4B  00BE               	movwf	?_asin^(0+128)
  3635  0C4C  0008               	return
  3636  0C4D                     l3031:	
  3637  0C4D  1683               	bsf	3,5	;RP0=1, select bank1
  3638  0C4E  1303               	bcf	3,6	;RP1=0, select bank1
  3639  0C4F  0841               	movf	(asin@x+3)^(0+128),w
  3640  0C50  1283               	bcf	3,5	;RP0=0, select bank0
  3641  0C51  1303               	bcf	3,6	;RP1=0, select bank0
  3642  0C52  00B7               	movwf	___fldiv@a+3
  3643  0C53  1683               	bsf	3,5	;RP0=1, select bank1
  3644  0C54  1303               	bcf	3,6	;RP1=0, select bank1
  3645  0C55  0840               	movf	(asin@x+2)^(0+128),w
  3646  0C56  1283               	bcf	3,5	;RP0=0, select bank0
  3647  0C57  1303               	bcf	3,6	;RP1=0, select bank0
  3648  0C58  00B6               	movwf	___fldiv@a+2
  3649  0C59  1683               	bsf	3,5	;RP0=1, select bank1
  3650  0C5A  1303               	bcf	3,6	;RP1=0, select bank1
  3651  0C5B  083F               	movf	(asin@x+1)^(0+128),w
  3652  0C5C  1283               	bcf	3,5	;RP0=0, select bank0
  3653  0C5D  1303               	bcf	3,6	;RP1=0, select bank0
  3654  0C5E  00B5               	movwf	___fldiv@a+1
  3655  0C5F  1683               	bsf	3,5	;RP0=1, select bank1
  3656  0C60  1303               	bcf	3,6	;RP1=0, select bank1
  3657  0C61  083E               	movf	asin@x^(0+128),w
  3658  0C62  1283               	bcf	3,5	;RP0=0, select bank0
  3659  0C63  1303               	bcf	3,6	;RP1=0, select bank0
  3660  0C64  00B4               	movwf	___fldiv@a
  3661  0C65  1683               	bsf	3,5	;RP0=1, select bank1
  3662  0C66  1303               	bcf	3,6	;RP1=0, select bank1
  3663  0C67  0851               	movf	(asin@y+3)^(0+128),w
  3664  0C68  1283               	bcf	3,5	;RP0=0, select bank0
  3665  0C69  1303               	bcf	3,6	;RP1=0, select bank0
  3666  0C6A  00BB               	movwf	___fldiv@b+3
  3667  0C6B  1683               	bsf	3,5	;RP0=1, select bank1
  3668  0C6C  1303               	bcf	3,6	;RP1=0, select bank1
  3669  0C6D  0850               	movf	(asin@y+2)^(0+128),w
  3670  0C6E  1283               	bcf	3,5	;RP0=0, select bank0
  3671  0C6F  1303               	bcf	3,6	;RP1=0, select bank0
  3672  0C70  00BA               	movwf	___fldiv@b+2
  3673  0C71  1683               	bsf	3,5	;RP0=1, select bank1
  3674  0C72  1303               	bcf	3,6	;RP1=0, select bank1
  3675  0C73  084F               	movf	(asin@y+1)^(0+128),w
  3676  0C74  1283               	bcf	3,5	;RP0=0, select bank0
  3677  0C75  1303               	bcf	3,6	;RP1=0, select bank0
  3678  0C76  00B9               	movwf	___fldiv@b+1
  3679  0C77  1683               	bsf	3,5	;RP0=1, select bank1
  3680  0C78  1303               	bcf	3,6	;RP1=0, select bank1
  3681  0C79  084E               	movf	asin@y^(0+128),w
  3682  0C7A  1283               	bcf	3,5	;RP0=0, select bank0
  3683  0C7B  1303               	bcf	3,6	;RP1=0, select bank0
  3684  0C7C  00B8               	movwf	___fldiv@b
  3685  0C7D  160A  118A  219B  120A  158A  	fcall	___fldiv
  3686  0C82  1283               	bcf	3,5	;RP0=0, select bank0
  3687  0C83  1303               	bcf	3,6	;RP1=0, select bank0
  3688  0C84  0837               	movf	?___fldiv+3,w
  3689  0C85  1683               	bsf	3,5	;RP0=1, select bank1
  3690  0C86  1303               	bcf	3,6	;RP1=0, select bank1
  3691  0C87  00D5               	movwf	(_asin$834+3)^(0+128)
  3692  0C88  1283               	bcf	3,5	;RP0=0, select bank0
  3693  0C89  1303               	bcf	3,6	;RP1=0, select bank0
  3694  0C8A  0836               	movf	?___fldiv+2,w
  3695  0C8B  1683               	bsf	3,5	;RP0=1, select bank1
  3696  0C8C  1303               	bcf	3,6	;RP1=0, select bank1
  3697  0C8D  00D4               	movwf	(_asin$834+2)^(0+128)
  3698  0C8E  1283               	bcf	3,5	;RP0=0, select bank0
  3699  0C8F  1303               	bcf	3,6	;RP1=0, select bank0
  3700  0C90  0835               	movf	?___fldiv+1,w
  3701  0C91  1683               	bsf	3,5	;RP0=1, select bank1
  3702  0C92  1303               	bcf	3,6	;RP1=0, select bank1
  3703  0C93  00D3               	movwf	(_asin$834+1)^(0+128)
  3704  0C94  1283               	bcf	3,5	;RP0=0, select bank0
  3705  0C95  1303               	bcf	3,6	;RP1=0, select bank0
  3706  0C96  0834               	movf	?___fldiv,w
  3707  0C97  1683               	bsf	3,5	;RP0=1, select bank1
  3708  0C98  1303               	bcf	3,6	;RP1=0, select bank1
  3709  0C99  00D2               	movwf	_asin$834^(0+128)
  3710  0C9A  0855               	movf	(_asin$834+3)^(0+128),w
  3711  0C9B  00AC               	movwf	(atan@f+3)^(0+128)
  3712  0C9C  0854               	movf	(_asin$834+2)^(0+128),w
  3713  0C9D  00AB               	movwf	(atan@f+2)^(0+128)
  3714  0C9E  0853               	movf	(_asin$834+1)^(0+128),w
  3715  0C9F  00AA               	movwf	(atan@f+1)^(0+128)
  3716  0CA0  0852               	movf	_asin$834^(0+128),w
  3717  0CA1  00A9               	movwf	atan@f^(0+128)
  3718  0CA2  160A  118A  2575  120A  158A  	fcall	_atan
  3719  0CA7  1683               	bsf	3,5	;RP0=1, select bank1
  3720  0CA8  1303               	bcf	3,6	;RP1=0, select bank1
  3721  0CA9  082C               	movf	(?_atan+3)^(0+128),w
  3722  0CAA  00CD               	movwf	(_asin$835+3)^(0+128)
  3723  0CAB  082B               	movf	(?_atan+2)^(0+128),w
  3724  0CAC  00CC               	movwf	(_asin$835+2)^(0+128)
  3725  0CAD  082A               	movf	(?_atan+1)^(0+128),w
  3726  0CAE  00CB               	movwf	(_asin$835+1)^(0+128)
  3727  0CAF  0829               	movf	?_atan^(0+128),w
  3728  0CB0  00CA               	movwf	_asin$835^(0+128)
  3729  0CB1  084D               	movf	(_asin$835+3)^(0+128),w
  3730  0CB2  1283               	bcf	3,5	;RP0=0, select bank0
  3731  0CB3  1303               	bcf	3,6	;RP1=0, select bank0
  3732  0CB4  00EB               	movwf	___flsub@a+3
  3733  0CB5  1683               	bsf	3,5	;RP0=1, select bank1
  3734  0CB6  1303               	bcf	3,6	;RP1=0, select bank1
  3735  0CB7  084C               	movf	(_asin$835+2)^(0+128),w
  3736  0CB8  1283               	bcf	3,5	;RP0=0, select bank0
  3737  0CB9  1303               	bcf	3,6	;RP1=0, select bank0
  3738  0CBA  00EA               	movwf	___flsub@a+2
  3739  0CBB  1683               	bsf	3,5	;RP0=1, select bank1
  3740  0CBC  1303               	bcf	3,6	;RP1=0, select bank1
  3741  0CBD  084B               	movf	(_asin$835+1)^(0+128),w
  3742  0CBE  1283               	bcf	3,5	;RP0=0, select bank0
  3743  0CBF  1303               	bcf	3,6	;RP1=0, select bank0
  3744  0CC0  00E9               	movwf	___flsub@a+1
  3745  0CC1  1683               	bsf	3,5	;RP0=1, select bank1
  3746  0CC2  1303               	bcf	3,6	;RP1=0, select bank1
  3747  0CC3  084A               	movf	_asin$835^(0+128),w
  3748  0CC4  1283               	bcf	3,5	;RP0=0, select bank0
  3749  0CC5  1303               	bcf	3,6	;RP1=0, select bank0
  3750  0CC6  00E8               	movwf	___flsub@a
  3751  0CC7  303F               	movlw	63
  3752  0CC8  00EF               	movwf	___flsub@b+3
  3753  0CC9  30C9               	movlw	201
  3754  0CCA  00EE               	movwf	___flsub@b+2
  3755  0CCB  300F               	movlw	15
  3756  0CCC  00ED               	movwf	___flsub@b+1
  3757  0CCD  30DB               	movlw	219
  3758  0CCE  00EC               	movwf	___flsub@b
  3759  0CCF  160A  158A  22FB   	fcall	___flsub
  3760  0CD2  1283               	bcf	3,5	;RP0=0, select bank0
  3761  0CD3  1303               	bcf	3,6	;RP1=0, select bank0
  3762  0CD4  086B               	movf	?___flsub+3,w
  3763  0CD5  1683               	bsf	3,5	;RP0=1, select bank1
  3764  0CD6  1303               	bcf	3,6	;RP1=0, select bank1
  3765  0CD7  00C1               	movwf	(?_asin+3)^(0+128)
  3766  0CD8  1283               	bcf	3,5	;RP0=0, select bank0
  3767  0CD9  1303               	bcf	3,6	;RP1=0, select bank0
  3768  0CDA  086A               	movf	?___flsub+2,w
  3769  0CDB  1683               	bsf	3,5	;RP0=1, select bank1
  3770  0CDC  1303               	bcf	3,6	;RP1=0, select bank1
  3771  0CDD  00C0               	movwf	(?_asin+2)^(0+128)
  3772  0CDE  1283               	bcf	3,5	;RP0=0, select bank0
  3773  0CDF  1303               	bcf	3,6	;RP1=0, select bank0
  3774  0CE0  0869               	movf	?___flsub+1,w
  3775  0CE1  1683               	bsf	3,5	;RP0=1, select bank1
  3776  0CE2  1303               	bcf	3,6	;RP1=0, select bank1
  3777  0CE3  00BF               	movwf	(?_asin+1)^(0+128)
  3778  0CE4  1283               	bcf	3,5	;RP0=0, select bank0
  3779  0CE5  1303               	bcf	3,6	;RP1=0, select bank0
  3780  0CE6  0868               	movf	?___flsub,w
  3781  0CE7  1683               	bsf	3,5	;RP0=1, select bank1
  3782  0CE8  1303               	bcf	3,6	;RP1=0, select bank1
  3783  0CE9  00BE               	movwf	?_asin^(0+128)
  3784  0CEA  0008               	return
  3785  0CEB                     __end_of_asin:	
  3786                           
  3787                           	psect	text3
  3788  083B                     __ptext3:	
  3789 ;; *************** function _sqrt *****************
  3790 ;; Defined at:
  3791 ;;		line 9 in file "C:\Program Files (x86)\Microchip\xc8\v2.05\pic\sources\c90\common\sprcsqrt.c"
  3792 ;; Parameters:    Size  Location     Type
  3793 ;;  a               4    0[BANK1 ] void 
  3794 ;; Auto vars:     Size  Location     Type
  3795 ;;  frac            4   25[BANK1 ] unsigned long 
  3796 ;;  root            4   21[BANK1 ] struct .
  3797 ;;  grs             4   15[BANK1 ] unsigned long 
  3798 ;;  tfrac           4   10[BANK1 ] unsigned long 
  3799 ;;  exp             2   19[BANK1 ] int 
  3800 ;;  p               1   14[BANK1 ] unsigned char 
  3801 ;;  i               1    9[BANK1 ] unsigned char 
  3802 ;;  sign            1    8[BANK1 ] unsigned char 
  3803 ;; Return value:  Size  Location     Type
  3804 ;;                  4    0[BANK1 ] unsigned char 
  3805 ;; Registers used:
  3806 ;;		wreg, status,2, status,0, btemp+1
  3807 ;; Tracked objects:
  3808 ;;		On entry : 0/0
  3809 ;;		On exit  : 0/0
  3810 ;;		Unchanged: 0/0
  3811 ;; Data sizes:     COMMON   BANK0   BANK1   BANK3   BANK2
  3812 ;;      Params:         0       0       4       0       0
  3813 ;;      Locals:         0       0      21       0       0
  3814 ;;      Temps:          0       0       4       0       0
  3815 ;;      Totals:         0       0      29       0       0
  3816 ;;Total ram usage:       29 bytes
  3817 ;; Hardware stack levels used:    1
  3818 ;; This function calls:
  3819 ;;		Nothing
  3820 ;; This function is called by:
  3821 ;;		_main
  3822 ;;		_asin
  3823 ;; This function uses a non-reentrant model
  3824 ;;
  3825                           
  3826                           
  3827                           ;psect for function _sqrt
  3828  083B                     _sqrt:	
  3829                           
  3830                           ;incstack = 0
  3831                           ; Regs used in _sqrt: [wreg+status,2+status,0+btemp+1]
  3832  083B  1683               	bsf	3,5	;RP0=1, select bank1
  3833  083C  1303               	bcf	3,6	;RP1=0, select bank1
  3834  083D  0823               	movf	(sqrt@a^(0+128)+3),w
  3835  083E  3980               	andlw	128
  3836  083F  00A4               	movwf	??_sqrt^(0+128)
  3837  0840  0824               	movf	??_sqrt^(0+128),w
  3838  0841  00A8               	movwf	sqrt@sign^(0+128)
  3839  0842  0823               	movf	(sqrt@a^(0+128)+3),w
  3840  0843  00A4               	movwf	??_sqrt^(0+128)
  3841  0844  0724               	addwf	??_sqrt^(0+128),w
  3842  0845  00A5               	movwf	(??_sqrt+1)^(0+128)
  3843  0846  0825               	movf	(??_sqrt+1)^(0+128),w
  3844  0847  00AE               	movwf	sqrt@p^(0+128)
  3845  0848  1BA2               	btfsc	(sqrt@a^(0+128)+2),7
  3846  0849  142E               	bsf	sqrt@p^(0+128),0
  3847  084A  082E               	movf	sqrt@p^(0+128),w
  3848  084B  00A4               	movwf	??_sqrt^(0+128)
  3849  084C  01A5               	clrf	(??_sqrt^(0+128)+1)
  3850  084D  0824               	movf	??_sqrt^(0+128),w
  3851  084E  00B3               	movwf	sqrt@exp^(0+128)
  3852  084F  0825               	movf	(??_sqrt+1)^(0+128),w
  3853  0850  00B4               	movwf	(sqrt@exp+1)^(0+128)
  3854  0851  30FF               	movlw	255
  3855  0852  0520               	andwf	sqrt@a^(0+128),w
  3856  0853  00B9               	movwf	sqrt@frac^(0+128)
  3857  0854  30FF               	movlw	255
  3858  0855  0521               	andwf	(sqrt@a+1)^(0+128),w
  3859  0856  00BA               	movwf	(sqrt@frac+1)^(0+128)
  3860  0857  307F               	movlw	127
  3861  0858  0522               	andwf	(sqrt@a+2)^(0+128),w
  3862  0859  00BB               	movwf	(sqrt@frac+2)^(0+128)
  3863  085A  3000               	movlw	0
  3864  085B  0523               	andwf	(sqrt@a+3)^(0+128),w
  3865  085C  00BC               	movwf	(sqrt@frac+3)^(0+128)
  3866  085D  0833               	movf	sqrt@exp^(0+128),w
  3867  085E  0434               	iorwf	(sqrt@exp+1)^(0+128),w
  3868  085F  1903               	btfsc	3,2
  3869  0860  2866               	goto	l2465
  3870  0861  17BB               	bsf	(sqrt@frac^(0+128)+2),7
  3871  0862  0A33               	incf	sqrt@exp^(0+128),w
  3872  0863  0434               	iorwf	(sqrt@exp+1)^(0+128),w
  3873  0864  1D03               	btfss	3,2
  3874  0865  286E               	goto	l2469
  3875  0866                     l2465:	
  3876  0866  3000               	movlw	0
  3877  0867  00BC               	movwf	(sqrt@frac+3)^(0+128)
  3878  0868  3000               	movlw	0
  3879  0869  00BB               	movwf	(sqrt@frac+2)^(0+128)
  3880  086A  3000               	movlw	0
  3881  086B  00BA               	movwf	(sqrt@frac+1)^(0+128)
  3882  086C  3000               	movlw	0
  3883  086D  00B9               	movwf	sqrt@frac^(0+128)
  3884  086E                     l2469:	
  3885  086E  0833               	movf	sqrt@exp^(0+128),w
  3886  086F  0434               	iorwf	(sqrt@exp+1)^(0+128),w
  3887  0870  1D03               	btfss	3,2
  3888  0871  287B               	goto	l2475
  3889  0872  3000               	movlw	0
  3890  0873  00A3               	movwf	(?_sqrt+3)^(0+128)
  3891  0874  3000               	movlw	0
  3892  0875  00A2               	movwf	(?_sqrt+2)^(0+128)
  3893  0876  3000               	movlw	0
  3894  0877  00A1               	movwf	(?_sqrt+1)^(0+128)
  3895  0878  3000               	movlw	0
  3896  0879  00A0               	movwf	?_sqrt^(0+128)
  3897  087A  0008               	return
  3898  087B                     l2475:	
  3899  087B  0828               	movf	sqrt@sign^(0+128),w
  3900  087C  1903               	btfsc	3,2
  3901  087D  2897               	goto	l2481
  3902  087E  3000               	movlw	0
  3903  087F  00B8               	movwf	(sqrt@root+3)^(0+128)
  3904  0880  3040               	movlw	64
  3905  0881  00B7               	movwf	(sqrt@root+2)^(0+128)
  3906  0882  3000               	movlw	0
  3907  0883  00B6               	movwf	(sqrt@root+1)^(0+128)
  3908  0884  3000               	movlw	0
  3909  0885  00B5               	movwf	sqrt@root^(0+128)
  3910  0886  3080               	movlw	128
  3911  0887  04B7               	iorwf	(sqrt@root^(0+128)+2),f
  3912  0888  30FF               	movlw	255
  3913  0889  04B8               	iorwf	((sqrt@root+1)^(0+128)+2),f
  3914  088A  3021               	movlw	33
  3915  088B  00E2               	movwf	_errno^(0+128)
  3916  088C  3000               	movlw	0
  3917  088D  00E3               	movwf	(_errno^(0+128)+1)
  3918  088E  0838               	movf	(sqrt@root+3)^(0+128),w
  3919  088F  00A3               	movwf	(?_sqrt+3)^(0+128)
  3920  0890  0837               	movf	(sqrt@root+2)^(0+128),w
  3921  0891  00A2               	movwf	(?_sqrt+2)^(0+128)
  3922  0892  0836               	movf	(sqrt@root+1)^(0+128),w
  3923  0893  00A1               	movwf	(?_sqrt+1)^(0+128)
  3924  0894  0835               	movf	sqrt@root^(0+128),w
  3925  0895  00A0               	movwf	?_sqrt^(0+128)
  3926  0896  0008               	return
  3927  0897                     l2481:	
  3928  0897  0A33               	incf	sqrt@exp^(0+128),w
  3929  0898  0434               	iorwf	(sqrt@exp+1)^(0+128),w
  3930  0899  1D03               	btfss	3,2
  3931  089A  28AC               	goto	l2487
  3932  089B  307F               	movlw	127
  3933  089C  00B8               	movwf	(sqrt@root+3)^(0+128)
  3934  089D  3080               	movlw	128
  3935  089E  00B7               	movwf	(sqrt@root+2)^(0+128)
  3936  089F  3000               	movlw	0
  3937  08A0  00B6               	movwf	(sqrt@root+1)^(0+128)
  3938  08A1  3000               	movlw	0
  3939  08A2  00B5               	movwf	sqrt@root^(0+128)
  3940  08A3  0838               	movf	(sqrt@root+3)^(0+128),w
  3941  08A4  00A3               	movwf	(?_sqrt+3)^(0+128)
  3942  08A5  0837               	movf	(sqrt@root+2)^(0+128),w
  3943  08A6  00A2               	movwf	(?_sqrt+2)^(0+128)
  3944  08A7  0836               	movf	(sqrt@root+1)^(0+128),w
  3945  08A8  00A1               	movwf	(?_sqrt+1)^(0+128)
  3946  08A9  0835               	movf	sqrt@root^(0+128),w
  3947  08AA  00A0               	movwf	?_sqrt^(0+128)
  3948  08AB  0008               	return
  3949  08AC                     l2487:	
  3950  08AC  3081               	movlw	129
  3951  08AD  07B3               	addwf	sqrt@exp^(0+128),f
  3952  08AE  1803               	skipnc
  3953  08AF  0AB4               	incf	(sqrt@exp+1)^(0+128),f
  3954  08B0  30FF               	movlw	255
  3955  08B1  07B4               	addwf	(sqrt@exp+1)^(0+128),f
  3956  08B2  0833               	movf	sqrt@exp^(0+128),w
  3957  08B3  3901               	andlw	1
  3958  08B4  00A4               	movwf	??_sqrt^(0+128)
  3959  08B5  0824               	movf	??_sqrt^(0+128),w
  3960  08B6  00AE               	movwf	sqrt@p^(0+128)
  3961  08B7  3001               	movlw	1
  3962  08B8  00FF               	movwf	127
  3963  08B9                     u3515:	
  3964  08B9  0D34               	rlf	(sqrt@exp+1)^(0+128),w
  3965  08BA  0CB4               	rrf	(sqrt@exp+1)^(0+128),f
  3966  08BB  0CB3               	rrf	sqrt@exp^(0+128),f
  3967  08BC  0BFF               	decfsz	127,f
  3968  08BD  28B9               	goto	u3515
  3969  08BE  307F               	movlw	127
  3970  08BF  07B3               	addwf	sqrt@exp^(0+128),f
  3971  08C0  1803               	skipnc
  3972  08C1  0AB4               	incf	(sqrt@exp+1)^(0+128),f
  3973  08C2  3000               	movlw	0
  3974  08C3  07B4               	addwf	(sqrt@exp+1)^(0+128),f
  3975  08C4  1003               	clrc
  3976  08C5  0D39               	rlf	sqrt@frac^(0+128),w
  3977  08C6  00AA               	movwf	sqrt@tfrac^(0+128)
  3978  08C7  0D3A               	rlf	(sqrt@frac+1)^(0+128),w
  3979  08C8  00AB               	movwf	(sqrt@tfrac+1)^(0+128)
  3980  08C9  0D3B               	rlf	(sqrt@frac+2)^(0+128),w
  3981  08CA  00AC               	movwf	(sqrt@tfrac+2)^(0+128)
  3982  08CB  0D3C               	rlf	(sqrt@frac+3)^(0+128),w
  3983  08CC  00AD               	movwf	(sqrt@tfrac+3)^(0+128)
  3984  08CD  3000               	movlw	0
  3985  08CE  00BC               	movwf	(sqrt@frac+3)^(0+128)
  3986  08CF  3000               	movlw	0
  3987  08D0  00BB               	movwf	(sqrt@frac+2)^(0+128)
  3988  08D1  3000               	movlw	0
  3989  08D2  00BA               	movwf	(sqrt@frac+1)^(0+128)
  3990  08D3  3000               	movlw	0
  3991  08D4  00B9               	movwf	sqrt@frac^(0+128)
  3992  08D5  3001               	movlw	1
  3993  08D6  00B2               	movwf	(sqrt@grs+3)^(0+128)
  3994  08D7  3000               	movlw	0
  3995  08D8  00B1               	movwf	(sqrt@grs+2)^(0+128)
  3996  08D9  3000               	movlw	0
  3997  08DA  00B0               	movwf	(sqrt@grs+1)^(0+128)
  3998  08DB  3000               	movlw	0
  3999  08DC  00AF               	movwf	sqrt@grs^(0+128)
  4000  08DD  082E               	movf	sqrt@p^(0+128),w
  4001  08DE  1903               	btfsc	3,2
  4002  08DF  28E9               	goto	l2505
  4003  08E0  3001               	movlw	1
  4004  08E1  00A4               	movwf	??_sqrt^(0+128)
  4005  08E2                     u3535:	
  4006  08E2  1003               	clrc
  4007  08E3  0DAA               	rlf	sqrt@tfrac^(0+128),f
  4008  08E4  0DAB               	rlf	(sqrt@tfrac+1)^(0+128),f
  4009  08E5  0DAC               	rlf	(sqrt@tfrac+2)^(0+128),f
  4010  08E6  0DAD               	rlf	(sqrt@tfrac+3)^(0+128),f
  4011  08E7  0BA4               	decfsz	??_sqrt^(0+128),f
  4012  08E8  28E2               	goto	u3535
  4013  08E9                     l2505:	
  4014  08E9  01A9               	clrf	sqrt@i^(0+128)
  4015  08EA                     l2513:	
  4016  08EA  3019               	movlw	25
  4017  08EB  0229               	subwf	sqrt@i^(0+128),w
  4018  08EC  1803               	btfsc	3,0
  4019  08ED  2960               	goto	l2515
  4020  08EE  082F               	movf	sqrt@grs^(0+128),w
  4021  08EF  04B9               	iorwf	sqrt@frac^(0+128),f
  4022  08F0  0830               	movf	(sqrt@grs+1)^(0+128),w
  4023  08F1  04BA               	iorwf	(sqrt@frac+1)^(0+128),f
  4024  08F2  0831               	movf	(sqrt@grs+2)^(0+128),w
  4025  08F3  04BB               	iorwf	(sqrt@frac+2)^(0+128),f
  4026  08F4  0832               	movf	(sqrt@grs+3)^(0+128),w
  4027  08F5  04BC               	iorwf	(sqrt@frac+3)^(0+128),f
  4028  08F6  083C               	movf	(sqrt@frac+3)^(0+128),w
  4029  08F7  022D               	subwf	(sqrt@tfrac+3)^(0+128),w
  4030  08F8  1D03               	skipz
  4031  08F9  2904               	goto	u3545
  4032  08FA  083B               	movf	(sqrt@frac+2)^(0+128),w
  4033  08FB  022C               	subwf	(sqrt@tfrac+2)^(0+128),w
  4034  08FC  1D03               	skipz
  4035  08FD  2904               	goto	u3545
  4036  08FE  083A               	movf	(sqrt@frac+1)^(0+128),w
  4037  08FF  022B               	subwf	(sqrt@tfrac+1)^(0+128),w
  4038  0900  1D03               	skipz
  4039  0901  2904               	goto	u3545
  4040  0902  0839               	movf	sqrt@frac^(0+128),w
  4041  0903  022A               	subwf	sqrt@tfrac^(0+128),w
  4042  0904                     u3545:	
  4043  0904  1C03               	skipc
  4044  0905  2929               	goto	l2511
  4045  0906  0839               	movf	sqrt@frac^(0+128),w
  4046  0907  02AA               	subwf	sqrt@tfrac^(0+128),f
  4047  0908  083A               	movf	(sqrt@frac+1)^(0+128),w
  4048  0909  1C03               	skipc
  4049  090A  0F3A               	incfsz	(sqrt@frac+1)^(0+128),w
  4050  090B  02AB               	subwf	(sqrt@tfrac+1)^(0+128),f
  4051  090C  083B               	movf	(sqrt@frac+2)^(0+128),w
  4052  090D  1C03               	skipc
  4053  090E  0F3B               	incfsz	(sqrt@frac+2)^(0+128),w
  4054  090F  02AC               	subwf	(sqrt@tfrac+2)^(0+128),f
  4055  0910  083C               	movf	(sqrt@frac+3)^(0+128),w
  4056  0911  1C03               	skipc
  4057  0912  0F3C               	incfsz	(sqrt@frac+3)^(0+128),w
  4058  0913  02AD               	subwf	(sqrt@tfrac+3)^(0+128),f
  4059  0914  082F               	movf	sqrt@grs^(0+128),w
  4060  0915  07B9               	addwf	sqrt@frac^(0+128),f
  4061  0916  0830               	movf	(sqrt@grs+1)^(0+128),w
  4062  0917  1103               	clrz
  4063  0918  1803               	skipnc
  4064  0919  3E01               	addlw	1
  4065  091A  1D03               	btfss	3,2
  4066  091B  07BA               	addwf	(sqrt@frac+1)^(0+128),f
  4067  091C  0831               	movf	(sqrt@grs+2)^(0+128),w
  4068  091D  1103               	clrz
  4069  091E  1803               	skipnc
  4070  091F  3E01               	addlw	1
  4071  0920  1D03               	btfss	3,2
  4072  0921  07BB               	addwf	(sqrt@frac+2)^(0+128),f
  4073  0922  0832               	movf	(sqrt@grs+3)^(0+128),w
  4074  0923  1103               	clrz
  4075  0924  1803               	skipnc
  4076  0925  3E01               	addlw	1
  4077  0926  1D03               	btfss	3,2
  4078  0927  07BC               	addwf	(sqrt@frac+3)^(0+128),f
  4079  0928  2939               	goto	l603
  4080  0929                     l2511:	
  4081  0929  092F               	comf	sqrt@grs^(0+128),w
  4082  092A  00A4               	movwf	??_sqrt^(0+128)
  4083  092B  0930               	comf	(sqrt@grs+1)^(0+128),w
  4084  092C  00A5               	movwf	(??_sqrt^(0+128)+1)
  4085  092D  0931               	comf	(sqrt@grs+2)^(0+128),w
  4086  092E  00A6               	movwf	(??_sqrt^(0+128)+2)
  4087  092F  0932               	comf	(sqrt@grs+3)^(0+128),w
  4088  0930  00A7               	movwf	(??_sqrt^(0+128)+3)
  4089  0931  0824               	movf	??_sqrt^(0+128),w
  4090  0932  05B9               	andwf	sqrt@frac^(0+128),f
  4091  0933  0825               	movf	(??_sqrt+1)^(0+128),w
  4092  0934  05BA               	andwf	(sqrt@frac+1)^(0+128),f
  4093  0935  0826               	movf	(??_sqrt+2)^(0+128),w
  4094  0936  05BB               	andwf	(sqrt@frac+2)^(0+128),f
  4095  0937  0827               	movf	(??_sqrt+3)^(0+128),w
  4096  0938  05BC               	andwf	(sqrt@frac+3)^(0+128),f
  4097  0939                     l603:	
  4098  0939  082F               	movf	sqrt@grs^(0+128),w
  4099  093A  00A4               	movwf	??_sqrt^(0+128)
  4100  093B  0830               	movf	(sqrt@grs+1)^(0+128),w
  4101  093C  00A5               	movwf	(??_sqrt^(0+128)+1)
  4102  093D  0831               	movf	(sqrt@grs+2)^(0+128),w
  4103  093E  00A6               	movwf	(??_sqrt^(0+128)+2)
  4104  093F  0832               	movf	(sqrt@grs+3)^(0+128),w
  4105  0940  00A7               	movwf	(??_sqrt^(0+128)+3)
  4106  0941  3001               	movlw	1
  4107  0942                     u3565:	
  4108  0942  1003               	clrc
  4109  0943  0CA7               	rrf	(??_sqrt^(0+128)+3),f
  4110  0944  0CA6               	rrf	(??_sqrt^(0+128)+2),f
  4111  0945  0CA5               	rrf	(??_sqrt^(0+128)+1),f
  4112  0946  0CA4               	rrf	??_sqrt^(0+128),f
  4113  0947  3EFF               	addlw	-1
  4114  0948  1D03               	skipz
  4115  0949  2942               	goto	u3565
  4116  094A  0827               	movf	(??_sqrt+3)^(0+128),w
  4117  094B  00B2               	movwf	(sqrt@grs+3)^(0+128)
  4118  094C  0826               	movf	(??_sqrt+2)^(0+128),w
  4119  094D  00B1               	movwf	(sqrt@grs+2)^(0+128)
  4120  094E  0825               	movf	(??_sqrt+1)^(0+128),w
  4121  094F  00B0               	movwf	(sqrt@grs+1)^(0+128)
  4122  0950  0824               	movf	??_sqrt^(0+128),w
  4123  0951  00AF               	movwf	sqrt@grs^(0+128)
  4124  0952  3001               	movlw	1
  4125  0953  00A4               	movwf	??_sqrt^(0+128)
  4126  0954                     u3575:	
  4127  0954  1003               	clrc
  4128  0955  0DAA               	rlf	sqrt@tfrac^(0+128),f
  4129  0956  0DAB               	rlf	(sqrt@tfrac+1)^(0+128),f
  4130  0957  0DAC               	rlf	(sqrt@tfrac+2)^(0+128),f
  4131  0958  0DAD               	rlf	(sqrt@tfrac+3)^(0+128),f
  4132  0959  0BA4               	decfsz	??_sqrt^(0+128),f
  4133  095A  2954               	goto	u3575
  4134  095B  3001               	movlw	1
  4135  095C  00A4               	movwf	??_sqrt^(0+128)
  4136  095D  0824               	movf	??_sqrt^(0+128),w
  4137  095E  07A9               	addwf	sqrt@i^(0+128),f
  4138  095F  28EA               	goto	l2513
  4139  0960                     l2515:	
  4140  0960  0839               	movf	sqrt@frac^(0+128),w
  4141  0961  00A4               	movwf	??_sqrt^(0+128)
  4142  0962  083A               	movf	(sqrt@frac+1)^(0+128),w
  4143  0963  00A5               	movwf	(??_sqrt^(0+128)+1)
  4144  0964  083B               	movf	(sqrt@frac+2)^(0+128),w
  4145  0965  00A6               	movwf	(??_sqrt^(0+128)+2)
  4146  0966  083C               	movf	(sqrt@frac+3)^(0+128),w
  4147  0967  00A7               	movwf	(??_sqrt^(0+128)+3)
  4148  0968  3001               	movlw	1
  4149  0969                     u3595:	
  4150  0969  1003               	clrc
  4151  096A  0CA7               	rrf	(??_sqrt^(0+128)+3),f
  4152  096B  0CA6               	rrf	(??_sqrt^(0+128)+2),f
  4153  096C  0CA5               	rrf	(??_sqrt^(0+128)+1),f
  4154  096D  0CA4               	rrf	??_sqrt^(0+128),f
  4155  096E  3EFF               	addlw	-1
  4156  096F  1D03               	skipz
  4157  0970  2969               	goto	u3595
  4158  0971  0827               	movf	(??_sqrt+3)^(0+128),w
  4159  0972  00BC               	movwf	(sqrt@frac+3)^(0+128)
  4160  0973  0826               	movf	(??_sqrt+2)^(0+128),w
  4161  0974  00BB               	movwf	(sqrt@frac+2)^(0+128)
  4162  0975  0825               	movf	(??_sqrt+1)^(0+128),w
  4163  0976  00BA               	movwf	(sqrt@frac+1)^(0+128)
  4164  0977  0824               	movf	??_sqrt^(0+128),w
  4165  0978  00B9               	movwf	sqrt@frac^(0+128)
  4166  0979  3001               	movlw	1
  4167  097A  0539               	andwf	sqrt@frac^(0+128),w
  4168  097B  00AF               	movwf	sqrt@grs^(0+128)
  4169  097C  3000               	movlw	0
  4170  097D  053A               	andwf	(sqrt@frac+1)^(0+128),w
  4171  097E  00B0               	movwf	(sqrt@grs+1)^(0+128)
  4172  097F  3000               	movlw	0
  4173  0980  053B               	andwf	(sqrt@frac+2)^(0+128),w
  4174  0981  00B1               	movwf	(sqrt@grs+2)^(0+128)
  4175  0982  3000               	movlw	0
  4176  0983  053C               	andwf	(sqrt@frac+3)^(0+128),w
  4177  0984  00B2               	movwf	(sqrt@grs+3)^(0+128)
  4178  0985  0839               	movf	sqrt@frac^(0+128),w
  4179  0986  00A4               	movwf	??_sqrt^(0+128)
  4180  0987  083A               	movf	(sqrt@frac+1)^(0+128),w
  4181  0988  00A5               	movwf	(??_sqrt^(0+128)+1)
  4182  0989  083B               	movf	(sqrt@frac+2)^(0+128),w
  4183  098A  00A6               	movwf	(??_sqrt^(0+128)+2)
  4184  098B  083C               	movf	(sqrt@frac+3)^(0+128),w
  4185  098C  00A7               	movwf	(??_sqrt^(0+128)+3)
  4186  098D  3001               	movlw	1
  4187  098E                     u3605:	
  4188  098E  1003               	clrc
  4189  098F  0CA7               	rrf	(??_sqrt^(0+128)+3),f
  4190  0990  0CA6               	rrf	(??_sqrt^(0+128)+2),f
  4191  0991  0CA5               	rrf	(??_sqrt^(0+128)+1),f
  4192  0992  0CA4               	rrf	??_sqrt^(0+128),f
  4193  0993  3EFF               	addlw	-1
  4194  0994  1D03               	skipz
  4195  0995  298E               	goto	u3605
  4196  0996  0827               	movf	(??_sqrt+3)^(0+128),w
  4197  0997  00BC               	movwf	(sqrt@frac+3)^(0+128)
  4198  0998  0826               	movf	(??_sqrt+2)^(0+128),w
  4199  0999  00BB               	movwf	(sqrt@frac+2)^(0+128)
  4200  099A  0825               	movf	(??_sqrt+1)^(0+128),w
  4201  099B  00BA               	movwf	(sqrt@frac+1)^(0+128)
  4202  099C  0824               	movf	??_sqrt^(0+128),w
  4203  099D  00B9               	movwf	sqrt@frac^(0+128)
  4204  099E  082F               	movf	sqrt@grs^(0+128),w
  4205  099F  07B9               	addwf	sqrt@frac^(0+128),f
  4206  09A0  0830               	movf	(sqrt@grs+1)^(0+128),w
  4207  09A1  1103               	clrz
  4208  09A2  1803               	skipnc
  4209  09A3  3E01               	addlw	1
  4210  09A4  1D03               	btfss	3,2
  4211  09A5  07BA               	addwf	(sqrt@frac+1)^(0+128),f
  4212  09A6  0831               	movf	(sqrt@grs+2)^(0+128),w
  4213  09A7  1103               	clrz
  4214  09A8  1803               	skipnc
  4215  09A9  3E01               	addlw	1
  4216  09AA  1D03               	btfss	3,2
  4217  09AB  07BB               	addwf	(sqrt@frac+2)^(0+128),f
  4218  09AC  0832               	movf	(sqrt@grs+3)^(0+128),w
  4219  09AD  1103               	clrz
  4220  09AE  1803               	skipnc
  4221  09AF  3E01               	addlw	1
  4222  09B0  1D03               	btfss	3,2
  4223  09B1  07BC               	addwf	(sqrt@frac+3)^(0+128),f
  4224  09B2  1C3C               	btfss	(sqrt@frac+3)^(0+128),0
  4225  09B3  29D3               	goto	l2527
  4226  09B4  0839               	movf	sqrt@frac^(0+128),w
  4227  09B5  00A4               	movwf	??_sqrt^(0+128)
  4228  09B6  083A               	movf	(sqrt@frac+1)^(0+128),w
  4229  09B7  00A5               	movwf	(??_sqrt^(0+128)+1)
  4230  09B8  083B               	movf	(sqrt@frac+2)^(0+128),w
  4231  09B9  00A6               	movwf	(??_sqrt^(0+128)+2)
  4232  09BA  083C               	movf	(sqrt@frac+3)^(0+128),w
  4233  09BB  00A7               	movwf	(??_sqrt^(0+128)+3)
  4234  09BC  3001               	movlw	1
  4235  09BD                     u3635:	
  4236  09BD  1003               	clrc
  4237  09BE  0CA7               	rrf	(??_sqrt^(0+128)+3),f
  4238  09BF  0CA6               	rrf	(??_sqrt^(0+128)+2),f
  4239  09C0  0CA5               	rrf	(??_sqrt^(0+128)+1),f
  4240  09C1  0CA4               	rrf	??_sqrt^(0+128),f
  4241  09C2  3EFF               	addlw	-1
  4242  09C3  1D03               	skipz
  4243  09C4  29BD               	goto	u3635
  4244  09C5  0827               	movf	(??_sqrt+3)^(0+128),w
  4245  09C6  00BC               	movwf	(sqrt@frac+3)^(0+128)
  4246  09C7  0826               	movf	(??_sqrt+2)^(0+128),w
  4247  09C8  00BB               	movwf	(sqrt@frac+2)^(0+128)
  4248  09C9  0825               	movf	(??_sqrt+1)^(0+128),w
  4249  09CA  00BA               	movwf	(sqrt@frac+1)^(0+128)
  4250  09CB  0824               	movf	??_sqrt^(0+128),w
  4251  09CC  00B9               	movwf	sqrt@frac^(0+128)
  4252  09CD  3001               	movlw	1
  4253  09CE  07B3               	addwf	sqrt@exp^(0+128),f
  4254  09CF  1803               	skipnc
  4255  09D0  0AB4               	incf	(sqrt@exp+1)^(0+128),f
  4256  09D1  3000               	movlw	0
  4257  09D2  07B4               	addwf	(sqrt@exp+1)^(0+128),f
  4258  09D3                     l2527:	
  4259  09D3  30FF               	movlw	255
  4260  09D4  0539               	andwf	sqrt@frac^(0+128),w
  4261  09D5  00B5               	movwf	sqrt@root^(0+128)
  4262  09D6  30FF               	movlw	255
  4263  09D7  053A               	andwf	(sqrt@frac+1)^(0+128),w
  4264  09D8  00B6               	movwf	(sqrt@root+1)^(0+128)
  4265  09D9  307F               	movlw	127
  4266  09DA  053B               	andwf	(sqrt@frac+2)^(0+128),w
  4267  09DB  00B7               	movwf	(sqrt@root+2)^(0+128)
  4268  09DC  3000               	movlw	0
  4269  09DD  053C               	andwf	(sqrt@frac+3)^(0+128),w
  4270  09DE  00B8               	movwf	(sqrt@root+3)^(0+128)
  4271  09DF  0833               	movf	sqrt@exp^(0+128),w
  4272  09E0  00A4               	movwf	??_sqrt^(0+128)
  4273  09E1  0824               	movf	??_sqrt^(0+128),w
  4274  09E2  00AE               	movwf	sqrt@p^(0+128)
  4275  09E3  182E               	btfsc	sqrt@p^(0+128),0
  4276  09E4  17B7               	bsf	(sqrt@root^(0+128)+2),7
  4277  09E5  082E               	movf	sqrt@p^(0+128),w
  4278  09E6  00A4               	movwf	??_sqrt^(0+128)
  4279  09E7  1003               	clrc
  4280  09E8  0C24               	rrf	??_sqrt^(0+128),w
  4281  09E9  00A5               	movwf	(??_sqrt+1)^(0+128)
  4282  09EA  0825               	movf	(??_sqrt+1)^(0+128),w
  4283  09EB  00B8               	movwf	(sqrt@root^(0+128)+3)
  4284  09EC  307F               	movlw	127
  4285  09ED  00A4               	movwf	??_sqrt^(0+128)
  4286  09EE  0824               	movf	??_sqrt^(0+128),w
  4287  09EF  05B8               	andwf	(sqrt@root^(0+128)+3),f
  4288  09F0  0838               	movf	(sqrt@root+3)^(0+128),w
  4289  09F1  00A3               	movwf	(?_sqrt+3)^(0+128)
  4290  09F2  0837               	movf	(sqrt@root+2)^(0+128),w
  4291  09F3  00A2               	movwf	(?_sqrt+2)^(0+128)
  4292  09F4  0836               	movf	(sqrt@root+1)^(0+128),w
  4293  09F5  00A1               	movwf	(?_sqrt+1)^(0+128)
  4294  09F6  0835               	movf	sqrt@root^(0+128),w
  4295  09F7  00A0               	movwf	?_sqrt^(0+128)
  4296  09F8  0008               	return
  4297  09F9                     __end_of_sqrt:	
  4298                           
  4299                           	psect	text4
  4300  1575                     __ptext4:	
  4301 ;; *************** function _atan *****************
  4302 ;; Defined at:
  4303 ;;		line 8 in file "C:\Program Files (x86)\Microchip\xc8\v2.05\pic\sources\c90\common\atan.c"
  4304 ;; Parameters:    Size  Location     Type
  4305 ;;  f               4    9[BANK1 ] unsigned char 
  4306 ;; Auto vars:     Size  Location     Type
  4307 ;;  val             4   26[BANK1 ] unsigned char 
  4308 ;;  val_squared     4   22[BANK1 ] unsigned char 
  4309 ;;  x               4   17[BANK1 ] unsigned char 
  4310 ;;  y               4   13[BANK1 ] unsigned char 
  4311 ;;  recip           1   21[BANK1 ] unsigned char 
  4312 ;; Return value:  Size  Location     Type
  4313 ;;                  4    9[BANK1 ] unsigned char 
  4314 ;; Registers used:
  4315 ;;		wreg, fsr0l, fsr0h, status,2, status,0, btemp+1, pclath, cstack
  4316 ;; Tracked objects:
  4317 ;;		On entry : 0/0
  4318 ;;		On exit  : 0/0
  4319 ;;		Unchanged: 0/0
  4320 ;; Data sizes:     COMMON   BANK0   BANK1   BANK3   BANK2
  4321 ;;      Params:         0       0       4       0       0
  4322 ;;      Locals:         0       0      17       0       0
  4323 ;;      Temps:          1       0       0       0       0
  4324 ;;      Totals:         1       0      21       0       0
  4325 ;;Total ram usage:       22 bytes
  4326 ;; Hardware stack levels used:    1
  4327 ;; Hardware stack levels required when called:    3
  4328 ;; This function calls:
  4329 ;;		___fldiv
  4330 ;;		___fleq
  4331 ;;		___flge
  4332 ;;		___flmul
  4333 ;;		___flneg
  4334 ;;		___flsub
  4335 ;;		_eval_poly
  4336 ;;		_fabs
  4337 ;; This function is called by:
  4338 ;;		_asin
  4339 ;; This function uses a non-reentrant model
  4340 ;;
  4341                           
  4342                           
  4343                           ;psect for function _atan
  4344  1575                     _atan:	
  4345                           
  4346                           ;incstack = 0
  4347                           ; Regs used in _atan: [wreg-fsr0h+status,2+status,0+btemp+1+pclath+cstack]
  4348  1575  1683               	bsf	3,5	;RP0=1, select bank1
  4349  1576  1303               	bcf	3,6	;RP1=0, select bank1
  4350  1577  082C               	movf	(atan@f+3)^(0+128),w
  4351  1578  1283               	bcf	3,5	;RP0=0, select bank0
  4352  1579  1303               	bcf	3,6	;RP1=0, select bank0
  4353  157A  00B7               	movwf	fabs@d+3
  4354  157B  1683               	bsf	3,5	;RP0=1, select bank1
  4355  157C  1303               	bcf	3,6	;RP1=0, select bank1
  4356  157D  082B               	movf	(atan@f+2)^(0+128),w
  4357  157E  1283               	bcf	3,5	;RP0=0, select bank0
  4358  157F  1303               	bcf	3,6	;RP1=0, select bank0
  4359  1580  00B6               	movwf	fabs@d+2
  4360  1581  1683               	bsf	3,5	;RP0=1, select bank1
  4361  1582  1303               	bcf	3,6	;RP1=0, select bank1
  4362  1583  082A               	movf	(atan@f+1)^(0+128),w
  4363  1584  1283               	bcf	3,5	;RP0=0, select bank0
  4364  1585  1303               	bcf	3,6	;RP1=0, select bank0
  4365  1586  00B5               	movwf	fabs@d+1
  4366  1587  1683               	bsf	3,5	;RP0=1, select bank1
  4367  1588  1303               	bcf	3,6	;RP1=0, select bank1
  4368  1589  0829               	movf	atan@f^(0+128),w
  4369  158A  1283               	bcf	3,5	;RP0=0, select bank0
  4370  158B  1303               	bcf	3,6	;RP1=0, select bank0
  4371  158C  00B4               	movwf	fabs@d
  4372  158D  120A  118A  200C  160A  118A  	fcall	_fabs
  4373  1592  1283               	bcf	3,5	;RP0=0, select bank0
  4374  1593  1303               	bcf	3,6	;RP1=0, select bank0
  4375  1594  0837               	movf	?_fabs+3,w
  4376  1595  1683               	bsf	3,5	;RP0=1, select bank1
  4377  1596  1303               	bcf	3,6	;RP1=0, select bank1
  4378  1597  00BD               	movwf	(atan@val+3)^(0+128)
  4379  1598  1283               	bcf	3,5	;RP0=0, select bank0
  4380  1599  1303               	bcf	3,6	;RP1=0, select bank0
  4381  159A  0836               	movf	?_fabs+2,w
  4382  159B  1683               	bsf	3,5	;RP0=1, select bank1
  4383  159C  1303               	bcf	3,6	;RP1=0, select bank1
  4384  159D  00BC               	movwf	(atan@val+2)^(0+128)
  4385  159E  1283               	bcf	3,5	;RP0=0, select bank0
  4386  159F  1303               	bcf	3,6	;RP1=0, select bank0
  4387  15A0  0835               	movf	?_fabs+1,w
  4388  15A1  1683               	bsf	3,5	;RP0=1, select bank1
  4389  15A2  1303               	bcf	3,6	;RP1=0, select bank1
  4390  15A3  00BB               	movwf	(atan@val+1)^(0+128)
  4391  15A4  1283               	bcf	3,5	;RP0=0, select bank0
  4392  15A5  1303               	bcf	3,6	;RP1=0, select bank0
  4393  15A6  0834               	movf	?_fabs,w
  4394  15A7  1683               	bsf	3,5	;RP0=1, select bank1
  4395  15A8  1303               	bcf	3,6	;RP1=0, select bank1
  4396  15A9  00BA               	movwf	atan@val^(0+128)
  4397  15AA  083D               	movf	(atan@val+3)^(0+128),w
  4398  15AB  1283               	bcf	3,5	;RP0=0, select bank0
  4399  15AC  1303               	bcf	3,6	;RP1=0, select bank0
  4400  15AD  00BB               	movwf	___fleq@ff1+3
  4401  15AE  1683               	bsf	3,5	;RP0=1, select bank1
  4402  15AF  1303               	bcf	3,6	;RP1=0, select bank1
  4403  15B0  083C               	movf	(atan@val+2)^(0+128),w
  4404  15B1  1283               	bcf	3,5	;RP0=0, select bank0
  4405  15B2  1303               	bcf	3,6	;RP1=0, select bank0
  4406  15B3  00BA               	movwf	___fleq@ff1+2
  4407  15B4  1683               	bsf	3,5	;RP0=1, select bank1
  4408  15B5  1303               	bcf	3,6	;RP1=0, select bank1
  4409  15B6  083B               	movf	(atan@val+1)^(0+128),w
  4410  15B7  1283               	bcf	3,5	;RP0=0, select bank0
  4411  15B8  1303               	bcf	3,6	;RP1=0, select bank0
  4412  15B9  00B9               	movwf	___fleq@ff1+1
  4413  15BA  1683               	bsf	3,5	;RP0=1, select bank1
  4414  15BB  1303               	bcf	3,6	;RP1=0, select bank1
  4415  15BC  083A               	movf	atan@val^(0+128),w
  4416  15BD  1283               	bcf	3,5	;RP0=0, select bank0
  4417  15BE  1303               	bcf	3,6	;RP1=0, select bank0
  4418  15BF  00B8               	movwf	___fleq@ff1
  4419  15C0  3000               	movlw	0
  4420  15C1  00BF               	movwf	___fleq@ff2+3
  4421  15C2  3000               	movlw	0
  4422  15C3  00BE               	movwf	___fleq@ff2+2
  4423  15C4  3000               	movlw	0
  4424  15C5  00BD               	movwf	___fleq@ff2+1
  4425  15C6  3000               	movlw	0
  4426  15C7  00BC               	movwf	___fleq@ff2
  4427  15C8  160A  158A  2340  160A  118A  	fcall	___fleq
  4428  15CD  1C03               	btfss	3,0
  4429  15CE  2DDA               	goto	l2547
  4430  15CF  3000               	movlw	0
  4431  15D0  1683               	bsf	3,5	;RP0=1, select bank1
  4432  15D1  1303               	bcf	3,6	;RP1=0, select bank1
  4433  15D2  00AC               	movwf	(?_atan+3)^(0+128)
  4434  15D3  3000               	movlw	0
  4435  15D4  00AB               	movwf	(?_atan+2)^(0+128)
  4436  15D5  3000               	movlw	0
  4437  15D6  00AA               	movwf	(?_atan+1)^(0+128)
  4438  15D7  3000               	movlw	0
  4439  15D8  00A9               	movwf	?_atan^(0+128)
  4440  15D9  0008               	return
  4441  15DA                     l2547:	
  4442  15DA  303F               	movlw	63
  4443  15DB  00F3               	movwf	___flge@ff1+3
  4444  15DC  3080               	movlw	128
  4445  15DD  00F2               	movwf	___flge@ff1+2
  4446  15DE  3000               	movlw	0
  4447  15DF  00F1               	movwf	___flge@ff1+1
  4448  15E0  3000               	movlw	0
  4449  15E1  00F0               	movwf	___flge@ff1
  4450  15E2  1683               	bsf	3,5	;RP0=1, select bank1
  4451  15E3  1303               	bcf	3,6	;RP1=0, select bank1
  4452  15E4  083D               	movf	(atan@val+3)^(0+128),w
  4453  15E5  00F7               	movwf	___flge@ff2+3
  4454  15E6  083C               	movf	(atan@val+2)^(0+128),w
  4455  15E7  00F6               	movwf	___flge@ff2+2
  4456  15E8  083B               	movf	(atan@val+1)^(0+128),w
  4457  15E9  00F5               	movwf	___flge@ff2+1
  4458  15EA  083A               	movf	atan@val^(0+128),w
  4459  15EB  00F4               	movwf	___flge@ff2
  4460  15EC  160A  158A  24BB  160A  118A  	fcall	___flge
  4461  15F1  1803               	btfsc	3,0
  4462  15F2  2DF5               	goto	u3660
  4463  15F3  3001               	movlw	1
  4464  15F4  2DF6               	goto	u3670
  4465  15F5                     u3660:	
  4466  15F5  3000               	movlw	0
  4467  15F6                     u3670:	
  4468  15F6  00FD               	movwf	??_atan
  4469  15F7  087D               	movf	??_atan,w
  4470  15F8  1683               	bsf	3,5	;RP0=1, select bank1
  4471  15F9  1303               	bcf	3,6	;RP1=0, select bank1
  4472  15FA  00B5               	movwf	atan@recip^(0+128)
  4473  15FB  0835               	movf	atan@recip^(0+128),w
  4474  15FC  1903               	btfsc	3,2
  4475  15FD  2E39               	goto	l676
  4476  15FE  083D               	movf	(atan@val+3)^(0+128),w
  4477  15FF  1283               	bcf	3,5	;RP0=0, select bank0
  4478  1600  1303               	bcf	3,6	;RP1=0, select bank0
  4479  1601  00B7               	movwf	___fldiv@a+3
  4480  1602  1683               	bsf	3,5	;RP0=1, select bank1
  4481  1603  1303               	bcf	3,6	;RP1=0, select bank1
  4482  1604  083C               	movf	(atan@val+2)^(0+128),w
  4483  1605  1283               	bcf	3,5	;RP0=0, select bank0
  4484  1606  1303               	bcf	3,6	;RP1=0, select bank0
  4485  1607  00B6               	movwf	___fldiv@a+2
  4486  1608  1683               	bsf	3,5	;RP0=1, select bank1
  4487  1609  1303               	bcf	3,6	;RP1=0, select bank1
  4488  160A  083B               	movf	(atan@val+1)^(0+128),w
  4489  160B  1283               	bcf	3,5	;RP0=0, select bank0
  4490  160C  1303               	bcf	3,6	;RP1=0, select bank0
  4491  160D  00B5               	movwf	___fldiv@a+1
  4492  160E  1683               	bsf	3,5	;RP0=1, select bank1
  4493  160F  1303               	bcf	3,6	;RP1=0, select bank1
  4494  1610  083A               	movf	atan@val^(0+128),w
  4495  1611  1283               	bcf	3,5	;RP0=0, select bank0
  4496  1612  1303               	bcf	3,6	;RP1=0, select bank0
  4497  1613  00B4               	movwf	___fldiv@a
  4498  1614  303F               	movlw	63
  4499  1615  00BB               	movwf	___fldiv@b+3
  4500  1616  3080               	movlw	128
  4501  1617  00BA               	movwf	___fldiv@b+2
  4502  1618  3000               	movlw	0
  4503  1619  00B9               	movwf	___fldiv@b+1
  4504  161A  3000               	movlw	0
  4505  161B  00B8               	movwf	___fldiv@b
  4506  161C  160A  118A  219B  160A  118A  	fcall	___fldiv
  4507  1621  1283               	bcf	3,5	;RP0=0, select bank0
  4508  1622  1303               	bcf	3,6	;RP1=0, select bank0
  4509  1623  0837               	movf	?___fldiv+3,w
  4510  1624  1683               	bsf	3,5	;RP0=1, select bank1
  4511  1625  1303               	bcf	3,6	;RP1=0, select bank1
  4512  1626  00BD               	movwf	(atan@val+3)^(0+128)
  4513  1627  1283               	bcf	3,5	;RP0=0, select bank0
  4514  1628  1303               	bcf	3,6	;RP1=0, select bank0
  4515  1629  0836               	movf	?___fldiv+2,w
  4516  162A  1683               	bsf	3,5	;RP0=1, select bank1
  4517  162B  1303               	bcf	3,6	;RP1=0, select bank1
  4518  162C  00BC               	movwf	(atan@val+2)^(0+128)
  4519  162D  1283               	bcf	3,5	;RP0=0, select bank0
  4520  162E  1303               	bcf	3,6	;RP1=0, select bank0
  4521  162F  0835               	movf	?___fldiv+1,w
  4522  1630  1683               	bsf	3,5	;RP0=1, select bank1
  4523  1631  1303               	bcf	3,6	;RP1=0, select bank1
  4524  1632  00BB               	movwf	(atan@val+1)^(0+128)
  4525  1633  1283               	bcf	3,5	;RP0=0, select bank0
  4526  1634  1303               	bcf	3,6	;RP1=0, select bank0
  4527  1635  0834               	movf	?___fldiv,w
  4528  1636  1683               	bsf	3,5	;RP0=1, select bank1
  4529  1637  1303               	bcf	3,6	;RP1=0, select bank1
  4530  1638  00BA               	movwf	atan@val^(0+128)
  4531  1639                     l676:	
  4532  1639  083D               	movf	(atan@val+3)^(0+128),w
  4533  163A  1283               	bcf	3,5	;RP0=0, select bank0
  4534  163B  1303               	bcf	3,6	;RP1=0, select bank0
  4535  163C  00D1               	movwf	___flmul@b+3
  4536  163D  1683               	bsf	3,5	;RP0=1, select bank1
  4537  163E  1303               	bcf	3,6	;RP1=0, select bank1
  4538  163F  083C               	movf	(atan@val+2)^(0+128),w
  4539  1640  1283               	bcf	3,5	;RP0=0, select bank0
  4540  1641  1303               	bcf	3,6	;RP1=0, select bank0
  4541  1642  00D0               	movwf	___flmul@b+2
  4542  1643  1683               	bsf	3,5	;RP0=1, select bank1
  4543  1644  1303               	bcf	3,6	;RP1=0, select bank1
  4544  1645  083B               	movf	(atan@val+1)^(0+128),w
  4545  1646  1283               	bcf	3,5	;RP0=0, select bank0
  4546  1647  1303               	bcf	3,6	;RP1=0, select bank0
  4547  1648  00CF               	movwf	___flmul@b+1
  4548  1649  1683               	bsf	3,5	;RP0=1, select bank1
  4549  164A  1303               	bcf	3,6	;RP1=0, select bank1
  4550  164B  083A               	movf	atan@val^(0+128),w
  4551  164C  1283               	bcf	3,5	;RP0=0, select bank0
  4552  164D  1303               	bcf	3,6	;RP1=0, select bank0
  4553  164E  00CE               	movwf	___flmul@b
  4554  164F  1683               	bsf	3,5	;RP0=1, select bank1
  4555  1650  1303               	bcf	3,6	;RP1=0, select bank1
  4556  1651  083D               	movf	(atan@val+3)^(0+128),w
  4557  1652  1283               	bcf	3,5	;RP0=0, select bank0
  4558  1653  1303               	bcf	3,6	;RP1=0, select bank0
  4559  1654  00D5               	movwf	___flmul@a+3
  4560  1655  1683               	bsf	3,5	;RP0=1, select bank1
  4561  1656  1303               	bcf	3,6	;RP1=0, select bank1
  4562  1657  083C               	movf	(atan@val+2)^(0+128),w
  4563  1658  1283               	bcf	3,5	;RP0=0, select bank0
  4564  1659  1303               	bcf	3,6	;RP1=0, select bank0
  4565  165A  00D4               	movwf	___flmul@a+2
  4566  165B  1683               	bsf	3,5	;RP0=1, select bank1
  4567  165C  1303               	bcf	3,6	;RP1=0, select bank1
  4568  165D  083B               	movf	(atan@val+1)^(0+128),w
  4569  165E  1283               	bcf	3,5	;RP0=0, select bank0
  4570  165F  1303               	bcf	3,6	;RP1=0, select bank0
  4571  1660  00D3               	movwf	___flmul@a+1
  4572  1661  1683               	bsf	3,5	;RP0=1, select bank1
  4573  1662  1303               	bcf	3,6	;RP1=0, select bank1
  4574  1663  083A               	movf	atan@val^(0+128),w
  4575  1664  1283               	bcf	3,5	;RP0=0, select bank0
  4576  1665  1303               	bcf	3,6	;RP1=0, select bank0
  4577  1666  00D2               	movwf	___flmul@a
  4578  1667  120A  158A  24EB  160A  118A  	fcall	___flmul
  4579  166C  1283               	bcf	3,5	;RP0=0, select bank0
  4580  166D  1303               	bcf	3,6	;RP1=0, select bank0
  4581  166E  0851               	movf	?___flmul+3,w
  4582  166F  1683               	bsf	3,5	;RP0=1, select bank1
  4583  1670  1303               	bcf	3,6	;RP1=0, select bank1
  4584  1671  00B9               	movwf	(atan@val_squared+3)^(0+128)
  4585  1672  1283               	bcf	3,5	;RP0=0, select bank0
  4586  1673  1303               	bcf	3,6	;RP1=0, select bank0
  4587  1674  0850               	movf	?___flmul+2,w
  4588  1675  1683               	bsf	3,5	;RP0=1, select bank1
  4589  1676  1303               	bcf	3,6	;RP1=0, select bank1
  4590  1677  00B8               	movwf	(atan@val_squared+2)^(0+128)
  4591  1678  1283               	bcf	3,5	;RP0=0, select bank0
  4592  1679  1303               	bcf	3,6	;RP1=0, select bank0
  4593  167A  084F               	movf	?___flmul+1,w
  4594  167B  1683               	bsf	3,5	;RP0=1, select bank1
  4595  167C  1303               	bcf	3,6	;RP1=0, select bank1
  4596  167D  00B7               	movwf	(atan@val_squared+1)^(0+128)
  4597  167E  1283               	bcf	3,5	;RP0=0, select bank0
  4598  167F  1303               	bcf	3,6	;RP1=0, select bank0
  4599  1680  084E               	movf	?___flmul,w
  4600  1681  1683               	bsf	3,5	;RP0=1, select bank1
  4601  1682  1303               	bcf	3,6	;RP1=0, select bank1
  4602  1683  00B6               	movwf	atan@val_squared^(0+128)
  4603  1684  0839               	movf	(atan@val_squared+3)^(0+128),w
  4604  1685  1283               	bcf	3,5	;RP0=0, select bank0
  4605  1686  1303               	bcf	3,6	;RP1=0, select bank0
  4606  1687  00EB               	movwf	eval_poly@x+3
  4607  1688  1683               	bsf	3,5	;RP0=1, select bank1
  4608  1689  1303               	bcf	3,6	;RP1=0, select bank1
  4609  168A  0838               	movf	(atan@val_squared+2)^(0+128),w
  4610  168B  1283               	bcf	3,5	;RP0=0, select bank0
  4611  168C  1303               	bcf	3,6	;RP1=0, select bank0
  4612  168D  00EA               	movwf	eval_poly@x+2
  4613  168E  1683               	bsf	3,5	;RP0=1, select bank1
  4614  168F  1303               	bcf	3,6	;RP1=0, select bank1
  4615  1690  0837               	movf	(atan@val_squared+1)^(0+128),w
  4616  1691  1283               	bcf	3,5	;RP0=0, select bank0
  4617  1692  1303               	bcf	3,6	;RP1=0, select bank0
  4618  1693  00E9               	movwf	eval_poly@x+1
  4619  1694  1683               	bsf	3,5	;RP0=1, select bank1
  4620  1695  1303               	bcf	3,6	;RP1=0, select bank1
  4621  1696  0836               	movf	atan@val_squared^(0+128),w
  4622  1697  1283               	bcf	3,5	;RP0=0, select bank0
  4623  1698  1303               	bcf	3,6	;RP1=0, select bank0
  4624  1699  00E8               	movwf	eval_poly@x
  4625  169A  3019               	movlw	(low ((atan@coeff_b-__stringbase)| (0+32768)))& (0+255)
  4626  169B  00FD               	movwf	??_atan
  4627  169C  087D               	movf	??_atan,w
  4628  169D  00EC               	movwf	eval_poly@d
  4629  169E  3004               	movlw	4
  4630  169F  00ED               	movwf	eval_poly@n
  4631  16A0  3000               	movlw	0
  4632  16A1  00EE               	movwf	eval_poly@n+1
  4633  16A2  160A  158A  25F3  160A  118A  	fcall	_eval_poly
  4634  16A7  1283               	bcf	3,5	;RP0=0, select bank0
  4635  16A8  1303               	bcf	3,6	;RP1=0, select bank0
  4636  16A9  086B               	movf	?_eval_poly+3,w
  4637  16AA  1683               	bsf	3,5	;RP0=1, select bank1
  4638  16AB  1303               	bcf	3,6	;RP1=0, select bank1
  4639  16AC  00B0               	movwf	(atan@y+3)^(0+128)
  4640  16AD  1283               	bcf	3,5	;RP0=0, select bank0
  4641  16AE  1303               	bcf	3,6	;RP1=0, select bank0
  4642  16AF  086A               	movf	?_eval_poly+2,w
  4643  16B0  1683               	bsf	3,5	;RP0=1, select bank1
  4644  16B1  1303               	bcf	3,6	;RP1=0, select bank1
  4645  16B2  00AF               	movwf	(atan@y+2)^(0+128)
  4646  16B3  1283               	bcf	3,5	;RP0=0, select bank0
  4647  16B4  1303               	bcf	3,6	;RP1=0, select bank0
  4648  16B5  0869               	movf	?_eval_poly+1,w
  4649  16B6  1683               	bsf	3,5	;RP0=1, select bank1
  4650  16B7  1303               	bcf	3,6	;RP1=0, select bank1
  4651  16B8  00AE               	movwf	(atan@y+1)^(0+128)
  4652  16B9  1283               	bcf	3,5	;RP0=0, select bank0
  4653  16BA  1303               	bcf	3,6	;RP1=0, select bank0
  4654  16BB  0868               	movf	?_eval_poly,w
  4655  16BC  1683               	bsf	3,5	;RP0=1, select bank1
  4656  16BD  1303               	bcf	3,6	;RP1=0, select bank1
  4657  16BE  00AD               	movwf	atan@y^(0+128)
  4658  16BF  0839               	movf	(atan@val_squared+3)^(0+128),w
  4659  16C0  1283               	bcf	3,5	;RP0=0, select bank0
  4660  16C1  1303               	bcf	3,6	;RP1=0, select bank0
  4661  16C2  00EB               	movwf	eval_poly@x+3
  4662  16C3  1683               	bsf	3,5	;RP0=1, select bank1
  4663  16C4  1303               	bcf	3,6	;RP1=0, select bank1
  4664  16C5  0838               	movf	(atan@val_squared+2)^(0+128),w
  4665  16C6  1283               	bcf	3,5	;RP0=0, select bank0
  4666  16C7  1303               	bcf	3,6	;RP1=0, select bank0
  4667  16C8  00EA               	movwf	eval_poly@x+2
  4668  16C9  1683               	bsf	3,5	;RP0=1, select bank1
  4669  16CA  1303               	bcf	3,6	;RP1=0, select bank1
  4670  16CB  0837               	movf	(atan@val_squared+1)^(0+128),w
  4671  16CC  1283               	bcf	3,5	;RP0=0, select bank0
  4672  16CD  1303               	bcf	3,6	;RP1=0, select bank0
  4673  16CE  00E9               	movwf	eval_poly@x+1
  4674  16CF  1683               	bsf	3,5	;RP0=1, select bank1
  4675  16D0  1303               	bcf	3,6	;RP1=0, select bank1
  4676  16D1  0836               	movf	atan@val_squared^(0+128),w
  4677  16D2  1283               	bcf	3,5	;RP0=0, select bank0
  4678  16D3  1303               	bcf	3,6	;RP1=0, select bank0
  4679  16D4  00E8               	movwf	eval_poly@x
  4680  16D5  3001               	movlw	(low ((atan@coeff_a-__stringbase)| (0+32768)))& (0+255)
  4681  16D6  00FD               	movwf	??_atan
  4682  16D7  087D               	movf	??_atan,w
  4683  16D8  00EC               	movwf	eval_poly@d
  4684  16D9  3005               	movlw	5
  4685  16DA  00ED               	movwf	eval_poly@n
  4686  16DB  3000               	movlw	0
  4687  16DC  00EE               	movwf	eval_poly@n+1
  4688  16DD  160A  158A  25F3  160A  118A  	fcall	_eval_poly
  4689  16E2  1283               	bcf	3,5	;RP0=0, select bank0
  4690  16E3  1303               	bcf	3,6	;RP1=0, select bank0
  4691  16E4  086B               	movf	?_eval_poly+3,w
  4692  16E5  1683               	bsf	3,5	;RP0=1, select bank1
  4693  16E6  1303               	bcf	3,6	;RP1=0, select bank1
  4694  16E7  00B4               	movwf	(atan@x+3)^(0+128)
  4695  16E8  1283               	bcf	3,5	;RP0=0, select bank0
  4696  16E9  1303               	bcf	3,6	;RP1=0, select bank0
  4697  16EA  086A               	movf	?_eval_poly+2,w
  4698  16EB  1683               	bsf	3,5	;RP0=1, select bank1
  4699  16EC  1303               	bcf	3,6	;RP1=0, select bank1
  4700  16ED  00B3               	movwf	(atan@x+2)^(0+128)
  4701  16EE  1283               	bcf	3,5	;RP0=0, select bank0
  4702  16EF  1303               	bcf	3,6	;RP1=0, select bank0
  4703  16F0  0869               	movf	?_eval_poly+1,w
  4704  16F1  1683               	bsf	3,5	;RP0=1, select bank1
  4705  16F2  1303               	bcf	3,6	;RP1=0, select bank1
  4706  16F3  00B2               	movwf	(atan@x+1)^(0+128)
  4707  16F4  1283               	bcf	3,5	;RP0=0, select bank0
  4708  16F5  1303               	bcf	3,6	;RP1=0, select bank0
  4709  16F6  0868               	movf	?_eval_poly,w
  4710  16F7  1683               	bsf	3,5	;RP0=1, select bank1
  4711  16F8  1303               	bcf	3,6	;RP1=0, select bank1
  4712  16F9  00B1               	movwf	atan@x^(0+128)
  4713  16FA  0834               	movf	(atan@x+3)^(0+128),w
  4714  16FB  1283               	bcf	3,5	;RP0=0, select bank0
  4715  16FC  1303               	bcf	3,6	;RP1=0, select bank0
  4716  16FD  00BB               	movwf	___fldiv@b+3
  4717  16FE  1683               	bsf	3,5	;RP0=1, select bank1
  4718  16FF  1303               	bcf	3,6	;RP1=0, select bank1
  4719  1700  0833               	movf	(atan@x+2)^(0+128),w
  4720  1701  1283               	bcf	3,5	;RP0=0, select bank0
  4721  1702  1303               	bcf	3,6	;RP1=0, select bank0
  4722  1703  00BA               	movwf	___fldiv@b+2
  4723  1704  1683               	bsf	3,5	;RP0=1, select bank1
  4724  1705  1303               	bcf	3,6	;RP1=0, select bank1
  4725  1706  0832               	movf	(atan@x+1)^(0+128),w
  4726  1707  1283               	bcf	3,5	;RP0=0, select bank0
  4727  1708  1303               	bcf	3,6	;RP1=0, select bank0
  4728  1709  00B9               	movwf	___fldiv@b+1
  4729  170A  1683               	bsf	3,5	;RP0=1, select bank1
  4730  170B  1303               	bcf	3,6	;RP1=0, select bank1
  4731  170C  0831               	movf	atan@x^(0+128),w
  4732  170D  1283               	bcf	3,5	;RP0=0, select bank0
  4733  170E  1303               	bcf	3,6	;RP1=0, select bank0
  4734  170F  00B8               	movwf	___fldiv@b
  4735  1710  1683               	bsf	3,5	;RP0=1, select bank1
  4736  1711  1303               	bcf	3,6	;RP1=0, select bank1
  4737  1712  0830               	movf	(atan@y+3)^(0+128),w
  4738  1713  1283               	bcf	3,5	;RP0=0, select bank0
  4739  1714  1303               	bcf	3,6	;RP1=0, select bank0
  4740  1715  00B7               	movwf	___fldiv@a+3
  4741  1716  1683               	bsf	3,5	;RP0=1, select bank1
  4742  1717  1303               	bcf	3,6	;RP1=0, select bank1
  4743  1718  082F               	movf	(atan@y+2)^(0+128),w
  4744  1719  1283               	bcf	3,5	;RP0=0, select bank0
  4745  171A  1303               	bcf	3,6	;RP1=0, select bank0
  4746  171B  00B6               	movwf	___fldiv@a+2
  4747  171C  1683               	bsf	3,5	;RP0=1, select bank1
  4748  171D  1303               	bcf	3,6	;RP1=0, select bank1
  4749  171E  082E               	movf	(atan@y+1)^(0+128),w
  4750  171F  1283               	bcf	3,5	;RP0=0, select bank0
  4751  1720  1303               	bcf	3,6	;RP1=0, select bank0
  4752  1721  00B5               	movwf	___fldiv@a+1
  4753  1722  1683               	bsf	3,5	;RP0=1, select bank1
  4754  1723  1303               	bcf	3,6	;RP1=0, select bank1
  4755  1724  082D               	movf	atan@y^(0+128),w
  4756  1725  1283               	bcf	3,5	;RP0=0, select bank0
  4757  1726  1303               	bcf	3,6	;RP1=0, select bank0
  4758  1727  00B4               	movwf	___fldiv@a
  4759  1728  160A  118A  219B  160A  118A  	fcall	___fldiv
  4760  172D  1283               	bcf	3,5	;RP0=0, select bank0
  4761  172E  1303               	bcf	3,6	;RP1=0, select bank0
  4762  172F  0837               	movf	?___fldiv+3,w
  4763  1730  00D1               	movwf	___flmul@b+3
  4764  1731  0836               	movf	?___fldiv+2,w
  4765  1732  00D0               	movwf	___flmul@b+2
  4766  1733  0835               	movf	?___fldiv+1,w
  4767  1734  00CF               	movwf	___flmul@b+1
  4768  1735  0834               	movf	?___fldiv,w
  4769  1736  00CE               	movwf	___flmul@b
  4770  1737  1683               	bsf	3,5	;RP0=1, select bank1
  4771  1738  1303               	bcf	3,6	;RP1=0, select bank1
  4772  1739  083D               	movf	(atan@val+3)^(0+128),w
  4773  173A  1283               	bcf	3,5	;RP0=0, select bank0
  4774  173B  1303               	bcf	3,6	;RP1=0, select bank0
  4775  173C  00D5               	movwf	___flmul@a+3
  4776  173D  1683               	bsf	3,5	;RP0=1, select bank1
  4777  173E  1303               	bcf	3,6	;RP1=0, select bank1
  4778  173F  083C               	movf	(atan@val+2)^(0+128),w
  4779  1740  1283               	bcf	3,5	;RP0=0, select bank0
  4780  1741  1303               	bcf	3,6	;RP1=0, select bank0
  4781  1742  00D4               	movwf	___flmul@a+2
  4782  1743  1683               	bsf	3,5	;RP0=1, select bank1
  4783  1744  1303               	bcf	3,6	;RP1=0, select bank1
  4784  1745  083B               	movf	(atan@val+1)^(0+128),w
  4785  1746  1283               	bcf	3,5	;RP0=0, select bank0
  4786  1747  1303               	bcf	3,6	;RP1=0, select bank0
  4787  1748  00D3               	movwf	___flmul@a+1
  4788  1749  1683               	bsf	3,5	;RP0=1, select bank1
  4789  174A  1303               	bcf	3,6	;RP1=0, select bank1
  4790  174B  083A               	movf	atan@val^(0+128),w
  4791  174C  1283               	bcf	3,5	;RP0=0, select bank0
  4792  174D  1303               	bcf	3,6	;RP1=0, select bank0
  4793  174E  00D2               	movwf	___flmul@a
  4794  174F  120A  158A  24EB  160A  118A  	fcall	___flmul
  4795  1754  1283               	bcf	3,5	;RP0=0, select bank0
  4796  1755  1303               	bcf	3,6	;RP1=0, select bank0
  4797  1756  0851               	movf	?___flmul+3,w
  4798  1757  1683               	bsf	3,5	;RP0=1, select bank1
  4799  1758  1303               	bcf	3,6	;RP1=0, select bank1
  4800  1759  00BD               	movwf	(atan@val+3)^(0+128)
  4801  175A  1283               	bcf	3,5	;RP0=0, select bank0
  4802  175B  1303               	bcf	3,6	;RP1=0, select bank0
  4803  175C  0850               	movf	?___flmul+2,w
  4804  175D  1683               	bsf	3,5	;RP0=1, select bank1
  4805  175E  1303               	bcf	3,6	;RP1=0, select bank1
  4806  175F  00BC               	movwf	(atan@val+2)^(0+128)
  4807  1760  1283               	bcf	3,5	;RP0=0, select bank0
  4808  1761  1303               	bcf	3,6	;RP1=0, select bank0
  4809  1762  084F               	movf	?___flmul+1,w
  4810  1763  1683               	bsf	3,5	;RP0=1, select bank1
  4811  1764  1303               	bcf	3,6	;RP1=0, select bank1
  4812  1765  00BB               	movwf	(atan@val+1)^(0+128)
  4813  1766  1283               	bcf	3,5	;RP0=0, select bank0
  4814  1767  1303               	bcf	3,6	;RP1=0, select bank0
  4815  1768  084E               	movf	?___flmul,w
  4816  1769  1683               	bsf	3,5	;RP0=1, select bank1
  4817  176A  1303               	bcf	3,6	;RP1=0, select bank1
  4818  176B  00BA               	movwf	atan@val^(0+128)
  4819  176C  0835               	movf	atan@recip^(0+128),w
  4820  176D  1903               	btfsc	3,2
  4821  176E  2FAA               	goto	l2559
  4822  176F  083D               	movf	(atan@val+3)^(0+128),w
  4823  1770  1283               	bcf	3,5	;RP0=0, select bank0
  4824  1771  1303               	bcf	3,6	;RP1=0, select bank0
  4825  1772  00EB               	movwf	___flsub@a+3
  4826  1773  1683               	bsf	3,5	;RP0=1, select bank1
  4827  1774  1303               	bcf	3,6	;RP1=0, select bank1
  4828  1775  083C               	movf	(atan@val+2)^(0+128),w
  4829  1776  1283               	bcf	3,5	;RP0=0, select bank0
  4830  1777  1303               	bcf	3,6	;RP1=0, select bank0
  4831  1778  00EA               	movwf	___flsub@a+2
  4832  1779  1683               	bsf	3,5	;RP0=1, select bank1
  4833  177A  1303               	bcf	3,6	;RP1=0, select bank1
  4834  177B  083B               	movf	(atan@val+1)^(0+128),w
  4835  177C  1283               	bcf	3,5	;RP0=0, select bank0
  4836  177D  1303               	bcf	3,6	;RP1=0, select bank0
  4837  177E  00E9               	movwf	___flsub@a+1
  4838  177F  1683               	bsf	3,5	;RP0=1, select bank1
  4839  1780  1303               	bcf	3,6	;RP1=0, select bank1
  4840  1781  083A               	movf	atan@val^(0+128),w
  4841  1782  1283               	bcf	3,5	;RP0=0, select bank0
  4842  1783  1303               	bcf	3,6	;RP1=0, select bank0
  4843  1784  00E8               	movwf	___flsub@a
  4844  1785  303F               	movlw	63
  4845  1786  00EF               	movwf	___flsub@b+3
  4846  1787  30C9               	movlw	201
  4847  1788  00EE               	movwf	___flsub@b+2
  4848  1789  300F               	movlw	15
  4849  178A  00ED               	movwf	___flsub@b+1
  4850  178B  30DB               	movlw	219
  4851  178C  00EC               	movwf	___flsub@b
  4852  178D  160A  158A  22FB  160A  118A  	fcall	___flsub
  4853  1792  1283               	bcf	3,5	;RP0=0, select bank0
  4854  1793  1303               	bcf	3,6	;RP1=0, select bank0
  4855  1794  086B               	movf	?___flsub+3,w
  4856  1795  1683               	bsf	3,5	;RP0=1, select bank1
  4857  1796  1303               	bcf	3,6	;RP1=0, select bank1
  4858  1797  00BD               	movwf	(atan@val+3)^(0+128)
  4859  1798  1283               	bcf	3,5	;RP0=0, select bank0
  4860  1799  1303               	bcf	3,6	;RP1=0, select bank0
  4861  179A  086A               	movf	?___flsub+2,w
  4862  179B  1683               	bsf	3,5	;RP0=1, select bank1
  4863  179C  1303               	bcf	3,6	;RP1=0, select bank1
  4864  179D  00BC               	movwf	(atan@val+2)^(0+128)
  4865  179E  1283               	bcf	3,5	;RP0=0, select bank0
  4866  179F  1303               	bcf	3,6	;RP1=0, select bank0
  4867  17A0  0869               	movf	?___flsub+1,w
  4868  17A1  1683               	bsf	3,5	;RP0=1, select bank1
  4869  17A2  1303               	bcf	3,6	;RP1=0, select bank1
  4870  17A3  00BB               	movwf	(atan@val+1)^(0+128)
  4871  17A4  1283               	bcf	3,5	;RP0=0, select bank0
  4872  17A5  1303               	bcf	3,6	;RP1=0, select bank0
  4873  17A6  0868               	movf	?___flsub,w
  4874  17A7  1683               	bsf	3,5	;RP0=1, select bank1
  4875  17A8  1303               	bcf	3,6	;RP1=0, select bank1
  4876  17A9  00BA               	movwf	atan@val^(0+128)
  4877  17AA                     l2559:	
  4878  17AA  082C               	movf	(atan@f+3)^(0+128),w
  4879  17AB  00F3               	movwf	___flge@ff1+3
  4880  17AC  082B               	movf	(atan@f+2)^(0+128),w
  4881  17AD  00F2               	movwf	___flge@ff1+2
  4882  17AE  082A               	movf	(atan@f+1)^(0+128),w
  4883  17AF  00F1               	movwf	___flge@ff1+1
  4884  17B0  0829               	movf	atan@f^(0+128),w
  4885  17B1  00F0               	movwf	___flge@ff1
  4886  17B2  3000               	movlw	0
  4887  17B3  00F7               	movwf	___flge@ff2+3
  4888  17B4  3000               	movlw	0
  4889  17B5  00F6               	movwf	___flge@ff2+2
  4890  17B6  3000               	movlw	0
  4891  17B7  00F5               	movwf	___flge@ff2+1
  4892  17B8  3000               	movlw	0
  4893  17B9  00F4               	movwf	___flge@ff2
  4894  17BA  160A  158A  24BB  160A  118A  	fcall	___flge
  4895  17BF  1C03               	btfss	3,0
  4896  17C0  2FCC               	goto	l2563
  4897  17C1  1683               	bsf	3,5	;RP0=1, select bank1
  4898  17C2  1303               	bcf	3,6	;RP1=0, select bank1
  4899  17C3  083D               	movf	(atan@val+3)^(0+128),w
  4900  17C4  00AC               	movwf	(?_atan+3)^(0+128)
  4901  17C5  083C               	movf	(atan@val+2)^(0+128),w
  4902  17C6  00AB               	movwf	(?_atan+2)^(0+128)
  4903  17C7  083B               	movf	(atan@val+1)^(0+128),w
  4904  17C8  00AA               	movwf	(?_atan+1)^(0+128)
  4905  17C9  083A               	movf	atan@val^(0+128),w
  4906  17CA  00A9               	movwf	?_atan^(0+128)
  4907  17CB  0008               	return
  4908  17CC                     l2563:	
  4909  17CC  1683               	bsf	3,5	;RP0=1, select bank1
  4910  17CD  1303               	bcf	3,6	;RP1=0, select bank1
  4911  17CE  083D               	movf	(atan@val+3)^(0+128),w
  4912  17CF  1283               	bcf	3,5	;RP0=0, select bank0
  4913  17D0  1303               	bcf	3,6	;RP1=0, select bank0
  4914  17D1  00B3               	movwf	___flneg@f1+3
  4915  17D2  1683               	bsf	3,5	;RP0=1, select bank1
  4916  17D3  1303               	bcf	3,6	;RP1=0, select bank1
  4917  17D4  083C               	movf	(atan@val+2)^(0+128),w
  4918  17D5  1283               	bcf	3,5	;RP0=0, select bank0
  4919  17D6  1303               	bcf	3,6	;RP1=0, select bank0
  4920  17D7  00B2               	movwf	___flneg@f1+2
  4921  17D8  1683               	bsf	3,5	;RP0=1, select bank1
  4922  17D9  1303               	bcf	3,6	;RP1=0, select bank1
  4923  17DA  083B               	movf	(atan@val+1)^(0+128),w
  4924  17DB  1283               	bcf	3,5	;RP0=0, select bank0
  4925  17DC  1303               	bcf	3,6	;RP1=0, select bank0
  4926  17DD  00B1               	movwf	___flneg@f1+1
  4927  17DE  1683               	bsf	3,5	;RP0=1, select bank1
  4928  17DF  1303               	bcf	3,6	;RP1=0, select bank1
  4929  17E0  083A               	movf	atan@val^(0+128),w
  4930  17E1  1283               	bcf	3,5	;RP0=0, select bank0
  4931  17E2  1303               	bcf	3,6	;RP1=0, select bank0
  4932  17E3  00B0               	movwf	___flneg@f1
  4933  17E4  160A  158A  22BC   	fcall	___flneg
  4934  17E7  1283               	bcf	3,5	;RP0=0, select bank0
  4935  17E8  1303               	bcf	3,6	;RP1=0, select bank0
  4936  17E9  0833               	movf	?___flneg+3,w
  4937  17EA  1683               	bsf	3,5	;RP0=1, select bank1
  4938  17EB  1303               	bcf	3,6	;RP1=0, select bank1
  4939  17EC  00AC               	movwf	(?_atan+3)^(0+128)
  4940  17ED  1283               	bcf	3,5	;RP0=0, select bank0
  4941  17EE  1303               	bcf	3,6	;RP1=0, select bank0
  4942  17EF  0832               	movf	?___flneg+2,w
  4943  17F0  1683               	bsf	3,5	;RP0=1, select bank1
  4944  17F1  1303               	bcf	3,6	;RP1=0, select bank1
  4945  17F2  00AB               	movwf	(?_atan+2)^(0+128)
  4946  17F3  1283               	bcf	3,5	;RP0=0, select bank0
  4947  17F4  1303               	bcf	3,6	;RP1=0, select bank0
  4948  17F5  0831               	movf	?___flneg+1,w
  4949  17F6  1683               	bsf	3,5	;RP0=1, select bank1
  4950  17F7  1303               	bcf	3,6	;RP1=0, select bank1
  4951  17F8  00AA               	movwf	(?_atan+1)^(0+128)
  4952  17F9  1283               	bcf	3,5	;RP0=0, select bank0
  4953  17FA  1303               	bcf	3,6	;RP1=0, select bank0
  4954  17FB  0830               	movf	?___flneg,w
  4955  17FC  1683               	bsf	3,5	;RP0=1, select bank1
  4956  17FD  1303               	bcf	3,6	;RP1=0, select bank1
  4957  17FE  00A9               	movwf	?_atan^(0+128)
  4958  17FF  0008               	return
  4959  1800                     __end_of_atan:	
  4960                           
  4961                           	psect	text5
  4962  000C                     __ptext5:	
  4963 ;; *************** function _fabs *****************
  4964 ;; Defined at:
  4965 ;;		line 4 in file "C:\Program Files (x86)\Microchip\xc8\v2.05\pic\sources\c90\common\fabs.c"
  4966 ;; Parameters:    Size  Location     Type
  4967 ;;  d               4   20[BANK0 ] unsigned char 
  4968 ;; Auto vars:     Size  Location     Type
  4969 ;;		None
  4970 ;; Return value:  Size  Location     Type
  4971 ;;                  4   20[BANK0 ] unsigned char 
  4972 ;; Registers used:
  4973 ;;		wreg, status,2, status,0, pclath, cstack
  4974 ;; Tracked objects:
  4975 ;;		On entry : 0/0
  4976 ;;		On exit  : 0/0
  4977 ;;		Unchanged: 0/0
  4978 ;; Data sizes:     COMMON   BANK0   BANK1   BANK3   BANK2
  4979 ;;      Params:         0       4       0       0       0
  4980 ;;      Locals:         0       0       0       0       0
  4981 ;;      Temps:          0       0       0       0       0
  4982 ;;      Totals:         0       4       0       0       0
  4983 ;;Total ram usage:        4 bytes
  4984 ;; Hardware stack levels used:    1
  4985 ;; Hardware stack levels required when called:    1
  4986 ;; This function calls:
  4987 ;;		___flge
  4988 ;;		___flneg
  4989 ;; This function is called by:
  4990 ;;		_asin
  4991 ;;		_atan
  4992 ;; This function uses a non-reentrant model
  4993 ;;
  4994                           
  4995                           
  4996                           ;psect for function _fabs
  4997  000C                     _fabs:	
  4998                           
  4999                           ;incstack = 0
  5000                           ; Regs used in _fabs: [wreg+status,2+status,0+pclath+cstack]
  5001  000C  1283               	bcf	3,5	;RP0=0, select bank0
  5002  000D  1303               	bcf	3,6	;RP1=0, select bank0
  5003  000E  0837               	movf	fabs@d+3,w
  5004  000F  00F3               	movwf	___flge@ff1+3
  5005  0010  0836               	movf	fabs@d+2,w
  5006  0011  00F2               	movwf	___flge@ff1+2
  5007  0012  0835               	movf	fabs@d+1,w
  5008  0013  00F1               	movwf	___flge@ff1+1
  5009  0014  0834               	movf	fabs@d,w
  5010  0015  00F0               	movwf	___flge@ff1
  5011  0016  3000               	movlw	0
  5012  0017  00F7               	movwf	___flge@ff2+3
  5013  0018  3000               	movlw	0
  5014  0019  00F6               	movwf	___flge@ff2+2
  5015  001A  3000               	movlw	0
  5016  001B  00F5               	movwf	___flge@ff2+1
  5017  001C  3000               	movlw	0
  5018  001D  00F4               	movwf	___flge@ff2
  5019  001E  160A  158A  24BB  120A  118A  	fcall	___flge
  5020  0023  1803               	btfsc	3,0
  5021  0024  0008               	return
  5022  0025  1283               	bcf	3,5	;RP0=0, select bank0
  5023  0026  1303               	bcf	3,6	;RP1=0, select bank0
  5024  0027  0837               	movf	fabs@d+3,w
  5025  0028  00B3               	movwf	___flneg@f1+3
  5026  0029  0836               	movf	fabs@d+2,w
  5027  002A  00B2               	movwf	___flneg@f1+2
  5028  002B  0835               	movf	fabs@d+1,w
  5029  002C  00B1               	movwf	___flneg@f1+1
  5030  002D  0834               	movf	fabs@d,w
  5031  002E  00B0               	movwf	___flneg@f1
  5032  002F  160A  158A  22BC   	fcall	___flneg
  5033  0032  1283               	bcf	3,5	;RP0=0, select bank0
  5034  0033  1303               	bcf	3,6	;RP1=0, select bank0
  5035  0034  0833               	movf	?___flneg+3,w
  5036  0035  00B7               	movwf	?_fabs+3
  5037  0036  0832               	movf	?___flneg+2,w
  5038  0037  00B6               	movwf	?_fabs+2
  5039  0038  0831               	movf	?___flneg+1,w
  5040  0039  00B5               	movwf	?_fabs+1
  5041  003A  0830               	movf	?___flneg,w
  5042  003B  00B4               	movwf	?_fabs
  5043  003C  0008               	return
  5044  003D                     __end_of_fabs:	
  5045                           
  5046                           	psect	text6
  5047  1ABC                     __ptext6:	
  5048 ;; *************** function ___flneg *****************
  5049 ;; Defined at:
  5050 ;;		line 15 in file "C:\Program Files (x86)\Microchip\xc8\v2.05\pic\sources\c90\common\flneg.c"
  5051 ;; Parameters:    Size  Location     Type
  5052 ;;  f1              4   16[BANK0 ] unsigned char 
  5053 ;; Auto vars:     Size  Location     Type
  5054 ;;		None
  5055 ;; Return value:  Size  Location     Type
  5056 ;;                  4   16[BANK0 ] unsigned char 
  5057 ;; Registers used:
  5058 ;;		wreg
  5059 ;; Tracked objects:
  5060 ;;		On entry : 0/0
  5061 ;;		On exit  : 0/0
  5062 ;;		Unchanged: 0/0
  5063 ;; Data sizes:     COMMON   BANK0   BANK1   BANK3   BANK2
  5064 ;;      Params:         0       4       0       0       0
  5065 ;;      Locals:         0       0       0       0       0
  5066 ;;      Temps:          0       0       0       0       0
  5067 ;;      Totals:         0       4       0       0       0
  5068 ;;Total ram usage:        4 bytes
  5069 ;; Hardware stack levels used:    1
  5070 ;; This function calls:
  5071 ;;		Nothing
  5072 ;; This function is called by:
  5073 ;;		_asin
  5074 ;;		_atan
  5075 ;;		_fabs
  5076 ;; This function uses a non-reentrant model
  5077 ;;
  5078                           
  5079                           
  5080                           ;psect for function ___flneg
  5081  1ABC                     ___flneg:	
  5082                           
  5083                           ;incstack = 0
  5084                           ; Regs used in ___flneg: [wreg]
  5085  1ABC  1283               	bcf	3,5	;RP0=0, select bank0
  5086  1ABD  1303               	bcf	3,6	;RP1=0, select bank0
  5087  1ABE  0833               	movf	___flneg@f1+3,w
  5088  1ABF  0432               	iorwf	___flneg@f1+2,w
  5089  1AC0  0431               	iorwf	___flneg@f1+1,w
  5090  1AC1  0430               	iorwf	___flneg@f1,w
  5091  1AC2  1903               	skipnz
  5092  1AC3  0008               	return
  5093  1AC4  3080               	movlw	128
  5094  1AC5  06B3               	xorwf	___flneg@f1+3,f
  5095  1AC6  0008               	return
  5096  1AC7                     __end_of___flneg:	
  5097                           
  5098                           	psect	text7
  5099  1CBB                     __ptext7:	
  5100 ;; *************** function ___flge *****************
  5101 ;; Defined at:
  5102 ;;		line 4 in file "C:\Program Files (x86)\Microchip\xc8\v2.05\pic\sources\c90\common\flge.c"
  5103 ;; Parameters:    Size  Location     Type
  5104 ;;  ff1             4    0[COMMON] unsigned char 
  5105 ;;  ff2             4    4[COMMON] unsigned char 
  5106 ;; Auto vars:     Size  Location     Type
  5107 ;;		None
  5108 ;; Return value:  Size  Location     Type
  5109 ;;		None               void
  5110 ;; Registers used:
  5111 ;;		wreg, status,2, status,0
  5112 ;; Tracked objects:
  5113 ;;		On entry : 0/0
  5114 ;;		On exit  : 0/0
  5115 ;;		Unchanged: 0/0
  5116 ;; Data sizes:     COMMON   BANK0   BANK1   BANK3   BANK2
  5117 ;;      Params:         8       0       0       0       0
  5118 ;;      Locals:         0       0       0       0       0
  5119 ;;      Temps:          4       0       0       0       0
  5120 ;;      Totals:        12       0       0       0       0
  5121 ;;Total ram usage:       12 bytes
  5122 ;; Hardware stack levels used:    1
  5123 ;; This function calls:
  5124 ;;		Nothing
  5125 ;; This function is called by:
  5126 ;;		_asin
  5127 ;;		_atan
  5128 ;;		_fabs
  5129 ;; This function uses a non-reentrant model
  5130 ;;
  5131                           
  5132                           
  5133                           ;psect for function ___flge
  5134  1CBB                     ___flge:	
  5135                           
  5136                           ;incstack = 0
  5137                           ; Regs used in ___flge: [wreg+status,2+status,0]
  5138  1CBB  3000               	movlw	0
  5139  1CBC  0570               	andwf	___flge@ff1,w
  5140  1CBD  00F8               	movwf	??___flge
  5141  1CBE  3000               	movlw	0
  5142  1CBF  0571               	andwf	___flge@ff1+1,w
  5143  1CC0  00F9               	movwf	??___flge+1
  5144  1CC1  3080               	movlw	128
  5145  1CC2  0572               	andwf	___flge@ff1+2,w
  5146  1CC3  00FA               	movwf	??___flge+2
  5147  1CC4  307F               	movlw	127
  5148  1CC5  0573               	andwf	___flge@ff1+3,w
  5149  1CC6  00FB               	movwf	??___flge+3
  5150  1CC7  087B               	movf	??___flge+3,w
  5151  1CC8  047A               	iorwf	??___flge+2,w
  5152  1CC9  0479               	iorwf	??___flge+1,w
  5153  1CCA  0478               	iorwf	??___flge,w
  5154  1CCB  1D03               	skipz
  5155  1CCC  2CD5               	goto	l356
  5156  1CCD  3000               	movlw	0
  5157  1CCE  00F3               	movwf	___flge@ff1+3
  5158  1CCF  3000               	movlw	0
  5159  1CD0  00F2               	movwf	___flge@ff1+2
  5160  1CD1  3000               	movlw	0
  5161  1CD2  00F1               	movwf	___flge@ff1+1
  5162  1CD3  3000               	movlw	0
  5163  1CD4  00F0               	movwf	___flge@ff1
  5164  1CD5                     l356:	
  5165  1CD5  3000               	movlw	0
  5166  1CD6  0574               	andwf	___flge@ff2,w
  5167  1CD7  00F8               	movwf	??___flge
  5168  1CD8  3000               	movlw	0
  5169  1CD9  0575               	andwf	___flge@ff2+1,w
  5170  1CDA  00F9               	movwf	??___flge+1
  5171  1CDB  3080               	movlw	128
  5172  1CDC  0576               	andwf	___flge@ff2+2,w
  5173  1CDD  00FA               	movwf	??___flge+2
  5174  1CDE  307F               	movlw	127
  5175  1CDF  0577               	andwf	___flge@ff2+3,w
  5176  1CE0  00FB               	movwf	??___flge+3
  5177  1CE1  087B               	movf	??___flge+3,w
  5178  1CE2  047A               	iorwf	??___flge+2,w
  5179  1CE3  0479               	iorwf	??___flge+1,w
  5180  1CE4  0478               	iorwf	??___flge,w
  5181  1CE5  1D03               	skipz
  5182  1CE6  2CEF               	goto	l1917
  5183  1CE7  3000               	movlw	0
  5184  1CE8  00F7               	movwf	___flge@ff2+3
  5185  1CE9  3000               	movlw	0
  5186  1CEA  00F6               	movwf	___flge@ff2+2
  5187  1CEB  3000               	movlw	0
  5188  1CEC  00F5               	movwf	___flge@ff2+1
  5189  1CED  3000               	movlw	0
  5190  1CEE  00F4               	movwf	___flge@ff2
  5191  1CEF                     l1917:	
  5192  1CEF  1FF3               	btfss	___flge@ff1+3,7
  5193  1CF0  2D15               	goto	l1921
  5194  1CF1  3000               	movlw	0
  5195  1CF2  00F8               	movwf	??___flge
  5196  1CF3  3000               	movlw	0
  5197  1CF4  00F9               	movwf	??___flge+1
  5198  1CF5  3000               	movlw	0
  5199  1CF6  00FA               	movwf	??___flge+2
  5200  1CF7  3080               	movlw	128
  5201  1CF8  00FB               	movwf	??___flge+3
  5202  1CF9  0870               	movf	___flge@ff1,w
  5203  1CFA  02F8               	subwf	??___flge,f
  5204  1CFB  0871               	movf	___flge@ff1+1,w
  5205  1CFC  1C03               	skipc
  5206  1CFD  0F71               	incfsz	___flge@ff1+1,w
  5207  1CFE  2D00               	goto	u2211
  5208  1CFF  2D01               	goto	u2212
  5209  1D00                     u2211:	
  5210  1D00  02F9               	subwf	??___flge+1,f
  5211  1D01                     u2212:	
  5212  1D01  0872               	movf	___flge@ff1+2,w
  5213  1D02  1C03               	skipc
  5214  1D03  0F72               	incfsz	___flge@ff1+2,w
  5215  1D04  2D06               	goto	u2213
  5216  1D05  2D07               	goto	u2214
  5217  1D06                     u2213:	
  5218  1D06  02FA               	subwf	??___flge+2,f
  5219  1D07                     u2214:	
  5220  1D07  0873               	movf	___flge@ff1+3,w
  5221  1D08  1C03               	skipc
  5222  1D09  0F73               	incfsz	___flge@ff1+3,w
  5223  1D0A  2D0C               	goto	u2215
  5224  1D0B  2D0D               	goto	u2216
  5225  1D0C                     u2215:	
  5226  1D0C  02FB               	subwf	??___flge+3,f
  5227  1D0D                     u2216:	
  5228  1D0D  087B               	movf	??___flge+3,w
  5229  1D0E  00F3               	movwf	___flge@ff1+3
  5230  1D0F  087A               	movf	??___flge+2,w
  5231  1D10  00F2               	movwf	___flge@ff1+2
  5232  1D11  0879               	movf	??___flge+1,w
  5233  1D12  00F1               	movwf	___flge@ff1+1
  5234  1D13  0878               	movf	??___flge,w
  5235  1D14  00F0               	movwf	___flge@ff1
  5236  1D15                     l1921:	
  5237  1D15  1FF7               	btfss	___flge@ff2+3,7
  5238  1D16  2D3B               	goto	l359
  5239  1D17  3000               	movlw	0
  5240  1D18  00F8               	movwf	??___flge
  5241  1D19  3000               	movlw	0
  5242  1D1A  00F9               	movwf	??___flge+1
  5243  1D1B  3000               	movlw	0
  5244  1D1C  00FA               	movwf	??___flge+2
  5245  1D1D  3080               	movlw	128
  5246  1D1E  00FB               	movwf	??___flge+3
  5247  1D1F  0874               	movf	___flge@ff2,w
  5248  1D20  02F8               	subwf	??___flge,f
  5249  1D21  0875               	movf	___flge@ff2+1,w
  5250  1D22  1C03               	skipc
  5251  1D23  0F75               	incfsz	___flge@ff2+1,w
  5252  1D24  2D26               	goto	u2231
  5253  1D25  2D27               	goto	u2232
  5254  1D26                     u2231:	
  5255  1D26  02F9               	subwf	??___flge+1,f
  5256  1D27                     u2232:	
  5257  1D27  0876               	movf	___flge@ff2+2,w
  5258  1D28  1C03               	skipc
  5259  1D29  0F76               	incfsz	___flge@ff2+2,w
  5260  1D2A  2D2C               	goto	u2233
  5261  1D2B  2D2D               	goto	u2234
  5262  1D2C                     u2233:	
  5263  1D2C  02FA               	subwf	??___flge+2,f
  5264  1D2D                     u2234:	
  5265  1D2D  0877               	movf	___flge@ff2+3,w
  5266  1D2E  1C03               	skipc
  5267  1D2F  0F77               	incfsz	___flge@ff2+3,w
  5268  1D30  2D32               	goto	u2235
  5269  1D31  2D33               	goto	u2236
  5270  1D32                     u2235:	
  5271  1D32  02FB               	subwf	??___flge+3,f
  5272  1D33                     u2236:	
  5273  1D33  087B               	movf	??___flge+3,w
  5274  1D34  00F7               	movwf	___flge@ff2+3
  5275  1D35  087A               	movf	??___flge+2,w
  5276  1D36  00F6               	movwf	___flge@ff2+2
  5277  1D37  0879               	movf	??___flge+1,w
  5278  1D38  00F5               	movwf	___flge@ff2+1
  5279  1D39  0878               	movf	??___flge,w
  5280  1D3A  00F4               	movwf	___flge@ff2
  5281  1D3B                     l359:	
  5282  1D3B  3080               	movlw	128
  5283  1D3C  06F3               	xorwf	___flge@ff1+3,f
  5284  1D3D  3080               	movlw	128
  5285  1D3E  06F7               	xorwf	___flge@ff2+3,f
  5286  1D3F  0877               	movf	___flge@ff2+3,w
  5287  1D40  0273               	subwf	___flge@ff1+3,w
  5288  1D41  1D03               	skipz
  5289  1D42  0008               	return
  5290  1D43  0876               	movf	___flge@ff2+2,w
  5291  1D44  0272               	subwf	___flge@ff1+2,w
  5292  1D45  1D03               	skipz
  5293  1D46  0008               	return
  5294  1D47  0875               	movf	___flge@ff2+1,w
  5295  1D48  0271               	subwf	___flge@ff1+1,w
  5296  1D49  1D03               	skipz
  5297  1D4A  0008               	return
  5298  1D4B  0874               	movf	___flge@ff2,w
  5299  1D4C  0270               	subwf	___flge@ff1,w
  5300  1D4D  0008               	return
  5301  1D4E                     __end_of___flge:	
  5302                           
  5303                           	psect	text8
  5304  1DF3                     __ptext8:	
  5305 ;; *************** function _eval_poly *****************
  5306 ;; Defined at:
  5307 ;;		line 4 in file "C:\Program Files (x86)\Microchip\xc8\v2.05\pic\sources\c90\common\evalpoly.c"
  5308 ;; Parameters:    Size  Location     Type
  5309 ;;  x               4   72[BANK0 ] unsigned char 
  5310 ;;  d               1   76[BANK0 ] PTR const 
  5311 ;;		 -> atan@coeff_a(24), atan@coeff_b(20), 
  5312 ;;  n               2   77[BANK0 ] int 
  5313 ;; Auto vars:     Size  Location     Type
  5314 ;;  res             4    5[BANK1 ] int 
  5315 ;; Return value:  Size  Location     Type
  5316 ;;                  4   72[BANK0 ] int 
  5317 ;; Registers used:
  5318 ;;		wreg, fsr0l, fsr0h, status,2, status,0, btemp+1, pclath, cstack
  5319 ;; Tracked objects:
  5320 ;;		On entry : 0/0
  5321 ;;		On exit  : 0/0
  5322 ;;		Unchanged: 0/0
  5323 ;; Data sizes:     COMMON   BANK0   BANK1   BANK3   BANK2
  5324 ;;      Params:         0       7       0       0       0
  5325 ;;      Locals:         0       0       4       0       0
  5326 ;;      Temps:          0       0       5       0       0
  5327 ;;      Totals:         0       7       9       0       0
  5328 ;;Total ram usage:       16 bytes
  5329 ;; Hardware stack levels used:    1
  5330 ;; Hardware stack levels required when called:    2
  5331 ;; This function calls:
  5332 ;;		___fladd
  5333 ;;		___flmul
  5334 ;; This function is called by:
  5335 ;;		_atan
  5336 ;; This function uses a non-reentrant model
  5337 ;;
  5338                           
  5339                           
  5340                           ;psect for function _eval_poly
  5341  1DF3                     _eval_poly:	
  5342                           
  5343                           ;incstack = 0
  5344                           ; Regs used in _eval_poly: [wreg-fsr0h+status,2+status,0+btemp+1+pclath+cstack]
  5345  1DF3  1283               	bcf	3,5	;RP0=0, select bank0
  5346  1DF4  1303               	bcf	3,6	;RP1=0, select bank0
  5347  1DF5  086D               	movf	eval_poly@n,w
  5348  1DF6  1683               	bsf	3,5	;RP0=1, select bank1
  5349  1DF7  1303               	bcf	3,6	;RP1=0, select bank1
  5350  1DF8  00A0               	movwf	??_eval_poly^(0+128)
  5351  1DF9  3001               	movlw	1
  5352  1DFA                     u3425:	
  5353  1DFA  1003               	clrc
  5354  1DFB  0DA0               	rlf	??_eval_poly^(0+128),f
  5355  1DFC  3EFF               	addlw	-1
  5356  1DFD  1D03               	skipz
  5357  1DFE  2DFA               	goto	u3425
  5358  1DFF  1003               	clrc
  5359  1E00  0D20               	rlf	??_eval_poly^(0+128),w
  5360  1E01  1283               	bcf	3,5	;RP0=0, select bank0
  5361  1E02  1303               	bcf	3,6	;RP1=0, select bank0
  5362  1E03  076C               	addwf	eval_poly@d,w
  5363  1E04  0084               	movwf	4
  5364  1E05  160A  158A  2000  160A  158A  	fcall	stringdir
  5365  1E0A  1683               	bsf	3,5	;RP0=1, select bank1
  5366  1E0B  1303               	bcf	3,6	;RP1=0, select bank1
  5367  1E0C  00A1               	movwf	(??_eval_poly+1)^(0+128)
  5368  1E0D  160A  158A  2000  160A  158A  	fcall	stringdir
  5369  1E12  00A2               	movwf	((??_eval_poly+1)^(0+128)+1)
  5370  1E13  160A  158A  2000  160A  158A  	fcall	stringdir
  5371  1E18  00A3               	movwf	((??_eval_poly+1)^(0+128)+2)
  5372  1E19  160A  158A  2000  160A  158A  	fcall	stringdir
  5373  1E1E  00A4               	movwf	((??_eval_poly+1)^(0+128)+3)
  5374  1E1F  0824               	movf	(??_eval_poly+4)^(0+128),w
  5375  1E20  00A8               	movwf	(eval_poly@res+3)^(0+128)
  5376  1E21  0823               	movf	(??_eval_poly+3)^(0+128),w
  5377  1E22  00A7               	movwf	(eval_poly@res+2)^(0+128)
  5378  1E23  0822               	movf	(??_eval_poly+2)^(0+128),w
  5379  1E24  00A6               	movwf	(eval_poly@res+1)^(0+128)
  5380  1E25  0821               	movf	(??_eval_poly+1)^(0+128),w
  5381  1E26                     L2:	
  5382  1E26  00A5               	movwf	eval_poly@res^(0+128)
  5383  1E27  1283               	bcf	3,5	;RP0=0, select bank0
  5384  1E28  1303               	bcf	3,6	;RP1=0, select bank0
  5385  1E29  086D               	movf	eval_poly@n,w
  5386  1E2A  046E               	iorwf	eval_poly@n+1,w
  5387  1E2B  1903               	btfsc	3,2
  5388  1E2C  2EBF               	goto	l2445
  5389  1E2D  30FF               	movlw	255
  5390  1E2E  07ED               	addwf	eval_poly@n,f
  5391  1E2F  1803               	skipnc
  5392  1E30  0AEE               	incf	eval_poly@n+1,f
  5393  1E31  30FF               	movlw	255
  5394  1E32  07EE               	addwf	eval_poly@n+1,f
  5395  1E33  086D               	movf	eval_poly@n,w
  5396  1E34  1683               	bsf	3,5	;RP0=1, select bank1
  5397  1E35  1303               	bcf	3,6	;RP1=0, select bank1
  5398  1E36  00A0               	movwf	??_eval_poly^(0+128)
  5399  1E37  3001               	movlw	1
  5400  1E38                     u3435:	
  5401  1E38  1003               	clrc
  5402  1E39  0DA0               	rlf	??_eval_poly^(0+128),f
  5403  1E3A  3EFF               	addlw	-1
  5404  1E3B  1D03               	skipz
  5405  1E3C  2E38               	goto	u3435
  5406  1E3D  1003               	clrc
  5407  1E3E  0D20               	rlf	??_eval_poly^(0+128),w
  5408  1E3F  1283               	bcf	3,5	;RP0=0, select bank0
  5409  1E40  1303               	bcf	3,6	;RP1=0, select bank0
  5410  1E41  076C               	addwf	eval_poly@d,w
  5411  1E42  0084               	movwf	4
  5412  1E43  160A  158A  2000  160A  158A  	fcall	stringdir
  5413  1E48  1683               	bsf	3,5	;RP0=1, select bank1
  5414  1E49  1303               	bcf	3,6	;RP1=0, select bank1
  5415  1E4A  00A1               	movwf	(??_eval_poly+1)^(0+128)
  5416  1E4B  160A  158A  2000  160A  158A  	fcall	stringdir
  5417  1E50  00A2               	movwf	((??_eval_poly+1)^(0+128)+1)
  5418  1E51  160A  158A  2000  160A  158A  	fcall	stringdir
  5419  1E56  00A3               	movwf	((??_eval_poly+1)^(0+128)+2)
  5420  1E57  160A  158A  2000  160A  158A  	fcall	stringdir
  5421  1E5C  00A4               	movwf	((??_eval_poly+1)^(0+128)+3)
  5422  1E5D  0824               	movf	(??_eval_poly+4)^(0+128),w
  5423  1E5E  1283               	bcf	3,5	;RP0=0, select bank0
  5424  1E5F  1303               	bcf	3,6	;RP1=0, select bank0
  5425  1E60  00A3               	movwf	___fladd@b+3
  5426  1E61  1683               	bsf	3,5	;RP0=1, select bank1
  5427  1E62  1303               	bcf	3,6	;RP1=0, select bank1
  5428  1E63  0823               	movf	(??_eval_poly+3)^(0+128),w
  5429  1E64  1283               	bcf	3,5	;RP0=0, select bank0
  5430  1E65  1303               	bcf	3,6	;RP1=0, select bank0
  5431  1E66  00A2               	movwf	___fladd@b+2
  5432  1E67  1683               	bsf	3,5	;RP0=1, select bank1
  5433  1E68  1303               	bcf	3,6	;RP1=0, select bank1
  5434  1E69  0822               	movf	(??_eval_poly+2)^(0+128),w
  5435  1E6A  1283               	bcf	3,5	;RP0=0, select bank0
  5436  1E6B  1303               	bcf	3,6	;RP1=0, select bank0
  5437  1E6C  00A1               	movwf	___fladd@b+1
  5438  1E6D  1683               	bsf	3,5	;RP0=1, select bank1
  5439  1E6E  1303               	bcf	3,6	;RP1=0, select bank1
  5440  1E6F  0821               	movf	(??_eval_poly+1)^(0+128),w
  5441  1E70  1283               	bcf	3,5	;RP0=0, select bank0
  5442  1E71  1303               	bcf	3,6	;RP1=0, select bank0
  5443  1E72  00A0               	movwf	___fladd@b
  5444  1E73  1683               	bsf	3,5	;RP0=1, select bank1
  5445  1E74  1303               	bcf	3,6	;RP1=0, select bank1
  5446  1E75  0828               	movf	(eval_poly@res+3)^(0+128),w
  5447  1E76  1283               	bcf	3,5	;RP0=0, select bank0
  5448  1E77  1303               	bcf	3,6	;RP1=0, select bank0
  5449  1E78  00D1               	movwf	___flmul@b+3
  5450  1E79  1683               	bsf	3,5	;RP0=1, select bank1
  5451  1E7A  1303               	bcf	3,6	;RP1=0, select bank1
  5452  1E7B  0827               	movf	(eval_poly@res+2)^(0+128),w
  5453  1E7C  1283               	bcf	3,5	;RP0=0, select bank0
  5454  1E7D  1303               	bcf	3,6	;RP1=0, select bank0
  5455  1E7E  00D0               	movwf	___flmul@b+2
  5456  1E7F  1683               	bsf	3,5	;RP0=1, select bank1
  5457  1E80  1303               	bcf	3,6	;RP1=0, select bank1
  5458  1E81  0826               	movf	(eval_poly@res+1)^(0+128),w
  5459  1E82  1283               	bcf	3,5	;RP0=0, select bank0
  5460  1E83  1303               	bcf	3,6	;RP1=0, select bank0
  5461  1E84  00CF               	movwf	___flmul@b+1
  5462  1E85  1683               	bsf	3,5	;RP0=1, select bank1
  5463  1E86  1303               	bcf	3,6	;RP1=0, select bank1
  5464  1E87  0825               	movf	eval_poly@res^(0+128),w
  5465  1E88  1283               	bcf	3,5	;RP0=0, select bank0
  5466  1E89  1303               	bcf	3,6	;RP1=0, select bank0
  5467  1E8A  00CE               	movwf	___flmul@b
  5468  1E8B  086B               	movf	eval_poly@x+3,w
  5469  1E8C  00D5               	movwf	___flmul@a+3
  5470  1E8D  086A               	movf	eval_poly@x+2,w
  5471  1E8E  00D4               	movwf	___flmul@a+2
  5472  1E8F  0869               	movf	eval_poly@x+1,w
  5473  1E90  00D3               	movwf	___flmul@a+1
  5474  1E91  0868               	movf	eval_poly@x,w
  5475  1E92  00D2               	movwf	___flmul@a
  5476  1E93  120A  158A  24EB  160A  158A  	fcall	___flmul
  5477  1E98  1283               	bcf	3,5	;RP0=0, select bank0
  5478  1E99  1303               	bcf	3,6	;RP1=0, select bank0
  5479  1E9A  0851               	movf	?___flmul+3,w
  5480  1E9B  00A7               	movwf	___fladd@a+3
  5481  1E9C  0850               	movf	?___flmul+2,w
  5482  1E9D  00A6               	movwf	___fladd@a+2
  5483  1E9E  084F               	movf	?___flmul+1,w
  5484  1E9F  00A5               	movwf	___fladd@a+1
  5485  1EA0  084E               	movf	?___flmul,w
  5486  1EA1  00A4               	movwf	___fladd@a
  5487  1EA2  160A  118A  233E  160A  158A  	fcall	___fladd
  5488  1EA7  1283               	bcf	3,5	;RP0=0, select bank0
  5489  1EA8  1303               	bcf	3,6	;RP1=0, select bank0
  5490  1EA9  0823               	movf	?___fladd+3,w
  5491  1EAA  1683               	bsf	3,5	;RP0=1, select bank1
  5492  1EAB  1303               	bcf	3,6	;RP1=0, select bank1
  5493  1EAC  00A8               	movwf	(eval_poly@res+3)^(0+128)
  5494  1EAD  1283               	bcf	3,5	;RP0=0, select bank0
  5495  1EAE  1303               	bcf	3,6	;RP1=0, select bank0
  5496  1EAF  0822               	movf	?___fladd+2,w
  5497  1EB0  1683               	bsf	3,5	;RP0=1, select bank1
  5498  1EB1  1303               	bcf	3,6	;RP1=0, select bank1
  5499  1EB2  00A7               	movwf	(eval_poly@res+2)^(0+128)
  5500  1EB3  1283               	bcf	3,5	;RP0=0, select bank0
  5501  1EB4  1303               	bcf	3,6	;RP1=0, select bank0
  5502  1EB5  0821               	movf	?___fladd+1,w
  5503  1EB6  1683               	bsf	3,5	;RP0=1, select bank1
  5504  1EB7  1303               	bcf	3,6	;RP1=0, select bank1
  5505  1EB8  00A6               	movwf	(eval_poly@res+1)^(0+128)
  5506  1EB9  1283               	bcf	3,5	;RP0=0, select bank0
  5507  1EBA  1303               	bcf	3,6	;RP1=0, select bank0
  5508  1EBB  0820               	movf	?___fladd,w
  5509  1EBC  1683               	bsf	3,5	;RP0=1, select bank1
  5510  1EBD  1303               	bcf	3,6	;RP1=0, select bank1
  5511  1EBE  2E26               	goto	L2
  5512  1EBF                     l2445:	
  5513  1EBF  1683               	bsf	3,5	;RP0=1, select bank1
  5514  1EC0  1303               	bcf	3,6	;RP1=0, select bank1
  5515  1EC1  0828               	movf	(eval_poly@res+3)^(0+128),w
  5516  1EC2  1283               	bcf	3,5	;RP0=0, select bank0
  5517  1EC3  1303               	bcf	3,6	;RP1=0, select bank0
  5518  1EC4  00EB               	movwf	?_eval_poly+3
  5519  1EC5  1683               	bsf	3,5	;RP0=1, select bank1
  5520  1EC6  1303               	bcf	3,6	;RP1=0, select bank1
  5521  1EC7  0827               	movf	(eval_poly@res+2)^(0+128),w
  5522  1EC8  1283               	bcf	3,5	;RP0=0, select bank0
  5523  1EC9  1303               	bcf	3,6	;RP1=0, select bank0
  5524  1ECA  00EA               	movwf	?_eval_poly+2
  5525  1ECB  1683               	bsf	3,5	;RP0=1, select bank1
  5526  1ECC  1303               	bcf	3,6	;RP1=0, select bank1
  5527  1ECD  0826               	movf	(eval_poly@res+1)^(0+128),w
  5528  1ECE  1283               	bcf	3,5	;RP0=0, select bank0
  5529  1ECF  1303               	bcf	3,6	;RP1=0, select bank0
  5530  1ED0  00E9               	movwf	?_eval_poly+1
  5531  1ED1  1683               	bsf	3,5	;RP0=1, select bank1
  5532  1ED2  1303               	bcf	3,6	;RP1=0, select bank1
  5533  1ED3  0825               	movf	eval_poly@res^(0+128),w
  5534  1ED4  1283               	bcf	3,5	;RP0=0, select bank0
  5535  1ED5  1303               	bcf	3,6	;RP1=0, select bank0
  5536  1ED6  00E8               	movwf	?_eval_poly
  5537  1ED7  0008               	return
  5538  1ED8                     __end_of_eval_poly:	
  5539                           
  5540                           	psect	text9
  5541  1B40                     __ptext9:	
  5542 ;; *************** function ___fleq *****************
  5543 ;; Defined at:
  5544 ;;		line 4 in file "C:\Program Files (x86)\Microchip\xc8\v2.05\pic\sources\c90\common\fleq.c"
  5545 ;; Parameters:    Size  Location     Type
  5546 ;;  ff1             4   24[BANK0 ] int 
  5547 ;;  ff2             4   28[BANK0 ] int 
  5548 ;; Auto vars:     Size  Location     Type
  5549 ;;		None
  5550 ;; Return value:  Size  Location     Type
  5551 ;;		None               void
  5552 ;; Registers used:
  5553 ;;		wreg, status,2, status,0
  5554 ;; Tracked objects:
  5555 ;;		On entry : 0/0
  5556 ;;		On exit  : 0/0
  5557 ;;		Unchanged: 0/0
  5558 ;; Data sizes:     COMMON   BANK0   BANK1   BANK3   BANK2
  5559 ;;      Params:         0       8       0       0       0
  5560 ;;      Locals:         0       0       0       0       0
  5561 ;;      Temps:          0       4       0       0       0
  5562 ;;      Totals:         0      12       0       0       0
  5563 ;;Total ram usage:       12 bytes
  5564 ;; Hardware stack levels used:    1
  5565 ;; This function calls:
  5566 ;;		Nothing
  5567 ;; This function is called by:
  5568 ;;		_atan
  5569 ;; This function uses a non-reentrant model
  5570 ;;
  5571                           
  5572                           
  5573                           ;psect for function ___fleq
  5574  1B40                     ___fleq:	
  5575                           
  5576                           ;incstack = 0
  5577                           ; Regs used in ___fleq: [wreg+status,2+status,0]
  5578  1B40  3000               	movlw	0
  5579  1B41  1283               	bcf	3,5	;RP0=0, select bank0
  5580  1B42  1303               	bcf	3,6	;RP1=0, select bank0
  5581  1B43  0538               	andwf	___fleq@ff1,w
  5582  1B44  00C0               	movwf	??___fleq
  5583  1B45  3000               	movlw	0
  5584  1B46  0539               	andwf	___fleq@ff1+1,w
  5585  1B47  00C1               	movwf	??___fleq+1
  5586  1B48  3080               	movlw	128
  5587  1B49  053A               	andwf	___fleq@ff1+2,w
  5588  1B4A  00C2               	movwf	??___fleq+2
  5589  1B4B  307F               	movlw	127
  5590  1B4C  053B               	andwf	___fleq@ff1+3,w
  5591  1B4D  00C3               	movwf	??___fleq+3
  5592  1B4E  0843               	movf	??___fleq+3,w
  5593  1B4F  0442               	iorwf	??___fleq+2,w
  5594  1B50  0441               	iorwf	??___fleq+1,w
  5595  1B51  0440               	iorwf	??___fleq,w
  5596  1B52  1D03               	skipz
  5597  1B53  2B5C               	goto	l351
  5598  1B54  3000               	movlw	0
  5599  1B55  00BB               	movwf	___fleq@ff1+3
  5600  1B56  3000               	movlw	0
  5601  1B57  00BA               	movwf	___fleq@ff1+2
  5602  1B58  3000               	movlw	0
  5603  1B59  00B9               	movwf	___fleq@ff1+1
  5604  1B5A  3000               	movlw	0
  5605  1B5B  00B8               	movwf	___fleq@ff1
  5606  1B5C                     l351:	
  5607  1B5C  3000               	movlw	0
  5608  1B5D  053C               	andwf	___fleq@ff2,w
  5609  1B5E  00C0               	movwf	??___fleq
  5610  1B5F  3000               	movlw	0
  5611  1B60  053D               	andwf	___fleq@ff2+1,w
  5612  1B61  00C1               	movwf	??___fleq+1
  5613  1B62  3080               	movlw	128
  5614  1B63  053E               	andwf	___fleq@ff2+2,w
  5615  1B64  00C2               	movwf	??___fleq+2
  5616  1B65  307F               	movlw	127
  5617  1B66  053F               	andwf	___fleq@ff2+3,w
  5618  1B67  00C3               	movwf	??___fleq+3
  5619  1B68  0843               	movf	??___fleq+3,w
  5620  1B69  0442               	iorwf	??___fleq+2,w
  5621  1B6A  0441               	iorwf	??___fleq+1,w
  5622  1B6B  0440               	iorwf	??___fleq,w
  5623  1B6C  1D03               	skipz
  5624  1B6D  2B76               	goto	l352
  5625  1B6E  3000               	movlw	0
  5626  1B6F  00BF               	movwf	___fleq@ff2+3
  5627  1B70  3000               	movlw	0
  5628  1B71  00BE               	movwf	___fleq@ff2+2
  5629  1B72  3000               	movlw	0
  5630  1B73  00BD               	movwf	___fleq@ff2+1
  5631  1B74  3000               	movlw	0
  5632  1B75  00BC               	movwf	___fleq@ff2
  5633  1B76                     l352:	
  5634  1B76  083F               	movf	___fleq@ff2+3,w
  5635  1B77  063B               	xorwf	___fleq@ff1+3,w
  5636  1B78  1D03               	skipz
  5637  1B79  2B84               	goto	u3115
  5638  1B7A  083E               	movf	___fleq@ff2+2,w
  5639  1B7B  063A               	xorwf	___fleq@ff1+2,w
  5640  1B7C  1D03               	skipz
  5641  1B7D  2B84               	goto	u3115
  5642  1B7E  083D               	movf	___fleq@ff2+1,w
  5643  1B7F  0639               	xorwf	___fleq@ff1+1,w
  5644  1B80  1D03               	skipz
  5645  1B81  2B84               	goto	u3115
  5646  1B82  083C               	movf	___fleq@ff2,w
  5647  1B83  0638               	xorwf	___fleq@ff1,w
  5648  1B84                     u3115:	
  5649  1B84  1903               	skipnz
  5650  1B85  2B88               	goto	l2281
  5651  1B86  1003               	clrc
  5652  1B87  0008               	return
  5653  1B88                     l2281:	
  5654  1B88  1403               	setc
  5655  1B89  0008               	return
  5656  1B8A                     __end_of___fleq:	
  5657                           
  5658                           	psect	text10
  5659  119B                     __ptext10:	
  5660 ;; *************** function ___fldiv *****************
  5661 ;; Defined at:
  5662 ;;		line 8 in file "C:\Program Files (x86)\Microchip\xc8\v2.05\pic\sources\c90\common\sprcdiv.c"
  5663 ;; Parameters:    Size  Location     Type
  5664 ;;  a               4   20[BANK0 ] int 
  5665 ;;  b               4   24[BANK0 ] int 
  5666 ;; Auto vars:     Size  Location     Type
  5667 ;;  grs             4   40[BANK0 ] unsigned long 
  5668 ;;  rem             4   33[BANK0 ] unsigned long 
  5669 ;;  new_exp         2   38[BANK0 ] int 
  5670 ;;  aexp            1   45[BANK0 ] unsigned char 
  5671 ;;  bexp            1   44[BANK0 ] unsigned char 
  5672 ;;  sign            1   37[BANK0 ] unsigned char 
  5673 ;; Return value:  Size  Location     Type
  5674 ;;                  4   20[BANK0 ] unsigned char 
  5675 ;; Registers used:
  5676 ;;		wreg, status,2, status,0, btemp+1
  5677 ;; Tracked objects:
  5678 ;;		On entry : 0/0
  5679 ;;		On exit  : 0/0
  5680 ;;		Unchanged: 0/0
  5681 ;; Data sizes:     COMMON   BANK0   BANK1   BANK3   BANK2
  5682 ;;      Params:         0       8       0       0       0
  5683 ;;      Locals:         0      13       0       0       0
  5684 ;;      Temps:          0       5       0       0       0
  5685 ;;      Totals:         0      26       0       0       0
  5686 ;;Total ram usage:       26 bytes
  5687 ;; Hardware stack levels used:    1
  5688 ;; This function calls:
  5689 ;;		Nothing
  5690 ;; This function is called by:
  5691 ;;		_main
  5692 ;;		_asin
  5693 ;;		_atan
  5694 ;; This function uses a non-reentrant model
  5695 ;;
  5696                           
  5697                           
  5698                           ;psect for function ___fldiv
  5699  119B                     ___fldiv:	
  5700                           
  5701                           ;incstack = 0
  5702                           ; Regs used in ___fldiv: [wreg+status,2+status,0+btemp+1]
  5703  119B  1283               	bcf	3,5	;RP0=0, select bank0
  5704  119C  1303               	bcf	3,6	;RP1=0, select bank0
  5705  119D  083B               	movf	___fldiv@b+3,w
  5706  119E  3980               	andlw	128
  5707  119F  00BC               	movwf	??___fldiv
  5708  11A0  083C               	movf	??___fldiv,w
  5709  11A1  00C5               	movwf	___fldiv@sign
  5710  11A2  083B               	movf	___fldiv@b+3,w
  5711  11A3  00BC               	movwf	??___fldiv
  5712  11A4  073C               	addwf	??___fldiv,w
  5713  11A5  00BD               	movwf	??___fldiv+1
  5714  11A6  083D               	movf	??___fldiv+1,w
  5715  11A7  00CC               	movwf	___fldiv@bexp
  5716  11A8  1BBA               	btfsc	___fldiv@b+2,7
  5717  11A9  144C               	bsf	___fldiv@bexp,0
  5718  11AA  084C               	movf	___fldiv@bexp,w
  5719  11AB  1903               	btfsc	3,2
  5720  11AC  29BB               	goto	l2309
  5721  11AD  0A4C               	incf	___fldiv@bexp,w
  5722  11AE  1D03               	btfss	3,2
  5723  11AF  29B8               	goto	l2305
  5724  11B0  3000               	movlw	0
  5725  11B1  00BB               	movwf	___fldiv@b+3
  5726  11B2  3000               	movlw	0
  5727  11B3  00BA               	movwf	___fldiv@b+2
  5728  11B4  3000               	movlw	0
  5729  11B5  00B9               	movwf	___fldiv@b+1
  5730  11B6  3000               	movlw	0
  5731  11B7  00B8               	movwf	___fldiv@b
  5732  11B8                     l2305:	
  5733  11B8  17BA               	bsf	___fldiv@b+2,7
  5734  11B9  01BB               	clrf	___fldiv@b+3
  5735  11BA  29C3               	goto	l2311
  5736  11BB                     l2309:	
  5737  11BB  3000               	movlw	0
  5738  11BC  00BB               	movwf	___fldiv@b+3
  5739  11BD  3000               	movlw	0
  5740  11BE  00BA               	movwf	___fldiv@b+2
  5741  11BF  3000               	movlw	0
  5742  11C0  00B9               	movwf	___fldiv@b+1
  5743  11C1  3000               	movlw	0
  5744  11C2  00B8               	movwf	___fldiv@b
  5745  11C3                     l2311:	
  5746  11C3  0837               	movf	___fldiv@a+3,w
  5747  11C4  3980               	andlw	128
  5748  11C5  00BC               	movwf	??___fldiv
  5749  11C6  083C               	movf	??___fldiv,w
  5750  11C7  06C5               	xorwf	___fldiv@sign,f
  5751  11C8  0837               	movf	___fldiv@a+3,w
  5752  11C9  00BC               	movwf	??___fldiv
  5753  11CA  073C               	addwf	??___fldiv,w
  5754  11CB  00BD               	movwf	??___fldiv+1
  5755  11CC  083D               	movf	??___fldiv+1,w
  5756  11CD  00CD               	movwf	___fldiv@aexp
  5757  11CE  1BB6               	btfsc	___fldiv@a+2,7
  5758  11CF  144D               	bsf	___fldiv@aexp,0
  5759  11D0  084D               	movf	___fldiv@aexp,w
  5760  11D1  1903               	btfsc	3,2
  5761  11D2  29E1               	goto	l2329
  5762  11D3  0A4D               	incf	___fldiv@aexp,w
  5763  11D4  1D03               	btfss	3,2
  5764  11D5  29DE               	goto	l2325
  5765  11D6  3000               	movlw	0
  5766  11D7  00B7               	movwf	___fldiv@a+3
  5767  11D8  3000               	movlw	0
  5768  11D9  00B6               	movwf	___fldiv@a+2
  5769  11DA  3000               	movlw	0
  5770  11DB  00B5               	movwf	___fldiv@a+1
  5771  11DC  3000               	movlw	0
  5772  11DD  00B4               	movwf	___fldiv@a
  5773  11DE                     l2325:	
  5774  11DE  17B6               	bsf	___fldiv@a+2,7
  5775  11DF  01B7               	clrf	___fldiv@a+3
  5776  11E0  29E9               	goto	l531
  5777  11E1                     l2329:	
  5778  11E1  3000               	movlw	0
  5779  11E2  00B7               	movwf	___fldiv@a+3
  5780  11E3  3000               	movlw	0
  5781  11E4  00B6               	movwf	___fldiv@a+2
  5782  11E5  3000               	movlw	0
  5783  11E6  00B5               	movwf	___fldiv@a+1
  5784  11E7  3000               	movlw	0
  5785  11E8  00B4               	movwf	___fldiv@a
  5786  11E9                     l531:	
  5787  11E9  0837               	movf	___fldiv@a+3,w
  5788  11EA  0436               	iorwf	___fldiv@a+2,w
  5789  11EB  0435               	iorwf	___fldiv@a+1,w
  5790  11EC  0434               	iorwf	___fldiv@a,w
  5791  11ED  1D03               	skipz
  5792  11EE  2A08               	goto	l2339
  5793  11EF  3000               	movlw	0
  5794  11F0  00BB               	movwf	___fldiv@b+3
  5795  11F1  3000               	movlw	0
  5796  11F2  00BA               	movwf	___fldiv@b+2
  5797  11F3  3000               	movlw	0
  5798  11F4  00B9               	movwf	___fldiv@b+1
  5799  11F5  3000               	movlw	0
  5800  11F6  00B8               	movwf	___fldiv@b
  5801  11F7  3080               	movlw	128
  5802  11F8  04BA               	iorwf	___fldiv@b+2,f
  5803  11F9  307F               	movlw	127
  5804  11FA  04BB               	iorwf	___fldiv@b+3,f
  5805  11FB                     L3:	
  5806  11FB  0845               	movf	___fldiv@sign,w
  5807  11FC  00BC               	movwf	??___fldiv
  5808  11FD  083C               	movf	??___fldiv,w
  5809  11FE  04BB               	iorwf	___fldiv@b+3,f
  5810  11FF  083B               	movf	___fldiv@b+3,w
  5811  1200  00B7               	movwf	?___fldiv+3
  5812  1201  083A               	movf	___fldiv@b+2,w
  5813  1202  00B6               	movwf	?___fldiv+2
  5814  1203  0839               	movf	___fldiv@b+1,w
  5815  1204  00B5               	movwf	?___fldiv+1
  5816  1205  0838               	movf	___fldiv@b,w
  5817  1206  00B4               	movwf	?___fldiv
  5818  1207  0008               	return
  5819  1208                     l2339:	
  5820  1208  084C               	movf	___fldiv@bexp,w
  5821  1209  1D03               	btfss	3,2
  5822  120A  2A14               	goto	l2345
  5823  120B  3000               	movlw	0
  5824  120C  00B7               	movwf	?___fldiv+3
  5825  120D  3000               	movlw	0
  5826  120E  00B6               	movwf	?___fldiv+2
  5827  120F  3000               	movlw	0
  5828  1210  00B5               	movwf	?___fldiv+1
  5829  1211  3000               	movlw	0
  5830  1212  00B4               	movwf	?___fldiv
  5831  1213  0008               	return
  5832  1214                     l2345:	
  5833  1214  084C               	movf	___fldiv@bexp,w
  5834  1215  00BC               	movwf	??___fldiv
  5835  1216  01BD               	clrf	??___fldiv+1
  5836  1217  083D               	movf	??___fldiv+1,w
  5837  1218  00BF               	movwf	??___fldiv+3
  5838  1219  084D               	movf	___fldiv@aexp,w
  5839  121A  023C               	subwf	??___fldiv,w
  5840  121B  00BE               	movwf	??___fldiv+2
  5841  121C  1C03               	skipc
  5842  121D  03BF               	decf	??___fldiv+3,f
  5843  121E  083E               	movf	??___fldiv+2,w
  5844  121F  3E7F               	addlw	127
  5845  1220  00C6               	movwf	___fldiv@new_exp
  5846  1221  083F               	movf	??___fldiv+3,w
  5847  1222  1803               	skipnc
  5848  1223  3E01               	addlw	1
  5849  1224  3E00               	addlw	0
  5850  1225  00C7               	movwf	___fldiv@new_exp+1
  5851  1226  083B               	movf	___fldiv@b+3,w
  5852  1227  00C4               	movwf	___fldiv@rem+3
  5853  1228  083A               	movf	___fldiv@b+2,w
  5854  1229  00C3               	movwf	___fldiv@rem+2
  5855  122A  0839               	movf	___fldiv@b+1,w
  5856  122B  00C2               	movwf	___fldiv@rem+1
  5857  122C  0838               	movf	___fldiv@b,w
  5858  122D  00C1               	movwf	___fldiv@rem
  5859  122E  3000               	movlw	0
  5860  122F  00BB               	movwf	___fldiv@b+3
  5861  1230  3000               	movlw	0
  5862  1231  00BA               	movwf	___fldiv@b+2
  5863  1232  3000               	movlw	0
  5864  1233  00B9               	movwf	___fldiv@b+1
  5865  1234  3000               	movlw	0
  5866  1235  00B8               	movwf	___fldiv@b
  5867  1236  3000               	movlw	0
  5868  1237  00CB               	movwf	___fldiv@grs+3
  5869  1238  3000               	movlw	0
  5870  1239  00CA               	movwf	___fldiv@grs+2
  5871  123A  3000               	movlw	0
  5872  123B  00C9               	movwf	___fldiv@grs+1
  5873  123C  3000               	movlw	0
  5874  123D  00C8               	movwf	___fldiv@grs
  5875  123E  01CD               	clrf	___fldiv@aexp
  5876  123F                     l2373:	
  5877  123F  301A               	movlw	26
  5878  1240  024D               	subwf	___fldiv@aexp,w
  5879  1241  1803               	btfsc	3,0
  5880  1242  2A87               	goto	l2375
  5881  1243  084D               	movf	___fldiv@aexp,w
  5882  1244  1903               	btfsc	3,2
  5883  1245  2A63               	goto	l2365
  5884  1246  3001               	movlw	1
  5885  1247  00BC               	movwf	??___fldiv
  5886  1248                     u3215:	
  5887  1248  1003               	clrc
  5888  1249  0DC1               	rlf	___fldiv@rem,f
  5889  124A  0DC2               	rlf	___fldiv@rem+1,f
  5890  124B  0DC3               	rlf	___fldiv@rem+2,f
  5891  124C  0DC4               	rlf	___fldiv@rem+3,f
  5892  124D  0BBC               	decfsz	??___fldiv,f
  5893  124E  2A48               	goto	u3215
  5894  124F  3001               	movlw	1
  5895  1250  00BC               	movwf	??___fldiv
  5896  1251                     u3225:	
  5897  1251  1003               	clrc
  5898  1252  0DB8               	rlf	___fldiv@b,f
  5899  1253  0DB9               	rlf	___fldiv@b+1,f
  5900  1254  0DBA               	rlf	___fldiv@b+2,f
  5901  1255  0DBB               	rlf	___fldiv@b+3,f
  5902  1256  0BBC               	decfsz	??___fldiv,f
  5903  1257  2A51               	goto	u3225
  5904  1258  1BCB               	btfsc	___fldiv@grs+3,7
  5905  1259  1438               	bsf	___fldiv@b,0
  5906  125A  3001               	movlw	1
  5907  125B  00BC               	movwf	??___fldiv
  5908  125C                     u3245:	
  5909  125C  1003               	clrc
  5910  125D  0DC8               	rlf	___fldiv@grs,f
  5911  125E  0DC9               	rlf	___fldiv@grs+1,f
  5912  125F  0DCA               	rlf	___fldiv@grs+2,f
  5913  1260  0DCB               	rlf	___fldiv@grs+3,f
  5914  1261  0BBC               	decfsz	??___fldiv,f
  5915  1262  2A5C               	goto	u3245
  5916  1263                     l2365:	
  5917  1263  0837               	movf	___fldiv@a+3,w
  5918  1264  0244               	subwf	___fldiv@rem+3,w
  5919  1265  1D03               	skipz
  5920  1266  2A71               	goto	u3255
  5921  1267  0836               	movf	___fldiv@a+2,w
  5922  1268  0243               	subwf	___fldiv@rem+2,w
  5923  1269  1D03               	skipz
  5924  126A  2A71               	goto	u3255
  5925  126B  0835               	movf	___fldiv@a+1,w
  5926  126C  0242               	subwf	___fldiv@rem+1,w
  5927  126D  1D03               	skipz
  5928  126E  2A71               	goto	u3255
  5929  126F  0834               	movf	___fldiv@a,w
  5930  1270  0241               	subwf	___fldiv@rem,w
  5931  1271                     u3255:	
  5932  1271  1C03               	skipc
  5933  1272  2A82               	goto	l2371
  5934  1273  174B               	bsf	___fldiv@grs+3,6
  5935  1274  0834               	movf	___fldiv@a,w
  5936  1275  02C1               	subwf	___fldiv@rem,f
  5937  1276  0835               	movf	___fldiv@a+1,w
  5938  1277  1C03               	skipc
  5939  1278  0F35               	incfsz	___fldiv@a+1,w
  5940  1279  02C2               	subwf	___fldiv@rem+1,f
  5941  127A  0836               	movf	___fldiv@a+2,w
  5942  127B  1C03               	skipc
  5943  127C  0F36               	incfsz	___fldiv@a+2,w
  5944  127D  02C3               	subwf	___fldiv@rem+2,f
  5945  127E  0837               	movf	___fldiv@a+3,w
  5946  127F  1C03               	skipc
  5947  1280  0F37               	incfsz	___fldiv@a+3,w
  5948  1281  02C4               	subwf	___fldiv@rem+3,f
  5949  1282                     l2371:	
  5950  1282  3001               	movlw	1
  5951  1283  00BC               	movwf	??___fldiv
  5952  1284  083C               	movf	??___fldiv,w
  5953  1285  07CD               	addwf	___fldiv@aexp,f
  5954  1286  2A3F               	goto	l2373
  5955  1287                     l2375:	
  5956  1287  0844               	movf	___fldiv@rem+3,w
  5957  1288  0443               	iorwf	___fldiv@rem+2,w
  5958  1289  0442               	iorwf	___fldiv@rem+1,w
  5959  128A  0441               	iorwf	___fldiv@rem,w
  5960  128B  1D03               	btfss	3,2
  5961  128C  1448               	bsf	___fldiv@grs,0
  5962  128D                     l2389:	
  5963  128D  1BBA               	btfsc	___fldiv@b+2,7
  5964  128E  2AAA               	goto	l2391
  5965  128F  3001               	movlw	1
  5966  1290  00BC               	movwf	??___fldiv
  5967  1291                     u3285:	
  5968  1291  1003               	clrc
  5969  1292  0DB8               	rlf	___fldiv@b,f
  5970  1293  0DB9               	rlf	___fldiv@b+1,f
  5971  1294  0DBA               	rlf	___fldiv@b+2,f
  5972  1295  0DBB               	rlf	___fldiv@b+3,f
  5973  1296  0BBC               	decfsz	??___fldiv,f
  5974  1297  2A91               	goto	u3285
  5975  1298  1BCB               	btfsc	___fldiv@grs+3,7
  5976  1299  1438               	bsf	___fldiv@b,0
  5977  129A  3001               	movlw	1
  5978  129B  00BC               	movwf	??___fldiv
  5979  129C                     u3305:	
  5980  129C  1003               	clrc
  5981  129D  0DC8               	rlf	___fldiv@grs,f
  5982  129E  0DC9               	rlf	___fldiv@grs+1,f
  5983  129F  0DCA               	rlf	___fldiv@grs+2,f
  5984  12A0  0DCB               	rlf	___fldiv@grs+3,f
  5985  12A1  0BBC               	decfsz	??___fldiv,f
  5986  12A2  2A9C               	goto	u3305
  5987  12A3  30FF               	movlw	255
  5988  12A4  07C6               	addwf	___fldiv@new_exp,f
  5989  12A5  1803               	skipnc
  5990  12A6  0AC7               	incf	___fldiv@new_exp+1,f
  5991  12A7  30FF               	movlw	255
  5992  12A8  07C7               	addwf	___fldiv@new_exp+1,f
  5993  12A9  2A8D               	goto	l2389
  5994  12AA                     l2391:	
  5995  12AA  01CD               	clrf	___fldiv@aexp
  5996  12AB  1FCB               	btfss	___fldiv@grs+3,7
  5997  12AC  2AC3               	goto	l2401
  5998  12AD  30FF               	movlw	255
  5999  12AE  0548               	andwf	___fldiv@grs,w
  6000  12AF  00BC               	movwf	??___fldiv
  6001  12B0  30FF               	movlw	255
  6002  12B1  0549               	andwf	___fldiv@grs+1,w
  6003  12B2  00BD               	movwf	??___fldiv+1
  6004  12B3  30FF               	movlw	255
  6005  12B4  054A               	andwf	___fldiv@grs+2,w
  6006  12B5  00BE               	movwf	??___fldiv+2
  6007  12B6  307F               	movlw	127
  6008  12B7  054B               	andwf	___fldiv@grs+3,w
  6009  12B8  00BF               	movwf	??___fldiv+3
  6010  12B9  083F               	movf	??___fldiv+3,w
  6011  12BA  043E               	iorwf	??___fldiv+2,w
  6012  12BB  043D               	iorwf	??___fldiv+1,w
  6013  12BC  043C               	iorwf	??___fldiv,w
  6014  12BD  1903               	skipnz
  6015  12BE  1838               	btfsc	___fldiv@b,0
  6016  12BF  2AC1               	goto	l2397
  6017  12C0  2AC3               	goto	l2401
  6018  12C1                     l2397:	
  6019  12C1  01CD               	clrf	___fldiv@aexp
  6020  12C2  0ACD               	incf	___fldiv@aexp,f
  6021  12C3                     l2401:	
  6022  12C3  084D               	movf	___fldiv@aexp,w
  6023  12C4  1903               	btfsc	3,2
  6024  12C5  2AF5               	goto	l2411
  6025  12C6  3001               	movlw	1
  6026  12C7  07B8               	addwf	___fldiv@b,f
  6027  12C8  3000               	movlw	0
  6028  12C9  1803               	skipnc
  6029  12CA  3001               	movlw	1
  6030  12CB  07B9               	addwf	___fldiv@b+1,f
  6031  12CC  3000               	movlw	0
  6032  12CD  1803               	skipnc
  6033  12CE  3001               	movlw	1
  6034  12CF  07BA               	addwf	___fldiv@b+2,f
  6035  12D0  3000               	movlw	0
  6036  12D1  1803               	skipnc
  6037  12D2  3001               	movlw	1
  6038  12D3  07BB               	addwf	___fldiv@b+3,f
  6039  12D4  1C3B               	btfss	___fldiv@b+3,0
  6040  12D5  2AF5               	goto	l2411
  6041  12D6  0838               	movf	___fldiv@b,w
  6042  12D7  00BC               	movwf	??___fldiv
  6043  12D8  0839               	movf	___fldiv@b+1,w
  6044  12D9  00BD               	movwf	??___fldiv+1
  6045  12DA  083A               	movf	___fldiv@b+2,w
  6046  12DB  00BE               	movwf	??___fldiv+2
  6047  12DC  083B               	movf	___fldiv@b+3,w
  6048  12DD  00BF               	movwf	??___fldiv+3
  6049  12DE  3001               	movlw	1
  6050  12DF  00C0               	movwf	??___fldiv+4
  6051  12E0                     u3375:	
  6052  12E0  0D3F               	rlf	??___fldiv+3,w
  6053  12E1  0CBF               	rrf	??___fldiv+3,f
  6054  12E2  0CBE               	rrf	??___fldiv+2,f
  6055  12E3  0CBD               	rrf	??___fldiv+1,f
  6056  12E4  0CBC               	rrf	??___fldiv,f
  6057  12E5  0BC0               	decfsz	??___fldiv+4,f
  6058  12E6  2AE0               	goto	u3375
  6059  12E7  083F               	movf	??___fldiv+3,w
  6060  12E8  00BB               	movwf	___fldiv@b+3
  6061  12E9  083E               	movf	??___fldiv+2,w
  6062  12EA  00BA               	movwf	___fldiv@b+2
  6063  12EB  083D               	movf	??___fldiv+1,w
  6064  12EC  00B9               	movwf	___fldiv@b+1
  6065  12ED  083C               	movf	??___fldiv,w
  6066  12EE  00B8               	movwf	___fldiv@b
  6067  12EF  3001               	movlw	1
  6068  12F0  07C6               	addwf	___fldiv@new_exp,f
  6069  12F1  1803               	skipnc
  6070  12F2  0AC7               	incf	___fldiv@new_exp+1,f
  6071  12F3  3000               	movlw	0
  6072  12F4  07C7               	addwf	___fldiv@new_exp+1,f
  6073  12F5                     l2411:	
  6074  12F5  0847               	movf	___fldiv@new_exp+1,w
  6075  12F6  3A80               	xorlw	128
  6076  12F7  00FF               	movwf	127
  6077  12F8  3080               	movlw	128
  6078  12F9  027F               	subwf	127,w
  6079  12FA  1D03               	skipz
  6080  12FB  2AFE               	goto	u3385
  6081  12FC  30FF               	movlw	255
  6082  12FD  0246               	subwf	___fldiv@new_exp,w
  6083  12FE                     u3385:	
  6084  12FE  1C03               	skipc
  6085  12FF  2B0E               	goto	l2415
  6086  1300  30FF               	movlw	255
  6087  1301  1283               	bcf	3,5	;RP0=0, select bank0
  6088  1302  1303               	bcf	3,6	;RP1=0, select bank0
  6089  1303  00C6               	movwf	___fldiv@new_exp
  6090  1304  3000               	movlw	0
  6091  1305  00C7               	movwf	___fldiv@new_exp+1
  6092  1306  3000               	movlw	0
  6093  1307  00BB               	movwf	___fldiv@b+3
  6094  1308  3000               	movlw	0
  6095  1309  00BA               	movwf	___fldiv@b+2
  6096  130A  3000               	movlw	0
  6097  130B  00B9               	movwf	___fldiv@b+1
  6098  130C  3000               	movlw	0
  6099  130D  00B8               	movwf	___fldiv@b
  6100  130E                     l2415:	
  6101  130E  1283               	bcf	3,5	;RP0=0, select bank0
  6102  130F  1303               	bcf	3,6	;RP1=0, select bank0
  6103  1310  0847               	movf	___fldiv@new_exp+1,w
  6104  1311  3A80               	xorlw	128
  6105  1312  00FF               	movwf	127
  6106  1313  3080               	movlw	128
  6107  1314  027F               	subwf	127,w
  6108  1315  1D03               	skipz
  6109  1316  2B19               	goto	u3395
  6110  1317  3001               	movlw	1
  6111  1318  0246               	subwf	___fldiv@new_exp,w
  6112  1319                     u3395:	
  6113  1319  1803               	skipnc
  6114  131A  2B28               	goto	l553
  6115  131B  1283               	bcf	3,5	;RP0=0, select bank0
  6116  131C  1303               	bcf	3,6	;RP1=0, select bank0
  6117  131D  01C6               	clrf	___fldiv@new_exp
  6118  131E  01C7               	clrf	___fldiv@new_exp+1
  6119  131F  3000               	movlw	0
  6120  1320  00BB               	movwf	___fldiv@b+3
  6121  1321  3000               	movlw	0
  6122  1322  00BA               	movwf	___fldiv@b+2
  6123  1323  3000               	movlw	0
  6124  1324  00B9               	movwf	___fldiv@b+1
  6125  1325  3000               	movlw	0
  6126  1326  00B8               	movwf	___fldiv@b
  6127  1327  01C5               	clrf	___fldiv@sign
  6128  1328                     l553:	
  6129  1328  1283               	bcf	3,5	;RP0=0, select bank0
  6130  1329  1303               	bcf	3,6	;RP1=0, select bank0
  6131  132A  0846               	movf	___fldiv@new_exp,w
  6132  132B  00BC               	movwf	??___fldiv
  6133  132C  083C               	movf	??___fldiv,w
  6134  132D  00CC               	movwf	___fldiv@bexp
  6135  132E  1C4C               	btfss	___fldiv@bexp,0
  6136  132F  2B32               	goto	l2427
  6137  1330  17BA               	bsf	___fldiv@b+2,7
  6138  1331  2B36               	goto	l555
  6139  1332                     l2427:	
  6140  1332  307F               	movlw	127
  6141  1333  00BC               	movwf	??___fldiv
  6142  1334  083C               	movf	??___fldiv,w
  6143  1335  05BA               	andwf	___fldiv@b+2,f
  6144  1336                     l555:	
  6145  1336  084C               	movf	___fldiv@bexp,w
  6146  1337  00BC               	movwf	??___fldiv
  6147  1338  1003               	clrc
  6148  1339  0C3C               	rrf	??___fldiv,w
  6149  133A  00BD               	movwf	??___fldiv+1
  6150  133B  083D               	movf	??___fldiv+1,w
  6151  133C  00BB               	movwf	___fldiv@b+3
  6152  133D  29FB               	goto	L3
  6153  133E                     __end_of___fldiv:	
  6154                           
  6155                           	psect	text11
  6156  1ADF                     __ptext11:	
  6157 ;; *************** function _UART_send_string *****************
  6158 ;; Defined at:
  6159 ;;		line 90 in file "sun_usart.c"
  6160 ;; Parameters:    Size  Location     Type
  6161 ;;  st_pt           1    wreg     PTR unsigned char 
  6162 ;;		 -> STR_14(2), STR_13(13), STR_12(2), STR_11(14), 
  6163 ;;		 -> STR_10(2), STR_9(10), STR_8(2), STR_7(10), 
  6164 ;;		 -> STR_6(2), STR_5(10), STR_4(2), STR_3(22), 
  6165 ;;		 -> STR_2(2), STR_1(35), 
  6166 ;; Auto vars:     Size  Location     Type
  6167 ;;  st_pt           1    2[COMMON] PTR unsigned char 
  6168 ;;		 -> STR_14(2), STR_13(13), STR_12(2), STR_11(14), 
  6169 ;;		 -> STR_10(2), STR_9(10), STR_8(2), STR_7(10), 
  6170 ;;		 -> STR_6(2), STR_5(10), STR_4(2), STR_3(22), 
  6171 ;;		 -> STR_2(2), STR_1(35), 
  6172 ;; Return value:  Size  Location     Type
  6173 ;;                  1    wreg      void 
  6174 ;; Registers used:
  6175 ;;		wreg, fsr0l, fsr0h, status,2, status,0, pclath, cstack
  6176 ;; Tracked objects:
  6177 ;;		On entry : 0/0
  6178 ;;		On exit  : 0/0
  6179 ;;		Unchanged: 0/0
  6180 ;; Data sizes:     COMMON   BANK0   BANK1   BANK3   BANK2
  6181 ;;      Params:         0       0       0       0       0
  6182 ;;      Locals:         1       0       0       0       0
  6183 ;;      Temps:          1       0       0       0       0
  6184 ;;      Totals:         2       0       0       0       0
  6185 ;;Total ram usage:        2 bytes
  6186 ;; Hardware stack levels used:    1
  6187 ;; Hardware stack levels required when called:    1
  6188 ;; This function calls:
  6189 ;;		_UART_send_char
  6190 ;; This function is called by:
  6191 ;;		_main
  6192 ;; This function uses a non-reentrant model
  6193 ;;
  6194                           
  6195                           
  6196                           ;psect for function _UART_send_string
  6197  1ADF                     _UART_send_string:	
  6198                           
  6199                           ;incstack = 0
  6200                           ; Regs used in _UART_send_string: [wreg-fsr0h+status,2+status,0+pclath+cstack]
  6201                           ;UART_send_string@st_pt stored from wreg
  6202  1ADF  00F2               	movwf	UART_send_string@st_pt
  6203  1AE0                     l2809:	
  6204                           ;sun_usart.c: 90: void UART_send_string(char* st_pt);sun_usart.c: 91: {;sun_usart.c: 92:
      +                               while(*st_pt)
  6205                           
  6206                           
  6207                           ;sun_usart.c: 92:     while(*st_pt)
  6208  1AE0  0872               	movf	UART_send_string@st_pt,w
  6209  1AE1  0084               	movwf	4
  6210  1AE2  160A  158A  2000  160A  158A  	fcall	stringdir
  6211  1AE7  3A00               	xorlw	0
  6212  1AE8  1903               	btfsc	3,2
  6213  1AE9  0008               	return
  6214                           
  6215                           ;sun_usart.c: 93:         UART_send_char(*st_pt++);
  6216  1AEA  0872               	movf	UART_send_string@st_pt,w
  6217  1AEB  0084               	movwf	4
  6218  1AEC  160A  158A  2000  160A  158A  	fcall	stringdir
  6219  1AF1  120A  118A  2004  160A  158A  	fcall	_UART_send_char
  6220  1AF6  3001               	movlw	1
  6221  1AF7  00F1               	movwf	??_UART_send_string
  6222  1AF8  0871               	movf	??_UART_send_string,w
  6223  1AF9  07F2               	addwf	UART_send_string@st_pt,f
  6224  1AFA  2AE0               	goto	l2809
  6225  1AFB                     __end_of_UART_send_string:	
  6226                           
  6227                           	psect	text12
  6228  1ED8                     __ptext12:	
  6229 ;; *************** function _UART_send_float *****************
  6230 ;; Defined at:
  6231 ;;		line 95 in file "sun_usart.c"
  6232 ;; Parameters:    Size  Location     Type
  6233 ;;  bt              4    5[BANK1 ] float 
  6234 ;; Auto vars:     Size  Location     Type
  6235 ;;  f               4    9[BANK1 ] float 
  6236 ;;  ival            2   19[BANK1 ] int 
  6237 ;;  fval            2   17[BANK1 ] int 
  6238 ;;  fval1           2   15[BANK1 ] int 
  6239 ;;  ival1           2   13[BANK1 ] int 
  6240 ;; Return value:  Size  Location     Type
  6241 ;;                  1    wreg      void 
  6242 ;; Registers used:
  6243 ;;		wreg, status,2, status,0, btemp+1, pclath, cstack
  6244 ;; Tracked objects:
  6245 ;;		On entry : 0/0
  6246 ;;		On exit  : 0/0
  6247 ;;		Unchanged: 0/0
  6248 ;; Data sizes:     COMMON   BANK0   BANK1   BANK3   BANK2
  6249 ;;      Params:         0       0       4       0       0
  6250 ;;      Locals:         0       0      12       0       0
  6251 ;;      Temps:          0       0       0       0       0
  6252 ;;      Totals:         0       0      16       0       0
  6253 ;;Total ram usage:       16 bytes
  6254 ;; Hardware stack levels used:    1
  6255 ;; Hardware stack levels required when called:    2
  6256 ;; This function calls:
  6257 ;;		_UART_send_char
  6258 ;;		___awdiv
  6259 ;;		___awmod
  6260 ;;		___flmul
  6261 ;;		___flsub
  6262 ;;		___fltol
  6263 ;;		___xxtofl
  6264 ;; This function is called by:
  6265 ;;		_main
  6266 ;; This function uses a non-reentrant model
  6267 ;;
  6268                           
  6269                           
  6270                           ;psect for function _UART_send_float
  6271  1ED8                     _UART_send_float:	
  6272                           
  6273                           ;sun_usart.c: 95: void UART_send_float( float bt);sun_usart.c: 96: {;sun_usart.c: 97:  i
      +                          nt ival=(int)bt;
  6274                           
  6275                           ;incstack = 0
  6276                           ; Regs used in _UART_send_float: [wreg+status,2+status,0+btemp+1+pclath+cstack]
  6277  1ED8  1683               	bsf	3,5	;RP0=1, select bank1
  6278  1ED9  1303               	bcf	3,6	;RP1=0, select bank1
  6279  1EDA  0828               	movf	(UART_send_float@bt+3)^(0+128),w
  6280  1EDB  1283               	bcf	3,5	;RP0=0, select bank0
  6281  1EDC  1303               	bcf	3,6	;RP1=0, select bank0
  6282  1EDD  00EB               	movwf	___fltol@f1+3
  6283  1EDE  1683               	bsf	3,5	;RP0=1, select bank1
  6284  1EDF  1303               	bcf	3,6	;RP1=0, select bank1
  6285  1EE0  0827               	movf	(UART_send_float@bt+2)^(0+128),w
  6286  1EE1  1283               	bcf	3,5	;RP0=0, select bank0
  6287  1EE2  1303               	bcf	3,6	;RP1=0, select bank0
  6288  1EE3  00EA               	movwf	___fltol@f1+2
  6289  1EE4  1683               	bsf	3,5	;RP0=1, select bank1
  6290  1EE5  1303               	bcf	3,6	;RP1=0, select bank1
  6291  1EE6  0826               	movf	(UART_send_float@bt+1)^(0+128),w
  6292  1EE7  1283               	bcf	3,5	;RP0=0, select bank0
  6293  1EE8  1303               	bcf	3,6	;RP1=0, select bank0
  6294  1EE9  00E9               	movwf	___fltol@f1+1
  6295  1EEA  1683               	bsf	3,5	;RP0=1, select bank1
  6296  1EEB  1303               	bcf	3,6	;RP1=0, select bank1
  6297  1EEC  0825               	movf	UART_send_float@bt^(0+128),w
  6298  1EED  1283               	bcf	3,5	;RP0=0, select bank0
  6299  1EEE  1303               	bcf	3,6	;RP1=0, select bank0
  6300  1EEF  00E8               	movwf	___fltol@f1
  6301  1EF0  160A  158A  242E  160A  158A  	fcall	___fltol
  6302  1EF5  1283               	bcf	3,5	;RP0=0, select bank0
  6303  1EF6  1303               	bcf	3,6	;RP1=0, select bank0
  6304  1EF7  0869               	movf	?___fltol+1,w
  6305  1EF8  1683               	bsf	3,5	;RP0=1, select bank1
  6306  1EF9  1303               	bcf	3,6	;RP1=0, select bank1
  6307  1EFA  00B4               	movwf	(UART_send_float@ival+1)^(0+128)
  6308  1EFB  1283               	bcf	3,5	;RP0=0, select bank0
  6309  1EFC  1303               	bcf	3,6	;RP1=0, select bank0
  6310  1EFD  0868               	movf	?___fltol,w
  6311  1EFE  1683               	bsf	3,5	;RP0=1, select bank1
  6312  1EFF  1303               	bcf	3,6	;RP1=0, select bank1
  6313  1F00  00B3               	movwf	UART_send_float@ival^(0+128)
  6314                           
  6315                           ;sun_usart.c: 98:  float f=bt-ival;
  6316  1F01  0833               	movf	UART_send_float@ival^(0+128),w
  6317  1F02  00F5               	movwf	___xxtofl@val
  6318  1F03  0834               	movf	(UART_send_float@ival+1)^(0+128),w
  6319  1F04  00F6               	movwf	___xxtofl@val+1
  6320  1F05  3000               	movlw	0
  6321  1F06  1BF6               	btfsc	___xxtofl@val+1,7
  6322  1F07  30FF               	movlw	255
  6323  1F08  00F7               	movwf	___xxtofl@val+2
  6324  1F09  00F8               	movwf	___xxtofl@val+3
  6325  1F0A  3001               	movlw	1
  6326  1F0B  160A  158A  254E  160A  158A  	fcall	___xxtofl
  6327  1F10  0878               	movf	?___xxtofl+3,w
  6328  1F11  1283               	bcf	3,5	;RP0=0, select bank0
  6329  1F12  1303               	bcf	3,6	;RP1=0, select bank0
  6330  1F13  00EB               	movwf	___flsub@a+3
  6331  1F14  0877               	movf	?___xxtofl+2,w
  6332  1F15  00EA               	movwf	___flsub@a+2
  6333  1F16  0876               	movf	?___xxtofl+1,w
  6334  1F17  00E9               	movwf	___flsub@a+1
  6335  1F18  0875               	movf	?___xxtofl,w
  6336  1F19  00E8               	movwf	___flsub@a
  6337  1F1A  1683               	bsf	3,5	;RP0=1, select bank1
  6338  1F1B  1303               	bcf	3,6	;RP1=0, select bank1
  6339  1F1C  0828               	movf	(UART_send_float@bt+3)^(0+128),w
  6340  1F1D  1283               	bcf	3,5	;RP0=0, select bank0
  6341  1F1E  1303               	bcf	3,6	;RP1=0, select bank0
  6342  1F1F  00EF               	movwf	___flsub@b+3
  6343  1F20  1683               	bsf	3,5	;RP0=1, select bank1
  6344  1F21  1303               	bcf	3,6	;RP1=0, select bank1
  6345  1F22  0827               	movf	(UART_send_float@bt+2)^(0+128),w
  6346  1F23  1283               	bcf	3,5	;RP0=0, select bank0
  6347  1F24  1303               	bcf	3,6	;RP1=0, select bank0
  6348  1F25  00EE               	movwf	___flsub@b+2
  6349  1F26  1683               	bsf	3,5	;RP0=1, select bank1
  6350  1F27  1303               	bcf	3,6	;RP1=0, select bank1
  6351  1F28  0826               	movf	(UART_send_float@bt+1)^(0+128),w
  6352  1F29  1283               	bcf	3,5	;RP0=0, select bank0
  6353  1F2A  1303               	bcf	3,6	;RP1=0, select bank0
  6354  1F2B  00ED               	movwf	___flsub@b+1
  6355  1F2C  1683               	bsf	3,5	;RP0=1, select bank1
  6356  1F2D  1303               	bcf	3,6	;RP1=0, select bank1
  6357  1F2E  0825               	movf	UART_send_float@bt^(0+128),w
  6358  1F2F  1283               	bcf	3,5	;RP0=0, select bank0
  6359  1F30  1303               	bcf	3,6	;RP1=0, select bank0
  6360  1F31  00EC               	movwf	___flsub@b
  6361  1F32  160A  158A  22FB  160A  158A  	fcall	___flsub
  6362  1F37  1283               	bcf	3,5	;RP0=0, select bank0
  6363  1F38  1303               	bcf	3,6	;RP1=0, select bank0
  6364  1F39  086B               	movf	?___flsub+3,w
  6365  1F3A  1683               	bsf	3,5	;RP0=1, select bank1
  6366  1F3B  1303               	bcf	3,6	;RP1=0, select bank1
  6367  1F3C  00AC               	movwf	(UART_send_float@f+3)^(0+128)
  6368  1F3D  1283               	bcf	3,5	;RP0=0, select bank0
  6369  1F3E  1303               	bcf	3,6	;RP1=0, select bank0
  6370  1F3F  086A               	movf	?___flsub+2,w
  6371  1F40  1683               	bsf	3,5	;RP0=1, select bank1
  6372  1F41  1303               	bcf	3,6	;RP1=0, select bank1
  6373  1F42  00AB               	movwf	(UART_send_float@f+2)^(0+128)
  6374  1F43  1283               	bcf	3,5	;RP0=0, select bank0
  6375  1F44  1303               	bcf	3,6	;RP1=0, select bank0
  6376  1F45  0869               	movf	?___flsub+1,w
  6377  1F46  1683               	bsf	3,5	;RP0=1, select bank1
  6378  1F47  1303               	bcf	3,6	;RP1=0, select bank1
  6379  1F48  00AA               	movwf	(UART_send_float@f+1)^(0+128)
  6380  1F49  1283               	bcf	3,5	;RP0=0, select bank0
  6381  1F4A  1303               	bcf	3,6	;RP1=0, select bank0
  6382  1F4B  0868               	movf	?___flsub,w
  6383  1F4C  1683               	bsf	3,5	;RP0=1, select bank1
  6384  1F4D  1303               	bcf	3,6	;RP1=0, select bank1
  6385  1F4E  00A9               	movwf	UART_send_float@f^(0+128)
  6386                           
  6387                           ;sun_usart.c: 99:  int fval=f*100;
  6388  1F4F  082C               	movf	(UART_send_float@f+3)^(0+128),w
  6389  1F50  1283               	bcf	3,5	;RP0=0, select bank0
  6390  1F51  1303               	bcf	3,6	;RP1=0, select bank0
  6391  1F52  00D5               	movwf	___flmul@a+3
  6392  1F53  1683               	bsf	3,5	;RP0=1, select bank1
  6393  1F54  1303               	bcf	3,6	;RP1=0, select bank1
  6394  1F55  082B               	movf	(UART_send_float@f+2)^(0+128),w
  6395  1F56  1283               	bcf	3,5	;RP0=0, select bank0
  6396  1F57  1303               	bcf	3,6	;RP1=0, select bank0
  6397  1F58  00D4               	movwf	___flmul@a+2
  6398  1F59  1683               	bsf	3,5	;RP0=1, select bank1
  6399  1F5A  1303               	bcf	3,6	;RP1=0, select bank1
  6400  1F5B  082A               	movf	(UART_send_float@f+1)^(0+128),w
  6401  1F5C  1283               	bcf	3,5	;RP0=0, select bank0
  6402  1F5D  1303               	bcf	3,6	;RP1=0, select bank0
  6403  1F5E  00D3               	movwf	___flmul@a+1
  6404  1F5F  1683               	bsf	3,5	;RP0=1, select bank1
  6405  1F60  1303               	bcf	3,6	;RP1=0, select bank1
  6406  1F61  0829               	movf	UART_send_float@f^(0+128),w
  6407  1F62  1283               	bcf	3,5	;RP0=0, select bank0
  6408  1F63  1303               	bcf	3,6	;RP1=0, select bank0
  6409  1F64  00D2               	movwf	___flmul@a
  6410  1F65  3042               	movlw	66
  6411  1F66  00D1               	movwf	___flmul@b+3
  6412  1F67  30C8               	movlw	200
  6413  1F68  00D0               	movwf	___flmul@b+2
  6414  1F69  3000               	movlw	0
  6415  1F6A  00CF               	movwf	___flmul@b+1
  6416  1F6B  3000               	movlw	0
  6417  1F6C  00CE               	movwf	___flmul@b
  6418  1F6D  120A  158A  24EB  160A  158A  	fcall	___flmul
  6419  1F72  1283               	bcf	3,5	;RP0=0, select bank0
  6420  1F73  1303               	bcf	3,6	;RP1=0, select bank0
  6421  1F74  0851               	movf	?___flmul+3,w
  6422  1F75  00EB               	movwf	___fltol@f1+3
  6423  1F76  0850               	movf	?___flmul+2,w
  6424  1F77  00EA               	movwf	___fltol@f1+2
  6425  1F78  084F               	movf	?___flmul+1,w
  6426  1F79  00E9               	movwf	___fltol@f1+1
  6427  1F7A  084E               	movf	?___flmul,w
  6428  1F7B  00E8               	movwf	___fltol@f1
  6429  1F7C  160A  158A  242E  160A  158A  	fcall	___fltol
  6430  1F81  1283               	bcf	3,5	;RP0=0, select bank0
  6431  1F82  1303               	bcf	3,6	;RP1=0, select bank0
  6432  1F83  0869               	movf	?___fltol+1,w
  6433  1F84  1683               	bsf	3,5	;RP0=1, select bank1
  6434  1F85  1303               	bcf	3,6	;RP1=0, select bank1
  6435  1F86  00B2               	movwf	(UART_send_float@fval+1)^(0+128)
  6436  1F87  1283               	bcf	3,5	;RP0=0, select bank0
  6437  1F88  1303               	bcf	3,6	;RP1=0, select bank0
  6438  1F89  0868               	movf	?___fltol,w
  6439  1F8A  1683               	bsf	3,5	;RP0=1, select bank1
  6440  1F8B  1303               	bcf	3,6	;RP1=0, select bank1
  6441  1F8C  00B1               	movwf	UART_send_float@fval^(0+128)
  6442                           
  6443                           ;sun_usart.c: 100:  int ival1=ival%10;
  6444  1F8D  300A               	movlw	10
  6445  1F8E  00F0               	movwf	___awmod@divisor
  6446  1F8F  3000               	movlw	0
  6447  1F90  00F1               	movwf	___awmod@divisor+1
  6448  1F91  0834               	movf	(UART_send_float@ival+1)^(0+128),w
  6449  1F92  00F3               	movwf	___awmod@dividend+1
  6450  1F93  0833               	movf	UART_send_float@ival^(0+128),w
  6451  1F94  00F2               	movwf	___awmod@dividend
  6452  1F95  160A  158A  238A  160A  158A  	fcall	___awmod
  6453  1F9A  0871               	movf	?___awmod+1,w
  6454  1F9B  1683               	bsf	3,5	;RP0=1, select bank1
  6455  1F9C  1303               	bcf	3,6	;RP1=0, select bank1
  6456  1F9D  00AE               	movwf	(UART_send_float@ival1+1)^(0+128)
  6457  1F9E  0870               	movf	?___awmod,w
  6458  1F9F  00AD               	movwf	UART_send_float@ival1^(0+128)
  6459                           
  6460                           ;sun_usart.c: 101:  ival=ival/10;
  6461  1FA0  300A               	movlw	10
  6462  1FA1  00F0               	movwf	___awdiv@divisor
  6463  1FA2  3000               	movlw	0
  6464  1FA3  00F1               	movwf	___awdiv@divisor+1
  6465  1FA4  0834               	movf	(UART_send_float@ival+1)^(0+128),w
  6466  1FA5  00F3               	movwf	___awdiv@dividend+1
  6467  1FA6  0833               	movf	UART_send_float@ival^(0+128),w
  6468  1FA7  00F2               	movwf	___awdiv@dividend
  6469  1FA8  160A  158A  23D5  160A  158A  	fcall	___awdiv
  6470  1FAD  0871               	movf	?___awdiv+1,w
  6471  1FAE  1683               	bsf	3,5	;RP0=1, select bank1
  6472  1FAF  1303               	bcf	3,6	;RP1=0, select bank1
  6473  1FB0  00B4               	movwf	(UART_send_float@ival+1)^(0+128)
  6474  1FB1  0870               	movf	?___awdiv,w
  6475  1FB2  00B3               	movwf	UART_send_float@ival^(0+128)
  6476                           
  6477                           ;sun_usart.c: 102:  int fval1=fval%10;
  6478  1FB3  300A               	movlw	10
  6479  1FB4  00F0               	movwf	___awmod@divisor
  6480  1FB5  3000               	movlw	0
  6481  1FB6  00F1               	movwf	___awmod@divisor+1
  6482  1FB7  0832               	movf	(UART_send_float@fval+1)^(0+128),w
  6483  1FB8  00F3               	movwf	___awmod@dividend+1
  6484  1FB9  0831               	movf	UART_send_float@fval^(0+128),w
  6485  1FBA  00F2               	movwf	___awmod@dividend
  6486  1FBB  160A  158A  238A  160A  158A  	fcall	___awmod
  6487  1FC0  0871               	movf	?___awmod+1,w
  6488  1FC1  1683               	bsf	3,5	;RP0=1, select bank1
  6489  1FC2  1303               	bcf	3,6	;RP1=0, select bank1
  6490  1FC3  00B0               	movwf	(UART_send_float@fval1+1)^(0+128)
  6491  1FC4  0870               	movf	?___awmod,w
  6492  1FC5  00AF               	movwf	UART_send_float@fval1^(0+128)
  6493                           
  6494                           ;sun_usart.c: 103:  fval=fval/10;
  6495  1FC6  300A               	movlw	10
  6496  1FC7  00F0               	movwf	___awdiv@divisor
  6497  1FC8  3000               	movlw	0
  6498  1FC9  00F1               	movwf	___awdiv@divisor+1
  6499  1FCA  0832               	movf	(UART_send_float@fval+1)^(0+128),w
  6500  1FCB  00F3               	movwf	___awdiv@dividend+1
  6501  1FCC  0831               	movf	UART_send_float@fval^(0+128),w
  6502  1FCD  00F2               	movwf	___awdiv@dividend
  6503  1FCE  160A  158A  23D5  160A  158A  	fcall	___awdiv
  6504  1FD3  0871               	movf	?___awdiv+1,w
  6505  1FD4  1683               	bsf	3,5	;RP0=1, select bank1
  6506  1FD5  1303               	bcf	3,6	;RP1=0, select bank1
  6507  1FD6  00B2               	movwf	(UART_send_float@fval+1)^(0+128)
  6508  1FD7  0870               	movf	?___awdiv,w
  6509  1FD8  00B1               	movwf	UART_send_float@fval^(0+128)
  6510                           
  6511                           ;sun_usart.c: 104:     UART_send_char(48+ival);
  6512  1FD9  0833               	movf	UART_send_float@ival^(0+128),w
  6513  1FDA  3E30               	addlw	48
  6514  1FDB  120A  118A  2004  160A  158A  	fcall	_UART_send_char
  6515                           
  6516                           ;sun_usart.c: 105:  UART_send_char(48+ival1);
  6517  1FE0  1683               	bsf	3,5	;RP0=1, select bank1
  6518  1FE1  1303               	bcf	3,6	;RP1=0, select bank1
  6519  1FE2  082D               	movf	UART_send_float@ival1^(0+128),w
  6520  1FE3  3E30               	addlw	48
  6521  1FE4  120A  118A  2004  160A  158A  	fcall	_UART_send_char
  6522                           
  6523                           ;sun_usart.c: 106:  UART_send_char(46);
  6524  1FE9  302E               	movlw	46
  6525  1FEA  120A  118A  2004  160A  158A  	fcall	_UART_send_char
  6526                           
  6527                           ;sun_usart.c: 107:  UART_send_char(48+fval);
  6528  1FEF  1683               	bsf	3,5	;RP0=1, select bank1
  6529  1FF0  1303               	bcf	3,6	;RP1=0, select bank1
  6530  1FF1  0831               	movf	UART_send_float@fval^(0+128),w
  6531  1FF2  3E30               	addlw	48
  6532  1FF3  120A  118A  2004  160A  158A  	fcall	_UART_send_char
  6533                           
  6534                           ;sun_usart.c: 108:  UART_send_char(48+fval1);
  6535  1FF8  1683               	bsf	3,5	;RP0=1, select bank1
  6536  1FF9  1303               	bcf	3,6	;RP1=0, select bank1
  6537  1FFA  082F               	movf	UART_send_float@fval1^(0+128),w
  6538  1FFB  3E30               	addlw	48
  6539  1FFC  120A  118A  2004   	fcall	_UART_send_char
  6540  1FFF  0008               	return
  6541  2000                     __end_of_UART_send_float:	
  6542                           
  6543                           	psect	text13
  6544  1D4E                     __ptext13:	
  6545 ;; *************** function ___xxtofl *****************
  6546 ;; Defined at:
  6547 ;;		line 10 in file "C:\Program Files (x86)\Microchip\xc8\v2.05\pic\sources\c90\common\xxtofl.c"
  6548 ;; Parameters:    Size  Location     Type
  6549 ;;  sign            1    wreg     unsigned char 
  6550 ;;  val             4    5[COMMON] long 
  6551 ;; Auto vars:     Size  Location     Type
  6552 ;;  sign            1    0[BANK0 ] unsigned char 
  6553 ;;  arg             4    2[BANK0 ] unsigned long 
  6554 ;;  exp             1    1[BANK0 ] unsigned char 
  6555 ;; Return value:  Size  Location     Type
  6556 ;;                  4    5[COMMON] unsigned char 
  6557 ;; Registers used:
  6558 ;;		wreg, status,2, status,0
  6559 ;; Tracked objects:
  6560 ;;		On entry : 0/0
  6561 ;;		On exit  : 0/0
  6562 ;;		Unchanged: 0/0
  6563 ;; Data sizes:     COMMON   BANK0   BANK1   BANK3   BANK2
  6564 ;;      Params:         4       0       0       0       0
  6565 ;;      Locals:         0       6       0       0       0
  6566 ;;      Temps:          4       0       0       0       0
  6567 ;;      Totals:         8       6       0       0       0
  6568 ;;Total ram usage:       14 bytes
  6569 ;; Hardware stack levels used:    1
  6570 ;; This function calls:
  6571 ;;		Nothing
  6572 ;; This function is called by:
  6573 ;;		_UART_send_float
  6574 ;;		_main
  6575 ;; This function uses a non-reentrant model
  6576 ;;
  6577                           
  6578                           
  6579                           ;psect for function ___xxtofl
  6580  1D4E                     ___xxtofl:	
  6581                           
  6582                           ;incstack = 0
  6583                           ; Regs used in ___xxtofl: [wreg+status,2+status,0]
  6584                           ;___xxtofl@sign stored from wreg
  6585  1D4E  1283               	bcf	3,5	;RP0=0, select bank0
  6586  1D4F  1303               	bcf	3,6	;RP1=0, select bank0
  6587  1D50  00A0               	movwf	___xxtofl@sign
  6588  1D51  0820               	movf	___xxtofl@sign,w
  6589  1D52  1D03               	btfss	3,2
  6590  1D53  1FF8               	btfss	___xxtofl@val+3,7
  6591  1D54  2D65               	goto	l2695
  6592  1D55  0975               	comf	___xxtofl@val,w
  6593  1D56  00A2               	movwf	___xxtofl@arg
  6594  1D57  0976               	comf	___xxtofl@val+1,w
  6595  1D58  00A3               	movwf	___xxtofl@arg+1
  6596  1D59  0977               	comf	___xxtofl@val+2,w
  6597  1D5A  00A4               	movwf	___xxtofl@arg+2
  6598  1D5B  0978               	comf	___xxtofl@val+3,w
  6599  1D5C  00A5               	movwf	___xxtofl@arg+3
  6600  1D5D  0AA2               	incf	___xxtofl@arg,f
  6601  1D5E  1903               	skipnz
  6602  1D5F  0AA3               	incf	___xxtofl@arg+1,f
  6603  1D60  1903               	skipnz
  6604  1D61  0AA4               	incf	___xxtofl@arg+2,f
  6605  1D62  1903               	skipnz
  6606  1D63  0AA5               	incf	___xxtofl@arg+3,f
  6607  1D64  2D6D               	goto	l629
  6608  1D65                     l2695:	
  6609  1D65  0878               	movf	___xxtofl@val+3,w
  6610  1D66  00A5               	movwf	___xxtofl@arg+3
  6611  1D67  0877               	movf	___xxtofl@val+2,w
  6612  1D68  00A4               	movwf	___xxtofl@arg+2
  6613  1D69  0876               	movf	___xxtofl@val+1,w
  6614  1D6A  00A3               	movwf	___xxtofl@arg+1
  6615  1D6B  0875               	movf	___xxtofl@val,w
  6616  1D6C  00A2               	movwf	___xxtofl@arg
  6617  1D6D                     l629:	
  6618  1D6D  0878               	movf	___xxtofl@val+3,w
  6619  1D6E  0477               	iorwf	___xxtofl@val+2,w
  6620  1D6F  0476               	iorwf	___xxtofl@val+1,w
  6621  1D70  0475               	iorwf	___xxtofl@val,w
  6622  1D71  1D03               	skipz
  6623  1D72  2D7C               	goto	l2701
  6624  1D73  3000               	movlw	0
  6625  1D74  00F8               	movwf	?___xxtofl+3
  6626  1D75  3000               	movlw	0
  6627  1D76  00F7               	movwf	?___xxtofl+2
  6628  1D77  3000               	movlw	0
  6629  1D78  00F6               	movwf	?___xxtofl+1
  6630  1D79  3000               	movlw	0
  6631  1D7A  00F5               	movwf	?___xxtofl
  6632  1D7B  0008               	return
  6633  1D7C                     l2701:	
  6634  1D7C  3096               	movlw	150
  6635  1D7D  00F9               	movwf	??___xxtofl
  6636  1D7E  0879               	movf	??___xxtofl,w
  6637  1D7F  00A1               	movwf	___xxtofl@exp
  6638  1D80                     l2705:	
  6639  1D80  30FE               	movlw	254
  6640  1D81  0525               	andwf	___xxtofl@arg+3,w
  6641  1D82  1903               	btfsc	3,2
  6642  1D83  2DAD               	goto	l635
  6643  1D84  3001               	movlw	1
  6644  1D85  00F9               	movwf	??___xxtofl
  6645  1D86  0879               	movf	??___xxtofl,w
  6646  1D87  07A1               	addwf	___xxtofl@exp,f
  6647  1D88  3001               	movlw	1
  6648  1D89                     u4045:	
  6649  1D89  1003               	clrc
  6650  1D8A  0CA5               	rrf	___xxtofl@arg+3,f
  6651  1D8B  0CA4               	rrf	___xxtofl@arg+2,f
  6652  1D8C  0CA3               	rrf	___xxtofl@arg+1,f
  6653  1D8D  0CA2               	rrf	___xxtofl@arg,f
  6654  1D8E  3EFF               	addlw	-1
  6655  1D8F  1D03               	skipz
  6656  1D90  2D89               	goto	u4045
  6657  1D91  2D80               	goto	l2705
  6658  1D92                     l2707:	
  6659  1D92  3001               	movlw	1
  6660  1D93  00F9               	movwf	??___xxtofl
  6661  1D94  0879               	movf	??___xxtofl,w
  6662  1D95  07A1               	addwf	___xxtofl@exp,f
  6663  1D96  3001               	movlw	1
  6664  1D97  07A2               	addwf	___xxtofl@arg,f
  6665  1D98  3000               	movlw	0
  6666  1D99  1803               	skipnc
  6667  1D9A  3001               	movlw	1
  6668  1D9B  07A3               	addwf	___xxtofl@arg+1,f
  6669  1D9C  3000               	movlw	0
  6670  1D9D  1803               	skipnc
  6671  1D9E  3001               	movlw	1
  6672  1D9F  07A4               	addwf	___xxtofl@arg+2,f
  6673  1DA0  3000               	movlw	0
  6674  1DA1  1803               	skipnc
  6675  1DA2  3001               	movlw	1
  6676  1DA3  07A5               	addwf	___xxtofl@arg+3,f
  6677  1DA4  3001               	movlw	1
  6678  1DA5                     u4065:	
  6679  1DA5  1003               	clrc
  6680  1DA6  0CA5               	rrf	___xxtofl@arg+3,f
  6681  1DA7  0CA4               	rrf	___xxtofl@arg+2,f
  6682  1DA8  0CA3               	rrf	___xxtofl@arg+1,f
  6683  1DA9  0CA2               	rrf	___xxtofl@arg,f
  6684  1DAA  3EFF               	addlw	-1
  6685  1DAB  1D03               	skipz
  6686  1DAC  2DA5               	goto	u4065
  6687  1DAD                     l635:	
  6688  1DAD  30FF               	movlw	255
  6689  1DAE  0525               	andwf	___xxtofl@arg+3,w
  6690  1DAF  1903               	btfsc	3,2
  6691  1DB0  2DC1               	goto	l2715
  6692  1DB1  2D92               	goto	l2707
  6693  1DB2                     l2717:	
  6694  1DB2  3002               	movlw	2
  6695  1DB3  0221               	subwf	___xxtofl@exp,w
  6696  1DB4  1C03               	btfss	3,0
  6697  1DB5  2DC3               	goto	l642
  6698  1DB6  3001               	movlw	1
  6699  1DB7  02A1               	subwf	___xxtofl@exp,f
  6700  1DB8  3001               	movlw	1
  6701  1DB9  00F9               	movwf	??___xxtofl
  6702  1DBA                     u4085:	
  6703  1DBA  1003               	clrc
  6704  1DBB  0DA2               	rlf	___xxtofl@arg,f
  6705  1DBC  0DA3               	rlf	___xxtofl@arg+1,f
  6706  1DBD  0DA4               	rlf	___xxtofl@arg+2,f
  6707  1DBE  0DA5               	rlf	___xxtofl@arg+3,f
  6708  1DBF  0BF9               	decfsz	??___xxtofl,f
  6709  1DC0  2DBA               	goto	u4085
  6710  1DC1                     l2715:	
  6711  1DC1  1FA4               	btfss	___xxtofl@arg+2,7
  6712  1DC2  2DB2               	goto	l2717
  6713  1DC3                     l642:	
  6714  1DC3  1821               	btfsc	___xxtofl@exp,0
  6715  1DC4  2DCD               	goto	l643
  6716  1DC5  30FF               	movlw	255
  6717  1DC6  05A2               	andwf	___xxtofl@arg,f
  6718  1DC7  30FF               	movlw	255
  6719  1DC8  05A3               	andwf	___xxtofl@arg+1,f
  6720  1DC9  307F               	movlw	127
  6721  1DCA  05A4               	andwf	___xxtofl@arg+2,f
  6722  1DCB  30FF               	movlw	255
  6723  1DCC  05A5               	andwf	___xxtofl@arg+3,f
  6724  1DCD                     l643:	
  6725  1DCD  1003               	clrc
  6726  1DCE  0CA1               	rrf	___xxtofl@exp,f
  6727  1DCF  0821               	movf	___xxtofl@exp,w
  6728  1DD0  00F9               	movwf	??___xxtofl
  6729  1DD1  01FA               	clrf	??___xxtofl+1
  6730  1DD2  01FB               	clrf	??___xxtofl+2
  6731  1DD3  01FC               	clrf	??___xxtofl+3
  6732  1DD4  3018               	movlw	24
  6733  1DD5                     u4125:	
  6734  1DD5  1003               	clrc
  6735  1DD6  0DF9               	rlf	??___xxtofl,f
  6736  1DD7  0DFA               	rlf	??___xxtofl+1,f
  6737  1DD8  0DFB               	rlf	??___xxtofl+2,f
  6738  1DD9  0DFC               	rlf	??___xxtofl+3,f
  6739  1DDA  3EFF               	addlw	-1
  6740  1DDB  1D03               	skipz
  6741  1DDC  2DD5               	goto	u4125
  6742  1DDD  0879               	movf	??___xxtofl,w
  6743  1DDE  04A2               	iorwf	___xxtofl@arg,f
  6744  1DDF  087A               	movf	??___xxtofl+1,w
  6745  1DE0  04A3               	iorwf	___xxtofl@arg+1,f
  6746  1DE1  087B               	movf	??___xxtofl+2,w
  6747  1DE2  04A4               	iorwf	___xxtofl@arg+2,f
  6748  1DE3  087C               	movf	??___xxtofl+3,w
  6749  1DE4  04A5               	iorwf	___xxtofl@arg+3,f
  6750  1DE5  0820               	movf	___xxtofl@sign,w
  6751  1DE6  1D03               	btfss	3,2
  6752  1DE7  1FF8               	btfss	___xxtofl@val+3,7
  6753  1DE8  2DEA               	goto	l2729
  6754  1DE9  17A5               	bsf	___xxtofl@arg+3,7
  6755  1DEA                     l2729:	
  6756  1DEA  0825               	movf	___xxtofl@arg+3,w
  6757  1DEB  00F8               	movwf	?___xxtofl+3
  6758  1DEC  0824               	movf	___xxtofl@arg+2,w
  6759  1DED  00F7               	movwf	?___xxtofl+2
  6760  1DEE  0823               	movf	___xxtofl@arg+1,w
  6761  1DEF  00F6               	movwf	?___xxtofl+1
  6762  1DF0  0822               	movf	___xxtofl@arg,w
  6763  1DF1  00F5               	movwf	?___xxtofl
  6764  1DF2  0008               	return
  6765  1DF3                     __end_of___xxtofl:	
  6766                           
  6767                           	psect	text14
  6768  1C2E                     __ptext14:	
  6769 ;; *************** function ___fltol *****************
  6770 ;; Defined at:
  6771 ;;		line 43 in file "C:\Program Files (x86)\Microchip\xc8\v2.05\pic\sources\c90\common\fltol.c"
  6772 ;; Parameters:    Size  Location     Type
  6773 ;;  f1              4   72[BANK0 ] unsigned char 
  6774 ;; Auto vars:     Size  Location     Type
  6775 ;;  exp1            1   77[BANK0 ] unsigned char 
  6776 ;;  sign1           1   76[BANK0 ] unsigned char 
  6777 ;; Return value:  Size  Location     Type
  6778 ;;                  4   72[BANK0 ] long 
  6779 ;; Registers used:
  6780 ;;		wreg, status,2, status,0
  6781 ;; Tracked objects:
  6782 ;;		On entry : 0/0
  6783 ;;		On exit  : 0/0
  6784 ;;		Unchanged: 0/0
  6785 ;; Data sizes:     COMMON   BANK0   BANK1   BANK3   BANK2
  6786 ;;      Params:         0       4       0       0       0
  6787 ;;      Locals:         0       2       0       0       0
  6788 ;;      Temps:          0       0       5       0       0
  6789 ;;      Totals:         0       6       5       0       0
  6790 ;;Total ram usage:       11 bytes
  6791 ;; Hardware stack levels used:    1
  6792 ;; This function calls:
  6793 ;;		Nothing
  6794 ;; This function is called by:
  6795 ;;		_UART_send_float
  6796 ;; This function uses a non-reentrant model
  6797 ;;
  6798                           
  6799                           
  6800                           ;psect for function ___fltol
  6801  1C2E                     ___fltol:	
  6802                           
  6803                           ;incstack = 0
  6804                           ; Regs used in ___fltol: [wreg+status,2+status,0]
  6805  1C2E  1003               	clrc
  6806  1C2F  1283               	bcf	3,5	;RP0=0, select bank0
  6807  1C30  1303               	bcf	3,6	;RP1=0, select bank0
  6808  1C31  0D6A               	rlf	___fltol@f1+2,w
  6809  1C32  0D6B               	rlf	___fltol@f1+3,w
  6810  1C33  1683               	bsf	3,5	;RP0=1, select bank1
  6811  1C34  1303               	bcf	3,6	;RP1=0, select bank1
  6812  1C35  00A0               	movwf	??___fltol^(0+128)
  6813  1C36  0820               	movf	??___fltol^(0+128),w
  6814  1C37  1283               	bcf	3,5	;RP0=0, select bank0
  6815  1C38  1303               	bcf	3,6	;RP1=0, select bank0
  6816  1C39  00ED               	movwf	___fltol@exp1
  6817  1C3A  086D               	movf	___fltol@exp1,w
  6818  1C3B  1D03               	btfss	3,2
  6819  1C3C  2C46               	goto	l2659
  6820  1C3D                     l2655:	
  6821  1C3D  3000               	movlw	0
  6822  1C3E  00EB               	movwf	?___fltol+3
  6823  1C3F  3000               	movlw	0
  6824  1C40  00EA               	movwf	?___fltol+2
  6825  1C41  3000               	movlw	0
  6826  1C42  00E9               	movwf	?___fltol+1
  6827  1C43  3000               	movlw	0
  6828  1C44  00E8               	movwf	?___fltol
  6829  1C45  0008               	return
  6830  1C46                     l2659:	
  6831  1C46  0868               	movf	___fltol@f1,w
  6832  1C47  1683               	bsf	3,5	;RP0=1, select bank1
  6833  1C48  1303               	bcf	3,6	;RP1=0, select bank1
  6834  1C49  00A0               	movwf	??___fltol^(0+128)
  6835  1C4A  1283               	bcf	3,5	;RP0=0, select bank0
  6836  1C4B  1303               	bcf	3,6	;RP1=0, select bank0
  6837  1C4C  0869               	movf	___fltol@f1+1,w
  6838  1C4D  1683               	bsf	3,5	;RP0=1, select bank1
  6839  1C4E  1303               	bcf	3,6	;RP1=0, select bank1
  6840  1C4F  00A1               	movwf	(??___fltol^(0+128)+1)
  6841  1C50  1283               	bcf	3,5	;RP0=0, select bank0
  6842  1C51  1303               	bcf	3,6	;RP1=0, select bank0
  6843  1C52  086A               	movf	___fltol@f1+2,w
  6844  1C53  1683               	bsf	3,5	;RP0=1, select bank1
  6845  1C54  1303               	bcf	3,6	;RP1=0, select bank1
  6846  1C55  00A2               	movwf	(??___fltol^(0+128)+2)
  6847  1C56  1283               	bcf	3,5	;RP0=0, select bank0
  6848  1C57  1303               	bcf	3,6	;RP1=0, select bank0
  6849  1C58  086B               	movf	___fltol@f1+3,w
  6850  1C59  1683               	bsf	3,5	;RP0=1, select bank1
  6851  1C5A  1303               	bcf	3,6	;RP1=0, select bank1
  6852  1C5B  00A3               	movwf	(??___fltol^(0+128)+3)
  6853  1C5C  301F               	movlw	31
  6854  1C5D                     u3925:	
  6855  1C5D  1003               	clrc
  6856  1C5E  0CA3               	rrf	(??___fltol^(0+128)+3),f
  6857  1C5F  0CA2               	rrf	(??___fltol^(0+128)+2),f
  6858  1C60  0CA1               	rrf	(??___fltol^(0+128)+1),f
  6859  1C61  0CA0               	rrf	??___fltol^(0+128),f
  6860  1C62  3EFF               	addlw	-1
  6861  1C63  1D03               	skipz
  6862  1C64  2C5D               	goto	u3925
  6863  1C65  0820               	movf	??___fltol^(0+128),w
  6864  1C66  00A4               	movwf	(??___fltol+4)^(0+128)
  6865  1C67  0824               	movf	(??___fltol+4)^(0+128),w
  6866  1C68  1283               	bcf	3,5	;RP0=0, select bank0
  6867  1C69  1303               	bcf	3,6	;RP1=0, select bank0
  6868  1C6A  00EC               	movwf	___fltol@sign1
  6869  1C6B  17EA               	bsf	___fltol@f1+2,7
  6870  1C6C  30FF               	movlw	255
  6871  1C6D  05E8               	andwf	___fltol@f1,f
  6872  1C6E  30FF               	movlw	255
  6873  1C6F  05E9               	andwf	___fltol@f1+1,f
  6874  1C70  30FF               	movlw	255
  6875  1C71  05EA               	andwf	___fltol@f1+2,f
  6876  1C72  3000               	movlw	0
  6877  1C73  05EB               	andwf	___fltol@f1+3,f
  6878  1C74  3096               	movlw	150
  6879  1C75  02ED               	subwf	___fltol@exp1,f
  6880  1C76  1FED               	btfss	___fltol@exp1,7
  6881  1C77  2C91               	goto	l2677
  6882  1C78  086D               	movf	___fltol@exp1,w
  6883  1C79  3A80               	xorlw	128
  6884  1C7A  3E97               	addlw	151
  6885  1C7B  1C03               	btfss	3,0
  6886  1C7C  2C3D               	goto	l2655
  6887  1C7D                     l2675:	
  6888  1C7D  3001               	movlw	1
  6889  1C7E                     u3955:	
  6890  1C7E  1003               	clrc
  6891  1C7F  0CEB               	rrf	___fltol@f1+3,f
  6892  1C80  0CEA               	rrf	___fltol@f1+2,f
  6893  1C81  0CE9               	rrf	___fltol@f1+1,f
  6894  1C82  0CE8               	rrf	___fltol@f1,f
  6895  1C83  3EFF               	addlw	-1
  6896  1C84  1D03               	skipz
  6897  1C85  2C7E               	goto	u3955
  6898  1C86  3001               	movlw	1
  6899  1C87  1683               	bsf	3,5	;RP0=1, select bank1
  6900  1C88  1303               	bcf	3,6	;RP1=0, select bank1
  6901  1C89  00A0               	movwf	??___fltol^(0+128)
  6902  1C8A  0820               	movf	??___fltol^(0+128),w
  6903  1C8B  1283               	bcf	3,5	;RP0=0, select bank0
  6904  1C8C  1303               	bcf	3,6	;RP1=0, select bank0
  6905  1C8D  07ED               	addwf	___fltol@exp1,f
  6906  1C8E  1903               	btfsc	3,2
  6907  1C8F  2CAC               	goto	l2685
  6908  1C90  2C7D               	goto	l2675
  6909  1C91                     l2677:	
  6910  1C91  3020               	movlw	32
  6911  1C92  026D               	subwf	___fltol@exp1,w
  6912  1C93  1803               	btfsc	3,0
  6913  1C94  2C3D               	goto	l2655
  6914  1C95                     l375:	
  6915  1C95  086D               	movf	___fltol@exp1,w
  6916  1C96  1903               	btfsc	3,2
  6917  1C97  2CAC               	goto	l2685
  6918  1C98  3001               	movlw	1
  6919  1C99  1683               	bsf	3,5	;RP0=1, select bank1
  6920  1C9A  1303               	bcf	3,6	;RP1=0, select bank1
  6921  1C9B  00A0               	movwf	??___fltol^(0+128)
  6922  1C9C                     u3985:	
  6923  1C9C  1003               	clrc
  6924  1C9D  1283               	bcf	3,5	;RP0=0, select bank0
  6925  1C9E  1303               	bcf	3,6	;RP1=0, select bank0
  6926  1C9F  0DE8               	rlf	___fltol@f1,f
  6927  1CA0  0DE9               	rlf	___fltol@f1+1,f
  6928  1CA1  0DEA               	rlf	___fltol@f1+2,f
  6929  1CA2  0DEB               	rlf	___fltol@f1+3,f
  6930  1CA3  1683               	bsf	3,5	;RP0=1, select bank1
  6931  1CA4  1303               	bcf	3,6	;RP1=0, select bank1
  6932  1CA5  0BA0               	decfsz	??___fltol^(0+128),f
  6933  1CA6  2C9C               	goto	u3985
  6934  1CA7  3001               	movlw	1
  6935  1CA8  1283               	bcf	3,5	;RP0=0, select bank0
  6936  1CA9  1303               	bcf	3,6	;RP1=0, select bank0
  6937  1CAA  02ED               	subwf	___fltol@exp1,f
  6938  1CAB  2C95               	goto	l375
  6939  1CAC                     l2685:	
  6940  1CAC  086C               	movf	___fltol@sign1,w
  6941  1CAD  1903               	btfsc	3,2
  6942  1CAE  0008               	return
  6943  1CAF  09E8               	comf	___fltol@f1,f
  6944  1CB0  09E9               	comf	___fltol@f1+1,f
  6945  1CB1  09EA               	comf	___fltol@f1+2,f
  6946  1CB2  09EB               	comf	___fltol@f1+3,f
  6947  1CB3  0AE8               	incf	___fltol@f1,f
  6948  1CB4  1903               	skipnz
  6949  1CB5  0AE9               	incf	___fltol@f1+1,f
  6950  1CB6  1903               	skipnz
  6951  1CB7  0AEA               	incf	___fltol@f1+2,f
  6952  1CB8  1903               	skipnz
  6953  1CB9  0AEB               	incf	___fltol@f1+3,f
  6954  1CBA  0008               	return
  6955  1CBB                     __end_of___fltol:	
  6956                           
  6957                           	psect	text15
  6958  1AFB                     __ptext15:	
  6959 ;; *************** function ___flsub *****************
  6960 ;; Defined at:
  6961 ;;		line 242 in file "C:\Program Files (x86)\Microchip\xc8\v2.05\pic\sources\c90\common\sprcadd.c"
  6962 ;; Parameters:    Size  Location     Type
  6963 ;;  a               4   72[BANK0 ] long 
  6964 ;;  b               4   76[BANK0 ] long 
  6965 ;; Auto vars:     Size  Location     Type
  6966 ;;		None
  6967 ;; Return value:  Size  Location     Type
  6968 ;;                  4   72[BANK0 ] long 
  6969 ;; Registers used:
  6970 ;;		wreg, status,2, status,0, btemp+1, pclath, cstack
  6971 ;; Tracked objects:
  6972 ;;		On entry : 0/0
  6973 ;;		On exit  : 0/0
  6974 ;;		Unchanged: 0/0
  6975 ;; Data sizes:     COMMON   BANK0   BANK1   BANK3   BANK2
  6976 ;;      Params:         0       8       0       0       0
  6977 ;;      Locals:         0       0       0       0       0
  6978 ;;      Temps:          0       0       0       0       0
  6979 ;;      Totals:         0       8       0       0       0
  6980 ;;Total ram usage:        8 bytes
  6981 ;; Hardware stack levels used:    1
  6982 ;; Hardware stack levels required when called:    1
  6983 ;; This function calls:
  6984 ;;		___fladd
  6985 ;; This function is called by:
  6986 ;;		_UART_send_float
  6987 ;;		_acos
  6988 ;;		_asin
  6989 ;;		_atan
  6990 ;; This function uses a non-reentrant model
  6991 ;;
  6992                           
  6993                           
  6994                           ;psect for function ___flsub
  6995  1AFB                     ___flsub:	
  6996                           
  6997                           ;incstack = 0
  6998                           ; Regs used in ___flsub: [wreg+status,2+status,0+btemp+1+pclath+cstack]
  6999  1AFB  3080               	movlw	128
  7000  1AFC  1283               	bcf	3,5	;RP0=0, select bank0
  7001  1AFD  1303               	bcf	3,6	;RP1=0, select bank0
  7002  1AFE  06EB               	xorwf	___flsub@a+3,f
  7003  1AFF  086F               	movf	___flsub@b+3,w
  7004  1B00  00A3               	movwf	___fladd@b+3
  7005  1B01  086E               	movf	___flsub@b+2,w
  7006  1B02  00A2               	movwf	___fladd@b+2
  7007  1B03  086D               	movf	___flsub@b+1,w
  7008  1B04  00A1               	movwf	___fladd@b+1
  7009  1B05  086C               	movf	___flsub@b,w
  7010  1B06  00A0               	movwf	___fladd@b
  7011  1B07  086B               	movf	___flsub@a+3,w
  7012  1B08  00A7               	movwf	___fladd@a+3
  7013  1B09  086A               	movf	___flsub@a+2,w
  7014  1B0A  00A6               	movwf	___fladd@a+2
  7015  1B0B  0869               	movf	___flsub@a+1,w
  7016  1B0C  00A5               	movwf	___fladd@a+1
  7017  1B0D  0868               	movf	___flsub@a,w
  7018  1B0E  00A4               	movwf	___fladd@a
  7019  1B0F  160A  118A  233E   	fcall	___fladd
  7020  1B12  1283               	bcf	3,5	;RP0=0, select bank0
  7021  1B13  1303               	bcf	3,6	;RP1=0, select bank0
  7022  1B14  0823               	movf	?___fladd+3,w
  7023  1B15  00EB               	movwf	?___flsub+3
  7024  1B16  0822               	movf	?___fladd+2,w
  7025  1B17  00EA               	movwf	?___flsub+2
  7026  1B18  0821               	movf	?___fladd+1,w
  7027  1B19  00E9               	movwf	?___flsub+1
  7028  1B1A  0820               	movf	?___fladd,w
  7029  1B1B  00E8               	movwf	?___flsub
  7030  1B1C  0008               	return
  7031  1B1D                     __end_of___flsub:	
  7032                           
  7033                           	psect	text16
  7034  133E                     __ptext16:	
  7035 ;; *************** function ___fladd *****************
  7036 ;; Defined at:
  7037 ;;		line 10 in file "C:\Program Files (x86)\Microchip\xc8\v2.05\pic\sources\c90\common\sprcadd.c"
  7038 ;; Parameters:    Size  Location     Type
  7039 ;;  b               4    0[BANK0 ] long 
  7040 ;;  a               4    4[BANK0 ] long 
  7041 ;; Auto vars:     Size  Location     Type
  7042 ;;  grs             1   12[COMMON] unsigned char 
  7043 ;;  bexp            1   11[COMMON] unsigned char 
  7044 ;;  aexp            1   10[COMMON] unsigned char 
  7045 ;;  signs           1    9[COMMON] unsigned char 
  7046 ;; Return value:  Size  Location     Type
  7047 ;;                  4    0[BANK0 ] unsigned char 
  7048 ;; Registers used:
  7049 ;;		wreg, status,2, status,0, btemp+1
  7050 ;; Tracked objects:
  7051 ;;		On entry : 0/0
  7052 ;;		On exit  : 0/0
  7053 ;;		Unchanged: 0/0
  7054 ;; Data sizes:     COMMON   BANK0   BANK1   BANK3   BANK2
  7055 ;;      Params:         0       8       0       0       0
  7056 ;;      Locals:         4       0       0       0       0
  7057 ;;      Temps:          0       8       0       0       0
  7058 ;;      Totals:         4      16       0       0       0
  7059 ;;Total ram usage:       20 bytes
  7060 ;; Hardware stack levels used:    1
  7061 ;; This function calls:
  7062 ;;		Nothing
  7063 ;; This function is called by:
  7064 ;;		_main
  7065 ;;		___flsub
  7066 ;;		_eval_poly
  7067 ;; This function uses a non-reentrant model
  7068 ;;
  7069                           
  7070                           
  7071                           ;psect for function ___fladd
  7072  133E                     ___fladd:	
  7073                           
  7074                           ;incstack = 0
  7075                           ; Regs used in ___fladd: [wreg+status,2+status,0+btemp+1]
  7076  133E  1283               	bcf	3,5	;RP0=0, select bank0
  7077  133F  1303               	bcf	3,6	;RP1=0, select bank0
  7078  1340  0823               	movf	___fladd@b+3,w
  7079  1341  3980               	andlw	128
  7080  1342  00A8               	movwf	??___fladd
  7081  1343  0828               	movf	??___fladd,w
  7082  1344  00F9               	movwf	___fladd@signs
  7083  1345  0823               	movf	___fladd@b+3,w
  7084  1346  00A8               	movwf	??___fladd
  7085  1347  0728               	addwf	??___fladd,w
  7086  1348  00A9               	movwf	??___fladd+1
  7087  1349  0829               	movf	??___fladd+1,w
  7088  134A  00FB               	movwf	___fladd@bexp
  7089  134B  1BA2               	btfsc	___fladd@b+2,7
  7090  134C  147B               	bsf	___fladd@bexp,0
  7091  134D  087B               	movf	___fladd@bexp,w
  7092  134E  1903               	btfsc	3,2
  7093  134F  2B5E               	goto	l1957
  7094  1350  0A7B               	incf	___fladd@bexp,w
  7095  1351  1D03               	btfss	3,2
  7096  1352  2B5B               	goto	l1953
  7097  1353  3000               	movlw	0
  7098  1354  00A3               	movwf	___fladd@b+3
  7099  1355  3000               	movlw	0
  7100  1356  00A2               	movwf	___fladd@b+2
  7101  1357  3000               	movlw	0
  7102  1358  00A1               	movwf	___fladd@b+1
  7103  1359  3000               	movlw	0
  7104  135A  00A0               	movwf	___fladd@b
  7105  135B                     l1953:	
  7106  135B  17A2               	bsf	___fladd@b+2,7
  7107  135C  01A3               	clrf	___fladd@b+3
  7108  135D  2B66               	goto	l1959
  7109  135E                     l1957:	
  7110  135E  3000               	movlw	0
  7111  135F  00A3               	movwf	___fladd@b+3
  7112  1360  3000               	movlw	0
  7113  1361  00A2               	movwf	___fladd@b+2
  7114  1362  3000               	movlw	0
  7115  1363  00A1               	movwf	___fladd@b+1
  7116  1364  3000               	movlw	0
  7117  1365  00A0               	movwf	___fladd@b
  7118  1366                     l1959:	
  7119  1366  0827               	movf	___fladd@a+3,w
  7120  1367  3980               	andlw	128
  7121  1368  00A8               	movwf	??___fladd
  7122  1369  0828               	movf	??___fladd,w
  7123  136A  00FA               	movwf	___fladd@aexp
  7124  136B  087A               	movf	___fladd@aexp,w
  7125  136C  0679               	xorwf	___fladd@signs,w
  7126  136D  1D03               	btfss	3,2
  7127  136E  1779               	bsf	___fladd@signs,6
  7128  136F  0827               	movf	___fladd@a+3,w
  7129  1370  00A8               	movwf	??___fladd
  7130  1371  0728               	addwf	??___fladd,w
  7131  1372  00A9               	movwf	??___fladd+1
  7132  1373  0829               	movf	??___fladd+1,w
  7133  1374  00FA               	movwf	___fladd@aexp
  7134  1375  1BA6               	btfsc	___fladd@a+2,7
  7135  1376  147A               	bsf	___fladd@aexp,0
  7136  1377  087A               	movf	___fladd@aexp,w
  7137  1378  1903               	btfsc	3,2
  7138  1379  2B88               	goto	l1981
  7139  137A  0A7A               	incf	___fladd@aexp,w
  7140  137B  1D03               	btfss	3,2
  7141  137C  2B85               	goto	l1977
  7142  137D  3000               	movlw	0
  7143  137E  00A7               	movwf	___fladd@a+3
  7144  137F  3000               	movlw	0
  7145  1380  00A6               	movwf	___fladd@a+2
  7146  1381  3000               	movlw	0
  7147  1382  00A5               	movwf	___fladd@a+1
  7148  1383  3000               	movlw	0
  7149  1384  00A4               	movwf	___fladd@a
  7150  1385                     l1977:	
  7151  1385  17A6               	bsf	___fladd@a+2,7
  7152  1386  01A7               	clrf	___fladd@a+3
  7153  1387  2B90               	goto	l475
  7154  1388                     l1981:	
  7155  1388  3000               	movlw	0
  7156  1389  00A7               	movwf	___fladd@a+3
  7157  138A  3000               	movlw	0
  7158  138B  00A6               	movwf	___fladd@a+2
  7159  138C  3000               	movlw	0
  7160  138D  00A5               	movwf	___fladd@a+1
  7161  138E  3000               	movlw	0
  7162  138F  00A4               	movwf	___fladd@a
  7163  1390                     l475:	
  7164  1390  087B               	movf	___fladd@bexp,w
  7165  1391  027A               	subwf	___fladd@aexp,w
  7166  1392  1803               	skipnc
  7167  1393  2BD6               	goto	l2017
  7168  1394  1F79               	btfss	___fladd@signs,6
  7169  1395  2B9A               	goto	l1987
  7170  1396  3080               	movlw	128
  7171  1397  00A8               	movwf	??___fladd
  7172  1398  0828               	movf	??___fladd,w
  7173  1399  06F9               	xorwf	___fladd@signs,f
  7174  139A                     l1987:	
  7175  139A  087B               	movf	___fladd@bexp,w
  7176  139B  00A8               	movwf	??___fladd
  7177  139C  0828               	movf	??___fladd,w
  7178  139D  00FC               	movwf	___fladd@grs
  7179  139E  087A               	movf	___fladd@aexp,w
  7180  139F  00A8               	movwf	??___fladd
  7181  13A0  0828               	movf	??___fladd,w
  7182  13A1  00FB               	movwf	___fladd@bexp
  7183  13A2  087C               	movf	___fladd@grs,w
  7184  13A3  00A8               	movwf	??___fladd
  7185  13A4  0828               	movf	??___fladd,w
  7186  13A5  00FA               	movwf	___fladd@aexp
  7187  13A6  0820               	movf	___fladd@b,w
  7188  13A7  00A8               	movwf	??___fladd
  7189  13A8  0828               	movf	??___fladd,w
  7190  13A9  00FC               	movwf	___fladd@grs
  7191  13AA  0824               	movf	___fladd@a,w
  7192  13AB  00A8               	movwf	??___fladd
  7193  13AC  0828               	movf	??___fladd,w
  7194  13AD  00A0               	movwf	___fladd@b
  7195  13AE  087C               	movf	___fladd@grs,w
  7196  13AF  00A8               	movwf	??___fladd
  7197  13B0  0828               	movf	??___fladd,w
  7198  13B1  00A4               	movwf	___fladd@a
  7199  13B2  0821               	movf	___fladd@b+1,w
  7200  13B3  00A8               	movwf	??___fladd
  7201  13B4  0828               	movf	??___fladd,w
  7202  13B5  00FC               	movwf	___fladd@grs
  7203  13B6  0825               	movf	___fladd@a+1,w
  7204  13B7  00A8               	movwf	??___fladd
  7205  13B8  0828               	movf	??___fladd,w
  7206  13B9  00A1               	movwf	___fladd@b+1
  7207  13BA  087C               	movf	___fladd@grs,w
  7208  13BB  00A8               	movwf	??___fladd
  7209  13BC  0828               	movf	??___fladd,w
  7210  13BD  00A5               	movwf	___fladd@a+1
  7211  13BE  0822               	movf	___fladd@b+2,w
  7212  13BF  00A8               	movwf	??___fladd
  7213  13C0  0828               	movf	??___fladd,w
  7214  13C1  00FC               	movwf	___fladd@grs
  7215  13C2  0826               	movf	___fladd@a+2,w
  7216  13C3  00A8               	movwf	??___fladd
  7217  13C4  0828               	movf	??___fladd,w
  7218  13C5  00A2               	movwf	___fladd@b+2
  7219  13C6  087C               	movf	___fladd@grs,w
  7220  13C7  00A8               	movwf	??___fladd
  7221  13C8  0828               	movf	??___fladd,w
  7222  13C9  00A6               	movwf	___fladd@a+2
  7223  13CA  0823               	movf	___fladd@b+3,w
  7224  13CB  00A8               	movwf	??___fladd
  7225  13CC  0828               	movf	??___fladd,w
  7226  13CD  00FC               	movwf	___fladd@grs
  7227  13CE  0827               	movf	___fladd@a+3,w
  7228  13CF  00A8               	movwf	??___fladd
  7229  13D0  0828               	movf	??___fladd,w
  7230  13D1  00A3               	movwf	___fladd@b+3
  7231  13D2  087C               	movf	___fladd@grs,w
  7232  13D3  00A8               	movwf	??___fladd
  7233  13D4  0828               	movf	??___fladd,w
  7234  13D5  00A7               	movwf	___fladd@a+3
  7235  13D6                     l2017:	
  7236  13D6  01FC               	clrf	___fladd@grs
  7237  13D7  087A               	movf	___fladd@aexp,w
  7238  13D8  00A8               	movwf	??___fladd
  7239  13D9  01A9               	clrf	??___fladd+1
  7240  13DA  0829               	movf	??___fladd+1,w
  7241  13DB  00AB               	movwf	??___fladd+3
  7242  13DC  087B               	movf	___fladd@bexp,w
  7243  13DD  0228               	subwf	??___fladd,w
  7244  13DE  00AA               	movwf	??___fladd+2
  7245  13DF  1C03               	skipc
  7246  13E0  03AB               	decf	??___fladd+3,f
  7247  13E1  082B               	movf	??___fladd+3,w
  7248  13E2  3A80               	xorlw	128
  7249  13E3  00FF               	movwf	127
  7250  13E4  3080               	movlw	128
  7251  13E5  027F               	subwf	127,w
  7252  13E6  1D03               	skipz
  7253  13E7  2BEA               	goto	u2355
  7254  13E8  301A               	movlw	26
  7255  13E9  022A               	subwf	??___fladd+2,w
  7256  13EA                     u2355:	
  7257  13EA  1C03               	skipc
  7258  13EB  2C27               	goto	l2035
  7259  13EC  1283               	bcf	3,5	;RP0=0, select bank0
  7260  13ED  1303               	bcf	3,6	;RP1=0, select bank0
  7261  13EE  0823               	movf	___fladd@b+3,w
  7262  13EF  0422               	iorwf	___fladd@b+2,w
  7263  13F0  0421               	iorwf	___fladd@b+1,w
  7264  13F1  0420               	iorwf	___fladd@b,w
  7265  13F2  1903               	btfsc	3,2
  7266  13F3  2BF6               	goto	u2360
  7267  13F4  3001               	movlw	1
  7268  13F5  2BF7               	goto	u2370
  7269  13F6                     u2360:	
  7270  13F6  3000               	movlw	0
  7271  13F7                     u2370:	
  7272  13F7  00A8               	movwf	??___fladd
  7273  13F8  0828               	movf	??___fladd,w
  7274  13F9  00FC               	movwf	___fladd@grs
  7275  13FA  3000               	movlw	0
  7276  13FB  00A3               	movwf	___fladd@b+3
  7277  13FC  3000               	movlw	0
  7278  13FD  00A2               	movwf	___fladd@b+2
  7279  13FE  3000               	movlw	0
  7280  13FF  00A1               	movwf	___fladd@b+1
  7281  1400  3000               	movlw	0
  7282  1401  00A0               	movwf	___fladd@b
  7283  1402  087A               	movf	___fladd@aexp,w
  7284  1403  00A8               	movwf	??___fladd
  7285  1404  0828               	movf	??___fladd,w
  7286  1405  00FB               	movwf	___fladd@bexp
  7287  1406  2C2B               	goto	l479
  7288  1407                     l481:	
  7289  1407  1C7C               	btfss	___fladd@grs,0
  7290  1408  2C14               	goto	l2025
  7291  1409  087C               	movf	___fladd@grs,w
  7292  140A  1283               	bcf	3,5	;RP0=0, select bank0
  7293  140B  1303               	bcf	3,6	;RP1=0, select bank0
  7294  140C  00A8               	movwf	??___fladd
  7295  140D  1003               	clrc
  7296  140E  0C28               	rrf	??___fladd,w
  7297  140F  3801               	iorlw	1
  7298  1410  00A9               	movwf	??___fladd+1
  7299  1411  0829               	movf	??___fladd+1,w
  7300  1412  00FC               	movwf	___fladd@grs
  7301  1413  2C16               	goto	l2027
  7302  1414                     l2025:	
  7303  1414  1003               	clrc
  7304  1415  0CFC               	rrf	___fladd@grs,f
  7305  1416                     l2027:	
  7306  1416  1283               	bcf	3,5	;RP0=0, select bank0
  7307  1417  1303               	bcf	3,6	;RP1=0, select bank0
  7308  1418  1820               	btfsc	___fladd@b,0
  7309  1419  17FC               	bsf	___fladd@grs,7
  7310  141A  3001               	movlw	1
  7311  141B  00A8               	movwf	??___fladd
  7312  141C                     u2405:	
  7313  141C  0D23               	rlf	___fladd@b+3,w
  7314  141D  0CA3               	rrf	___fladd@b+3,f
  7315  141E  0CA2               	rrf	___fladd@b+2,f
  7316  141F  0CA1               	rrf	___fladd@b+1,f
  7317  1420  0CA0               	rrf	___fladd@b,f
  7318  1421  0BA8               	decfsz	??___fladd& (0+127),f
  7319  1422  2C1C               	goto	u2405
  7320  1423  3001               	movlw	1
  7321  1424  00A8               	movwf	??___fladd
  7322  1425  0828               	movf	??___fladd,w
  7323  1426  07FB               	addwf	___fladd@bexp,f
  7324  1427                     l2035:	
  7325  1427  087A               	movf	___fladd@aexp,w
  7326  1428  027B               	subwf	___fladd@bexp,w
  7327  1429  1C03               	skipc
  7328  142A  2C07               	goto	l481
  7329  142B                     l479:	
  7330  142B  1B79               	btfsc	___fladd@signs,6
  7331  142C  2C70               	goto	l2061
  7332  142D  087B               	movf	___fladd@bexp,w
  7333  142E  1D03               	btfss	3,2
  7334  142F  2C3B               	goto	l2043
  7335  1430  3000               	movlw	0
  7336  1431  1283               	bcf	3,5	;RP0=0, select bank0
  7337  1432  1303               	bcf	3,6	;RP1=0, select bank0
  7338  1433  00A3               	movwf	?___fladd+3
  7339  1434  3000               	movlw	0
  7340  1435  00A2               	movwf	?___fladd+2
  7341  1436  3000               	movlw	0
  7342  1437  00A1               	movwf	?___fladd+1
  7343  1438  3000               	movlw	0
  7344  1439  00A0               	movwf	?___fladd
  7345  143A  0008               	return
  7346  143B                     l2043:	
  7347  143B  1283               	bcf	3,5	;RP0=0, select bank0
  7348  143C  1303               	bcf	3,6	;RP1=0, select bank0
  7349  143D  0824               	movf	___fladd@a,w
  7350  143E  07A0               	addwf	___fladd@b,f
  7351  143F  0825               	movf	___fladd@a+1,w
  7352  1440  1103               	clrz
  7353  1441  1803               	skipnc
  7354  1442  3E01               	addlw	1
  7355  1443  1D03               	btfss	3,2
  7356  1444  07A1               	addwf	___fladd@b+1,f
  7357  1445  0826               	movf	___fladd@a+2,w
  7358  1446  1103               	clrz
  7359  1447  1803               	skipnc
  7360  1448  3E01               	addlw	1
  7361  1449  1D03               	btfss	3,2
  7362  144A  07A2               	addwf	___fladd@b+2,f
  7363  144B  0827               	movf	___fladd@a+3,w
  7364  144C  1103               	clrz
  7365  144D  1803               	skipnc
  7366  144E  3E01               	addlw	1
  7367  144F  1D03               	btfss	3,2
  7368  1450  07A3               	addwf	___fladd@b+3,f
  7369  1451  1C23               	btfss	___fladd@b+3,0
  7370  1452  2D14               	goto	l2095
  7371  1453  1C7C               	btfss	___fladd@grs,0
  7372  1454  2C5E               	goto	l2051
  7373  1455  087C               	movf	___fladd@grs,w
  7374  1456  00A8               	movwf	??___fladd
  7375  1457  1003               	clrc
  7376  1458  0C28               	rrf	??___fladd,w
  7377  1459  3801               	iorlw	1
  7378  145A  00A9               	movwf	??___fladd+1
  7379  145B  0829               	movf	??___fladd+1,w
  7380  145C  00FC               	movwf	___fladd@grs
  7381  145D  2C60               	goto	l2053
  7382  145E                     l2051:	
  7383  145E  1003               	clrc
  7384  145F  0CFC               	rrf	___fladd@grs,f
  7385  1460                     l2053:	
  7386  1460  1820               	btfsc	___fladd@b,0
  7387  1461  17FC               	bsf	___fladd@grs,7
  7388  1462  3001               	movlw	1
  7389  1463  00A8               	movwf	??___fladd
  7390  1464                     u2485:	
  7391  1464  0D23               	rlf	___fladd@b+3,w
  7392  1465  0CA3               	rrf	___fladd@b+3,f
  7393  1466  0CA2               	rrf	___fladd@b+2,f
  7394  1467  0CA1               	rrf	___fladd@b+1,f
  7395  1468  0CA0               	rrf	___fladd@b,f
  7396  1469  0BA8               	decfsz	??___fladd& (0+127),f
  7397  146A  2C64               	goto	u2485
  7398  146B  3001               	movlw	1
  7399  146C  00A8               	movwf	??___fladd
  7400  146D  0828               	movf	??___fladd,w
  7401  146E  07FB               	addwf	___fladd@bexp,f
  7402  146F  2D14               	goto	l2095
  7403  1470                     l2061:	
  7404  1470  1283               	bcf	3,5	;RP0=0, select bank0
  7405  1471  1303               	bcf	3,6	;RP1=0, select bank0
  7406  1472  0823               	movf	___fladd@b+3,w
  7407  1473  3A80               	xorlw	128
  7408  1474  00FF               	movwf	127
  7409  1475  0827               	movf	___fladd@a+3,w
  7410  1476  3A80               	xorlw	128
  7411  1477  027F               	subwf	127,w
  7412  1478  1D03               	skipz
  7413  1479  2C84               	goto	u2493
  7414  147A  0826               	movf	___fladd@a+2,w
  7415  147B  0222               	subwf	___fladd@b+2,w
  7416  147C  1D03               	skipz
  7417  147D  2C84               	goto	u2493
  7418  147E  0825               	movf	___fladd@a+1,w
  7419  147F  0221               	subwf	___fladd@b+1,w
  7420  1480  1D03               	skipz
  7421  1481  2C84               	goto	u2493
  7422  1482  0824               	movf	___fladd@a,w
  7423  1483  0220               	subwf	___fladd@b,w
  7424  1484                     u2493:	
  7425  1484  1803               	skipnc
  7426  1485  2CDC               	goto	l2071
  7427  1486  30FF               	movlw	255
  7428  1487  00A8               	movwf	??___fladd
  7429  1488  30FF               	movlw	255
  7430  1489  00A9               	movwf	??___fladd+1
  7431  148A  30FF               	movlw	255
  7432  148B  00AA               	movwf	??___fladd+2
  7433  148C  30FF               	movlw	255
  7434  148D  00AB               	movwf	??___fladd+3
  7435  148E  0824               	movf	___fladd@a,w
  7436  148F  00AC               	movwf	??___fladd+4
  7437  1490  0825               	movf	___fladd@a+1,w
  7438  1491  00AD               	movwf	??___fladd+5
  7439  1492  0826               	movf	___fladd@a+2,w
  7440  1493  00AE               	movwf	??___fladd+6
  7441  1494  0827               	movf	___fladd@a+3,w
  7442  1495  00AF               	movwf	??___fladd+7
  7443  1496  0820               	movf	___fladd@b,w
  7444  1497  02AC               	subwf	??___fladd+4,f
  7445  1498  0821               	movf	___fladd@b+1,w
  7446  1499  1C03               	skipc
  7447  149A  0F21               	incfsz	___fladd@b+1,w
  7448  149B  2C9D               	goto	u2501
  7449  149C  2C9E               	goto	u2502
  7450  149D                     u2501:	
  7451  149D  02AD               	subwf	??___fladd+5,f
  7452  149E                     u2502:	
  7453  149E  0822               	movf	___fladd@b+2,w
  7454  149F  1C03               	skipc
  7455  14A0  0F22               	incfsz	___fladd@b+2,w
  7456  14A1  2CA3               	goto	u2503
  7457  14A2  2CA4               	goto	u2504
  7458  14A3                     u2503:	
  7459  14A3  02AE               	subwf	??___fladd+6,f
  7460  14A4                     u2504:	
  7461  14A4  0823               	movf	___fladd@b+3,w
  7462  14A5  1C03               	skipc
  7463  14A6  0F23               	incfsz	___fladd@b+3,w
  7464  14A7  2CA9               	goto	u2505
  7465  14A8  2CAA               	goto	u2506
  7466  14A9                     u2505:	
  7467  14A9  02AF               	subwf	??___fladd+7,f
  7468  14AA                     u2506:	
  7469  14AA  082C               	movf	??___fladd+4,w
  7470  14AB  07A8               	addwf	??___fladd,f
  7471  14AC  082D               	movf	??___fladd+5,w
  7472  14AD  1803               	skipnc
  7473  14AE  0F2D               	incfsz	??___fladd+5,w
  7474  14AF  2CB1               	goto	u2510
  7475  14B0  2CB2               	goto	u2511
  7476  14B1                     u2510:	
  7477  14B1  07A9               	addwf	??___fladd+1,f
  7478  14B2                     u2511:	
  7479  14B2  082E               	movf	??___fladd+6,w
  7480  14B3  1803               	skipnc
  7481  14B4  0F2E               	incfsz	??___fladd+6,w
  7482  14B5  2CB7               	goto	u2512
  7483  14B6  2CB8               	goto	u2513
  7484  14B7                     u2512:	
  7485  14B7  07AA               	addwf	??___fladd+2,f
  7486  14B8                     u2513:	
  7487  14B8  082F               	movf	??___fladd+7,w
  7488  14B9  1803               	skipnc
  7489  14BA  0A2F               	incf	??___fladd+7,w
  7490  14BB  07AB               	addwf	??___fladd+3,f
  7491  14BC  082B               	movf	??___fladd+3,w
  7492  14BD  00A3               	movwf	___fladd@b+3
  7493  14BE  082A               	movf	??___fladd+2,w
  7494  14BF  00A2               	movwf	___fladd@b+2
  7495  14C0  0829               	movf	??___fladd+1,w
  7496  14C1  00A1               	movwf	___fladd@b+1
  7497  14C2  0828               	movf	??___fladd,w
  7498  14C3  00A0               	movwf	___fladd@b
  7499  14C4  3080               	movlw	128
  7500  14C5  00A8               	movwf	??___fladd
  7501  14C6  0828               	movf	??___fladd,w
  7502  14C7  06F9               	xorwf	___fladd@signs,f
  7503  14C8  09FC               	comf	___fladd@grs,f
  7504  14C9  0AFC               	incf	___fladd@grs,f
  7505  14CA  087C               	movf	___fladd@grs,w
  7506  14CB  1D03               	btfss	3,2
  7507  14CC  2CEA               	goto	l496
  7508  14CD  3001               	movlw	1
  7509  14CE  07A0               	addwf	___fladd@b,f
  7510  14CF  3000               	movlw	0
  7511  14D0  1803               	skipnc
  7512  14D1  3001               	movlw	1
  7513  14D2  07A1               	addwf	___fladd@b+1,f
  7514  14D3  3000               	movlw	0
  7515  14D4  1803               	skipnc
  7516  14D5  3001               	movlw	1
  7517  14D6  07A2               	addwf	___fladd@b+2,f
  7518  14D7  3000               	movlw	0
  7519  14D8  1803               	skipnc
  7520  14D9  3001               	movlw	1
  7521  14DA  07A3               	addwf	___fladd@b+3,f
  7522  14DB  2CEA               	goto	l496
  7523  14DC                     l2071:	
  7524  14DC  0824               	movf	___fladd@a,w
  7525  14DD  02A0               	subwf	___fladd@b,f
  7526  14DE  0825               	movf	___fladd@a+1,w
  7527  14DF  1C03               	skipc
  7528  14E0  0F25               	incfsz	___fladd@a+1,w
  7529  14E1  02A1               	subwf	___fladd@b+1,f
  7530  14E2  0826               	movf	___fladd@a+2,w
  7531  14E3  1C03               	skipc
  7532  14E4  0F26               	incfsz	___fladd@a+2,w
  7533  14E5  02A2               	subwf	___fladd@b+2,f
  7534  14E6  0827               	movf	___fladd@a+3,w
  7535  14E7  1C03               	skipc
  7536  14E8  0F27               	incfsz	___fladd@a+3,w
  7537  14E9  02A3               	subwf	___fladd@b+3,f
  7538  14EA                     l496:	
  7539  14EA  0823               	movf	___fladd@b+3,w
  7540  14EB  0422               	iorwf	___fladd@b+2,w
  7541  14EC  0421               	iorwf	___fladd@b+1,w
  7542  14ED  0420               	iorwf	___fladd@b,w
  7543  14EE  1D03               	skipz
  7544  14EF  2D12               	goto	l2093
  7545  14F0  087C               	movf	___fladd@grs,w
  7546  14F1  1D03               	btfss	3,2
  7547  14F2  2D12               	goto	l2093
  7548  14F3  3000               	movlw	0
  7549  14F4  00A3               	movwf	?___fladd+3
  7550  14F5  3000               	movlw	0
  7551  14F6  00A2               	movwf	?___fladd+2
  7552  14F7  3000               	movlw	0
  7553  14F8  00A1               	movwf	?___fladd+1
  7554  14F9  3000               	movlw	0
  7555  14FA  00A0               	movwf	?___fladd
  7556  14FB  0008               	return
  7557  14FC                     l2079:	
  7558  14FC  3001               	movlw	1
  7559  14FD  00A8               	movwf	??___fladd
  7560  14FE                     u2555:	
  7561  14FE  1003               	clrc
  7562  14FF  0DA0               	rlf	___fladd@b,f
  7563  1500  0DA1               	rlf	___fladd@b+1,f
  7564  1501  0DA2               	rlf	___fladd@b+2,f
  7565  1502  0DA3               	rlf	___fladd@b+3,f
  7566  1503  0BA8               	decfsz	??___fladd,f
  7567  1504  2CFE               	goto	u2555
  7568  1505  1BFC               	btfsc	___fladd@grs,7
  7569  1506  1420               	bsf	___fladd@b,0
  7570  1507  1C7C               	btfss	___fladd@grs,0
  7571  1508  2D0B               	goto	l2087
  7572  1509  1403               	setc
  7573  150A  2D0C               	goto	L4
  7574  150B                     l2087:	
  7575  150B  1003               	clrc
  7576  150C                     L4:	
  7577  150C  0DFC               	rlf	___fladd@grs,f
  7578  150D  087B               	movf	___fladd@bexp,w
  7579  150E  1903               	btfsc	3,2
  7580  150F  2D12               	goto	l2093
  7581  1510  3001               	movlw	1
  7582  1511  02FB               	subwf	___fladd@bexp,f
  7583  1512                     l2093:	
  7584  1512  1FA2               	btfss	___fladd@b+2,7
  7585  1513  2CFC               	goto	l2079
  7586  1514                     l2095:	
  7587  1514  01FA               	clrf	___fladd@aexp
  7588  1515  1FFC               	btfss	___fladd@grs,7
  7589  1516  2D1F               	goto	l2105
  7590  1517  087C               	movf	___fladd@grs,w
  7591  1518  397F               	andlw	127
  7592  1519  1903               	btfsc	3,2
  7593  151A  1820               	btfsc	___fladd@b,0
  7594  151B  2D1D               	goto	l2101
  7595  151C  2D1F               	goto	l2105
  7596  151D                     l2101:	
  7597  151D  01FA               	clrf	___fladd@aexp
  7598  151E  0AFA               	incf	___fladd@aexp,f
  7599  151F                     l2105:	
  7600  151F  087A               	movf	___fladd@aexp,w
  7601  1520  1903               	btfsc	3,2
  7602  1521  2D52               	goto	l509
  7603  1522  3001               	movlw	1
  7604  1523  07A0               	addwf	___fladd@b,f
  7605  1524  3000               	movlw	0
  7606  1525  1803               	skipnc
  7607  1526  3001               	movlw	1
  7608  1527  07A1               	addwf	___fladd@b+1,f
  7609  1528  3000               	movlw	0
  7610  1529  1803               	skipnc
  7611  152A  3001               	movlw	1
  7612  152B  07A2               	addwf	___fladd@b+2,f
  7613  152C  3000               	movlw	0
  7614  152D  1803               	skipnc
  7615  152E  3001               	movlw	1
  7616  152F  07A3               	addwf	___fladd@b+3,f
  7617  1530  1C23               	btfss	___fladd@b+3,0
  7618  1531  2D52               	goto	l509
  7619  1532  0820               	movf	___fladd@b,w
  7620  1533  00A8               	movwf	??___fladd
  7621  1534  0821               	movf	___fladd@b+1,w
  7622  1535  00A9               	movwf	??___fladd+1
  7623  1536  0822               	movf	___fladd@b+2,w
  7624  1537  00AA               	movwf	??___fladd+2
  7625  1538  0823               	movf	___fladd@b+3,w
  7626  1539  00AB               	movwf	??___fladd+3
  7627  153A  3001               	movlw	1
  7628  153B  00AC               	movwf	??___fladd+4
  7629  153C                     u2655:	
  7630  153C  0D2B               	rlf	??___fladd+3,w
  7631  153D  0CAB               	rrf	??___fladd+3,f
  7632  153E  0CAA               	rrf	??___fladd+2,f
  7633  153F  0CA9               	rrf	??___fladd+1,f
  7634  1540  0CA8               	rrf	??___fladd,f
  7635  1541  0BAC               	decfsz	??___fladd+4,f
  7636  1542  2D3C               	goto	u2655
  7637  1543  082B               	movf	??___fladd+3,w
  7638  1544  00A3               	movwf	___fladd@b+3
  7639  1545  082A               	movf	??___fladd+2,w
  7640  1546  00A2               	movwf	___fladd@b+2
  7641  1547  0829               	movf	??___fladd+1,w
  7642  1548  00A1               	movwf	___fladd@b+1
  7643  1549  0828               	movf	??___fladd,w
  7644  154A  00A0               	movwf	___fladd@b
  7645  154B  0A7B               	incf	___fladd@bexp,w
  7646  154C  1903               	btfsc	3,2
  7647  154D  2D52               	goto	l509
  7648  154E  3001               	movlw	1
  7649  154F  00A8               	movwf	??___fladd
  7650  1550  0828               	movf	??___fladd,w
  7651  1551  07FB               	addwf	___fladd@bexp,f
  7652  1552                     l509:	
  7653  1552  0A7B               	incf	___fladd@bexp,w
  7654  1553  1D03               	btfss	3,2
  7655  1554  087B               	movf	___fladd@bexp,w
  7656  1555  1D03               	btfss	3,2
  7657  1556  2D62               	goto	l2123
  7658  1557  3000               	movlw	0
  7659  1558  00A3               	movwf	___fladd@b+3
  7660  1559  3000               	movlw	0
  7661  155A  00A2               	movwf	___fladd@b+2
  7662  155B  3000               	movlw	0
  7663  155C  00A1               	movwf	___fladd@b+1
  7664  155D  3000               	movlw	0
  7665  155E  00A0               	movwf	___fladd@b
  7666  155F  087B               	movf	___fladd@bexp,w
  7667  1560  1903               	btfsc	3,2
  7668  1561  01F9               	clrf	___fladd@signs
  7669  1562                     l2123:	
  7670  1562  1C7B               	btfss	___fladd@bexp,0
  7671  1563  2D66               	goto	l2127
  7672  1564  17A2               	bsf	___fladd@b+2,7
  7673  1565  2D6A               	goto	l517
  7674  1566                     l2127:	
  7675  1566  307F               	movlw	127
  7676  1567  00A8               	movwf	??___fladd
  7677  1568  0828               	movf	??___fladd,w
  7678  1569  05A2               	andwf	___fladd@b+2,f
  7679  156A                     l517:	
  7680  156A  087B               	movf	___fladd@bexp,w
  7681  156B  00A8               	movwf	??___fladd
  7682  156C  1003               	clrc
  7683  156D  0C28               	rrf	??___fladd,w
  7684  156E  00A9               	movwf	??___fladd+1
  7685  156F  0829               	movf	??___fladd+1,w
  7686  1570  00A3               	movwf	___fladd@b+3
  7687  1571  1FF9               	btfss	___fladd@signs,7
  7688  1572  0008               	return
  7689  1573  17A3               	bsf	___fladd@b+3,7
  7690  1574  0008               	return
  7691  1575                     __end_of___fladd:	
  7692                           
  7693                           	psect	text17
  7694  0CEB                     __ptext17:	
  7695 ;; *************** function ___flmul *****************
  7696 ;; Defined at:
  7697 ;;		line 8 in file "C:\Program Files (x86)\Microchip\xc8\v2.05\pic\sources\c90\common\sprcmul.c"
  7698 ;; Parameters:    Size  Location     Type
  7699 ;;  b               4   46[BANK0 ] unsigned char 
  7700 ;;  a               4   50[BANK0 ] unsigned char 
  7701 ;; Auto vars:     Size  Location     Type
  7702 ;;  prod            4   66[BANK0 ] struct .
  7703 ;;  grs             4   60[BANK0 ] unsigned long 
  7704 ;;  temp            2   70[BANK0 ] struct .
  7705 ;;  bexp            1   65[BANK0 ] unsigned char 
  7706 ;;  aexp            1   64[BANK0 ] unsigned char 
  7707 ;;  sign            1   59[BANK0 ] unsigned char 
  7708 ;; Return value:  Size  Location     Type
  7709 ;;                  4   46[BANK0 ] unsigned char 
  7710 ;; Registers used:
  7711 ;;		wreg, status,2, status,0, btemp+1, pclath, cstack
  7712 ;; Tracked objects:
  7713 ;;		On entry : 0/0
  7714 ;;		On exit  : 0/0
  7715 ;;		Unchanged: 0/0
  7716 ;; Data sizes:     COMMON   BANK0   BANK1   BANK3   BANK2
  7717 ;;      Params:         0       8       0       0       0
  7718 ;;      Locals:         0      13       0       0       0
  7719 ;;      Temps:          0       5       0       0       0
  7720 ;;      Totals:         0      26       0       0       0
  7721 ;;Total ram usage:       26 bytes
  7722 ;; Hardware stack levels used:    1
  7723 ;; Hardware stack levels required when called:    1
  7724 ;; This function calls:
  7725 ;;		__Umul8_16
  7726 ;; This function is called by:
  7727 ;;		_UART_send_float
  7728 ;;		_main
  7729 ;;		_asin
  7730 ;;		_atan
  7731 ;;		_eval_poly
  7732 ;; This function uses a non-reentrant model
  7733 ;;
  7734                           
  7735                           
  7736                           ;psect for function ___flmul
  7737  0CEB                     ___flmul:	
  7738                           
  7739                           ;incstack = 0
  7740                           ; Regs used in ___flmul: [wreg+status,2+status,0+btemp+1+pclath+cstack]
  7741  0CEB  1283               	bcf	3,5	;RP0=0, select bank0
  7742  0CEC  1303               	bcf	3,6	;RP1=0, select bank0
  7743  0CED  0851               	movf	___flmul@b+3,w
  7744  0CEE  3980               	andlw	128
  7745  0CEF  00D6               	movwf	??___flmul
  7746  0CF0  0856               	movf	??___flmul,w
  7747  0CF1  00DB               	movwf	___flmul@sign
  7748  0CF2  0851               	movf	___flmul@b+3,w
  7749  0CF3  00D6               	movwf	??___flmul
  7750  0CF4  0756               	addwf	??___flmul,w
  7751  0CF5  00D7               	movwf	??___flmul+1
  7752  0CF6  0857               	movf	??___flmul+1,w
  7753  0CF7  00E1               	movwf	___flmul@bexp
  7754  0CF8  1BD0               	btfsc	___flmul@b+2,7
  7755  0CF9  1461               	bsf	___flmul@bexp,0
  7756  0CFA  0861               	movf	___flmul@bexp,w
  7757  0CFB  1903               	btfsc	3,2
  7758  0CFC  2D0A               	goto	l2149
  7759  0CFD  0A61               	incf	___flmul@bexp,w
  7760  0CFE  1D03               	btfss	3,2
  7761  0CFF  2D08               	goto	l2147
  7762  0D00  3000               	movlw	0
  7763  0D01  00D1               	movwf	___flmul@b+3
  7764  0D02  3000               	movlw	0
  7765  0D03  00D0               	movwf	___flmul@b+2
  7766  0D04  3000               	movlw	0
  7767  0D05  00CF               	movwf	___flmul@b+1
  7768  0D06  3000               	movlw	0
  7769  0D07  00CE               	movwf	___flmul@b
  7770  0D08                     l2147:	
  7771  0D08  17D0               	bsf	___flmul@b+2,7
  7772  0D09  2D12               	goto	l2151
  7773  0D0A                     l2149:	
  7774  0D0A  3000               	movlw	0
  7775  0D0B  00D1               	movwf	___flmul@b+3
  7776  0D0C  3000               	movlw	0
  7777  0D0D  00D0               	movwf	___flmul@b+2
  7778  0D0E  3000               	movlw	0
  7779  0D0F  00CF               	movwf	___flmul@b+1
  7780  0D10  3000               	movlw	0
  7781  0D11  00CE               	movwf	___flmul@b
  7782  0D12                     l2151:	
  7783  0D12  0855               	movf	___flmul@a+3,w
  7784  0D13  3980               	andlw	128
  7785  0D14  00D6               	movwf	??___flmul
  7786  0D15  0856               	movf	??___flmul,w
  7787  0D16  06DB               	xorwf	___flmul@sign,f
  7788  0D17  0855               	movf	___flmul@a+3,w
  7789  0D18  00D6               	movwf	??___flmul
  7790  0D19  0756               	addwf	??___flmul,w
  7791  0D1A  00D7               	movwf	??___flmul+1
  7792  0D1B  0857               	movf	??___flmul+1,w
  7793  0D1C  00E0               	movwf	___flmul@aexp
  7794  0D1D  1BD4               	btfsc	___flmul@a+2,7
  7795  0D1E  1460               	bsf	___flmul@aexp,0
  7796  0D1F  0860               	movf	___flmul@aexp,w
  7797  0D20  1903               	btfsc	3,2
  7798  0D21  2D2F               	goto	l2167
  7799  0D22  0A60               	incf	___flmul@aexp,w
  7800  0D23  1D03               	btfss	3,2
  7801  0D24  2D2D               	goto	l2165
  7802  0D25  3000               	movlw	0
  7803  0D26  00D5               	movwf	___flmul@a+3
  7804  0D27  3000               	movlw	0
  7805  0D28  00D4               	movwf	___flmul@a+2
  7806  0D29  3000               	movlw	0
  7807  0D2A  00D3               	movwf	___flmul@a+1
  7808  0D2B  3000               	movlw	0
  7809  0D2C  00D2               	movwf	___flmul@a
  7810  0D2D                     l2165:	
  7811  0D2D  17D4               	bsf	___flmul@a+2,7
  7812  0D2E  2D37               	goto	l2169
  7813  0D2F                     l2167:	
  7814  0D2F  3000               	movlw	0
  7815  0D30  00D5               	movwf	___flmul@a+3
  7816  0D31  3000               	movlw	0
  7817  0D32  00D4               	movwf	___flmul@a+2
  7818  0D33  3000               	movlw	0
  7819  0D34  00D3               	movwf	___flmul@a+1
  7820  0D35  3000               	movlw	0
  7821  0D36  00D2               	movwf	___flmul@a
  7822  0D37                     l2169:	
  7823  0D37  0860               	movf	___flmul@aexp,w
  7824  0D38  1D03               	btfss	3,2
  7825  0D39  0861               	movf	___flmul@bexp,w
  7826  0D3A  1D03               	btfss	3,2
  7827  0D3B  2D45               	goto	l2177
  7828  0D3C  3000               	movlw	0
  7829  0D3D  00D1               	movwf	?___flmul+3
  7830  0D3E  3000               	movlw	0
  7831  0D3F  00D0               	movwf	?___flmul+2
  7832  0D40  3000               	movlw	0
  7833  0D41  00CF               	movwf	?___flmul+1
  7834  0D42  3000               	movlw	0
  7835  0D43  00CE               	movwf	?___flmul
  7836  0D44  0008               	return
  7837  0D45                     l2177:	
  7838  0D45  084E               	movf	___flmul@b,w
  7839  0D46  00D6               	movwf	??___flmul
  7840  0D47  0856               	movf	??___flmul,w
  7841  0D48  00F0               	movwf	__Umul8_16@multiplicand
  7842  0D49  0854               	movf	___flmul@a+2,w
  7843  0D4A  160A  158A  231D  120A  158A  	fcall	__Umul8_16
  7844  0D4F  0871               	movf	?__Umul8_16+1,w
  7845  0D50  1283               	bcf	3,5	;RP0=0, select bank0
  7846  0D51  1303               	bcf	3,6	;RP1=0, select bank0
  7847  0D52  00E7               	movwf	___flmul@temp+1
  7848  0D53  0870               	movf	?__Umul8_16,w
  7849  0D54  00E6               	movwf	___flmul@temp
  7850  0D55  0866               	movf	___flmul@temp,w
  7851  0D56  00D6               	movwf	??___flmul
  7852  0D57  01D7               	clrf	??___flmul+1
  7853  0D58  01D8               	clrf	??___flmul+2
  7854  0D59  01D9               	clrf	??___flmul+3
  7855  0D5A  0859               	movf	??___flmul+3,w
  7856  0D5B  00DF               	movwf	___flmul@grs+3
  7857  0D5C  0858               	movf	??___flmul+2,w
  7858  0D5D  00DE               	movwf	___flmul@grs+2
  7859  0D5E  0857               	movf	??___flmul+1,w
  7860  0D5F  00DD               	movwf	___flmul@grs+1
  7861  0D60  0856               	movf	??___flmul,w
  7862  0D61  00DC               	movwf	___flmul@grs
  7863  0D62  0867               	movf	___flmul@temp+1,w
  7864  0D63  00D6               	movwf	??___flmul
  7865  0D64  01D7               	clrf	??___flmul+1
  7866  0D65  01D8               	clrf	??___flmul+2
  7867  0D66  01D9               	clrf	??___flmul+3
  7868  0D67  0859               	movf	??___flmul+3,w
  7869  0D68  00E5               	movwf	___flmul@prod+3
  7870  0D69  0858               	movf	??___flmul+2,w
  7871  0D6A  00E4               	movwf	___flmul@prod+2
  7872  0D6B  0857               	movf	??___flmul+1,w
  7873  0D6C  00E3               	movwf	___flmul@prod+1
  7874  0D6D  0856               	movf	??___flmul,w
  7875  0D6E  00E2               	movwf	___flmul@prod
  7876  0D6F  084F               	movf	___flmul@b+1,w
  7877  0D70  00D6               	movwf	??___flmul
  7878  0D71  0856               	movf	??___flmul,w
  7879  0D72  00F0               	movwf	__Umul8_16@multiplicand
  7880  0D73  0853               	movf	___flmul@a+1,w
  7881  0D74  160A  158A  231D  120A  158A  	fcall	__Umul8_16
  7882  0D79  0871               	movf	?__Umul8_16+1,w
  7883  0D7A  1283               	bcf	3,5	;RP0=0, select bank0
  7884  0D7B  1303               	bcf	3,6	;RP1=0, select bank0
  7885  0D7C  00E7               	movwf	___flmul@temp+1
  7886  0D7D  0870               	movf	?__Umul8_16,w
  7887  0D7E  00E6               	movwf	___flmul@temp
  7888  0D7F  0866               	movf	___flmul@temp,w
  7889  0D80  00D6               	movwf	??___flmul
  7890  0D81  01D7               	clrf	??___flmul+1
  7891  0D82  01D8               	clrf	??___flmul+2
  7892  0D83  01D9               	clrf	??___flmul+3
  7893  0D84  0856               	movf	??___flmul,w
  7894  0D85  07DC               	addwf	___flmul@grs,f
  7895  0D86  0857               	movf	??___flmul+1,w
  7896  0D87  1103               	clrz
  7897  0D88  1803               	skipnc
  7898  0D89  3E01               	addlw	1
  7899  0D8A  1D03               	btfss	3,2
  7900  0D8B  07DD               	addwf	___flmul@grs+1,f
  7901  0D8C  0858               	movf	??___flmul+2,w
  7902  0D8D  1103               	clrz
  7903  0D8E  1803               	skipnc
  7904  0D8F  3E01               	addlw	1
  7905  0D90  1D03               	btfss	3,2
  7906  0D91  07DE               	addwf	___flmul@grs+2,f
  7907  0D92  0859               	movf	??___flmul+3,w
  7908  0D93  1103               	clrz
  7909  0D94  1803               	skipnc
  7910  0D95  3E01               	addlw	1
  7911  0D96  1D03               	btfss	3,2
  7912  0D97  07DF               	addwf	___flmul@grs+3,f
  7913  0D98  0867               	movf	___flmul@temp+1,w
  7914  0D99  00D6               	movwf	??___flmul
  7915  0D9A  01D7               	clrf	??___flmul+1
  7916  0D9B  01D8               	clrf	??___flmul+2
  7917  0D9C  01D9               	clrf	??___flmul+3
  7918  0D9D  0856               	movf	??___flmul,w
  7919  0D9E  07E2               	addwf	___flmul@prod,f
  7920  0D9F  0857               	movf	??___flmul+1,w
  7921  0DA0  1103               	clrz
  7922  0DA1  1803               	skipnc
  7923  0DA2  3E01               	addlw	1
  7924  0DA3  1D03               	btfss	3,2
  7925  0DA4  07E3               	addwf	___flmul@prod+1,f
  7926  0DA5  0858               	movf	??___flmul+2,w
  7927  0DA6  1103               	clrz
  7928  0DA7  1803               	skipnc
  7929  0DA8  3E01               	addlw	1
  7930  0DA9  1D03               	btfss	3,2
  7931  0DAA  07E4               	addwf	___flmul@prod+2,f
  7932  0DAB  0859               	movf	??___flmul+3,w
  7933  0DAC  1103               	clrz
  7934  0DAD  1803               	skipnc
  7935  0DAE  3E01               	addlw	1
  7936  0DAF  1D03               	btfss	3,2
  7937  0DB0  07E5               	addwf	___flmul@prod+3,f
  7938  0DB1  0850               	movf	___flmul@b+2,w
  7939  0DB2  00D6               	movwf	??___flmul
  7940  0DB3  0856               	movf	??___flmul,w
  7941  0DB4  00F0               	movwf	__Umul8_16@multiplicand
  7942  0DB5  0852               	movf	___flmul@a,w
  7943  0DB6  160A  158A  231D  120A  158A  	fcall	__Umul8_16
  7944  0DBB  0871               	movf	?__Umul8_16+1,w
  7945  0DBC  1283               	bcf	3,5	;RP0=0, select bank0
  7946  0DBD  1303               	bcf	3,6	;RP1=0, select bank0
  7947  0DBE  00E7               	movwf	___flmul@temp+1
  7948  0DBF  0870               	movf	?__Umul8_16,w
  7949  0DC0  00E6               	movwf	___flmul@temp
  7950  0DC1  0866               	movf	___flmul@temp,w
  7951  0DC2  00D6               	movwf	??___flmul
  7952  0DC3  01D7               	clrf	??___flmul+1
  7953  0DC4  01D8               	clrf	??___flmul+2
  7954  0DC5  01D9               	clrf	??___flmul+3
  7955  0DC6  0856               	movf	??___flmul,w
  7956  0DC7  07DC               	addwf	___flmul@grs,f
  7957  0DC8  0857               	movf	??___flmul+1,w
  7958  0DC9  1103               	clrz
  7959  0DCA  1803               	skipnc
  7960  0DCB  3E01               	addlw	1
  7961  0DCC  1D03               	btfss	3,2
  7962  0DCD  07DD               	addwf	___flmul@grs+1,f
  7963  0DCE  0858               	movf	??___flmul+2,w
  7964  0DCF  1103               	clrz
  7965  0DD0  1803               	skipnc
  7966  0DD1  3E01               	addlw	1
  7967  0DD2  1D03               	btfss	3,2
  7968  0DD3  07DE               	addwf	___flmul@grs+2,f
  7969  0DD4  0859               	movf	??___flmul+3,w
  7970  0DD5  1103               	clrz
  7971  0DD6  1803               	skipnc
  7972  0DD7  3E01               	addlw	1
  7973  0DD8  1D03               	btfss	3,2
  7974  0DD9  07DF               	addwf	___flmul@grs+3,f
  7975  0DDA  0867               	movf	___flmul@temp+1,w
  7976  0DDB  00D6               	movwf	??___flmul
  7977  0DDC  01D7               	clrf	??___flmul+1
  7978  0DDD  01D8               	clrf	??___flmul+2
  7979  0DDE  01D9               	clrf	??___flmul+3
  7980  0DDF  0856               	movf	??___flmul,w
  7981  0DE0  07E2               	addwf	___flmul@prod,f
  7982  0DE1  0857               	movf	??___flmul+1,w
  7983  0DE2  1103               	clrz
  7984  0DE3  1803               	skipnc
  7985  0DE4  3E01               	addlw	1
  7986  0DE5  1D03               	btfss	3,2
  7987  0DE6  07E3               	addwf	___flmul@prod+1,f
  7988  0DE7  0858               	movf	??___flmul+2,w
  7989  0DE8  1103               	clrz
  7990  0DE9  1803               	skipnc
  7991  0DEA  3E01               	addlw	1
  7992  0DEB  1D03               	btfss	3,2
  7993  0DEC  07E4               	addwf	___flmul@prod+2,f
  7994  0DED  0859               	movf	??___flmul+3,w
  7995  0DEE  1103               	clrz
  7996  0DEF  1803               	skipnc
  7997  0DF0  3E01               	addlw	1
  7998  0DF1  1D03               	btfss	3,2
  7999  0DF2  07E5               	addwf	___flmul@prod+3,f
  8000  0DF3  3008               	movlw	8
  8001  0DF4  00D6               	movwf	??___flmul
  8002  0DF5                     u2845:	
  8003  0DF5  1003               	clrc
  8004  0DF6  0DDC               	rlf	___flmul@grs,f
  8005  0DF7  0DDD               	rlf	___flmul@grs+1,f
  8006  0DF8  0DDE               	rlf	___flmul@grs+2,f
  8007  0DF9  0DDF               	rlf	___flmul@grs+3,f
  8008  0DFA  0BD6               	decfsz	??___flmul,f
  8009  0DFB  2DF5               	goto	u2845
  8010  0DFC  084F               	movf	___flmul@b+1,w
  8011  0DFD  00D6               	movwf	??___flmul
  8012  0DFE  0856               	movf	??___flmul,w
  8013  0DFF  00F0               	movwf	__Umul8_16@multiplicand
  8014  0E00  0852               	movf	___flmul@a,w
  8015  0E01  160A  158A  231D  120A  158A  	fcall	__Umul8_16
  8016  0E06  0871               	movf	?__Umul8_16+1,w
  8017  0E07  1283               	bcf	3,5	;RP0=0, select bank0
  8018  0E08  1303               	bcf	3,6	;RP1=0, select bank0
  8019  0E09  00E7               	movwf	___flmul@temp+1
  8020  0E0A  0870               	movf	?__Umul8_16,w
  8021  0E0B  00E6               	movwf	___flmul@temp
  8022  0E0C  0866               	movf	___flmul@temp,w
  8023  0E0D  00D6               	movwf	??___flmul
  8024  0E0E  0867               	movf	___flmul@temp+1,w
  8025  0E0F  00D7               	movwf	??___flmul+1
  8026  0E10  01D8               	clrf	??___flmul+2
  8027  0E11  01D9               	clrf	??___flmul+3
  8028  0E12  0856               	movf	??___flmul,w
  8029  0E13  07DC               	addwf	___flmul@grs,f
  8030  0E14  0857               	movf	??___flmul+1,w
  8031  0E15  1103               	clrz
  8032  0E16  1803               	skipnc
  8033  0E17  3E01               	addlw	1
  8034  0E18  1D03               	btfss	3,2
  8035  0E19  07DD               	addwf	___flmul@grs+1,f
  8036  0E1A  0858               	movf	??___flmul+2,w
  8037  0E1B  1103               	clrz
  8038  0E1C  1803               	skipnc
  8039  0E1D  3E01               	addlw	1
  8040  0E1E  1D03               	btfss	3,2
  8041  0E1F  07DE               	addwf	___flmul@grs+2,f
  8042  0E20  0859               	movf	??___flmul+3,w
  8043  0E21  1103               	clrz
  8044  0E22  1803               	skipnc
  8045  0E23  3E01               	addlw	1
  8046  0E24  1D03               	btfss	3,2
  8047  0E25  07DF               	addwf	___flmul@grs+3,f
  8048  0E26  084E               	movf	___flmul@b,w
  8049  0E27  00D6               	movwf	??___flmul
  8050  0E28  0856               	movf	??___flmul,w
  8051  0E29  00F0               	movwf	__Umul8_16@multiplicand
  8052  0E2A  0853               	movf	___flmul@a+1,w
  8053  0E2B  160A  158A  231D  120A  158A  	fcall	__Umul8_16
  8054  0E30  0871               	movf	?__Umul8_16+1,w
  8055  0E31  1283               	bcf	3,5	;RP0=0, select bank0
  8056  0E32  1303               	bcf	3,6	;RP1=0, select bank0
  8057  0E33  00E7               	movwf	___flmul@temp+1
  8058  0E34  0870               	movf	?__Umul8_16,w
  8059  0E35  00E6               	movwf	___flmul@temp
  8060  0E36  0866               	movf	___flmul@temp,w
  8061  0E37  00D6               	movwf	??___flmul
  8062  0E38  0867               	movf	___flmul@temp+1,w
  8063  0E39  00D7               	movwf	??___flmul+1
  8064  0E3A  01D8               	clrf	??___flmul+2
  8065  0E3B  01D9               	clrf	??___flmul+3
  8066  0E3C  0856               	movf	??___flmul,w
  8067  0E3D  07DC               	addwf	___flmul@grs,f
  8068  0E3E  0857               	movf	??___flmul+1,w
  8069  0E3F  1103               	clrz
  8070  0E40  1803               	skipnc
  8071  0E41  3E01               	addlw	1
  8072  0E42  1D03               	btfss	3,2
  8073  0E43  07DD               	addwf	___flmul@grs+1,f
  8074  0E44  0858               	movf	??___flmul+2,w
  8075  0E45  1103               	clrz
  8076  0E46  1803               	skipnc
  8077  0E47  3E01               	addlw	1
  8078  0E48  1D03               	btfss	3,2
  8079  0E49  07DE               	addwf	___flmul@grs+2,f
  8080  0E4A  0859               	movf	??___flmul+3,w
  8081  0E4B  1103               	clrz
  8082  0E4C  1803               	skipnc
  8083  0E4D  3E01               	addlw	1
  8084  0E4E  1D03               	btfss	3,2
  8085  0E4F  07DF               	addwf	___flmul@grs+3,f
  8086  0E50  3008               	movlw	8
  8087  0E51  00D6               	movwf	??___flmul
  8088  0E52                     u2875:	
  8089  0E52  1003               	clrc
  8090  0E53  0DDC               	rlf	___flmul@grs,f
  8091  0E54  0DDD               	rlf	___flmul@grs+1,f
  8092  0E55  0DDE               	rlf	___flmul@grs+2,f
  8093  0E56  0DDF               	rlf	___flmul@grs+3,f
  8094  0E57  0BD6               	decfsz	??___flmul,f
  8095  0E58  2E52               	goto	u2875
  8096  0E59  084E               	movf	___flmul@b,w
  8097  0E5A  00D6               	movwf	??___flmul
  8098  0E5B  0856               	movf	??___flmul,w
  8099  0E5C  00F0               	movwf	__Umul8_16@multiplicand
  8100  0E5D  0852               	movf	___flmul@a,w
  8101  0E5E  160A  158A  231D  120A  158A  	fcall	__Umul8_16
  8102  0E63  0871               	movf	?__Umul8_16+1,w
  8103  0E64  1283               	bcf	3,5	;RP0=0, select bank0
  8104  0E65  1303               	bcf	3,6	;RP1=0, select bank0
  8105  0E66  00E7               	movwf	___flmul@temp+1
  8106  0E67  0870               	movf	?__Umul8_16,w
  8107  0E68  00E6               	movwf	___flmul@temp
  8108  0E69  0866               	movf	___flmul@temp,w
  8109  0E6A  00D6               	movwf	??___flmul
  8110  0E6B  0867               	movf	___flmul@temp+1,w
  8111  0E6C  00D7               	movwf	??___flmul+1
  8112  0E6D  01D8               	clrf	??___flmul+2
  8113  0E6E  01D9               	clrf	??___flmul+3
  8114  0E6F  0856               	movf	??___flmul,w
  8115  0E70  07DC               	addwf	___flmul@grs,f
  8116  0E71  0857               	movf	??___flmul+1,w
  8117  0E72  1103               	clrz
  8118  0E73  1803               	skipnc
  8119  0E74  3E01               	addlw	1
  8120  0E75  1D03               	btfss	3,2
  8121  0E76  07DD               	addwf	___flmul@grs+1,f
  8122  0E77  0858               	movf	??___flmul+2,w
  8123  0E78  1103               	clrz
  8124  0E79  1803               	skipnc
  8125  0E7A  3E01               	addlw	1
  8126  0E7B  1D03               	btfss	3,2
  8127  0E7C  07DE               	addwf	___flmul@grs+2,f
  8128  0E7D  0859               	movf	??___flmul+3,w
  8129  0E7E  1103               	clrz
  8130  0E7F  1803               	skipnc
  8131  0E80  3E01               	addlw	1
  8132  0E81  1D03               	btfss	3,2
  8133  0E82  07DF               	addwf	___flmul@grs+3,f
  8134  0E83  084F               	movf	___flmul@b+1,w
  8135  0E84  00D6               	movwf	??___flmul
  8136  0E85  0856               	movf	??___flmul,w
  8137  0E86  00F0               	movwf	__Umul8_16@multiplicand
  8138  0E87  0854               	movf	___flmul@a+2,w
  8139  0E88  160A  158A  231D  120A  158A  	fcall	__Umul8_16
  8140  0E8D  0871               	movf	?__Umul8_16+1,w
  8141  0E8E  1283               	bcf	3,5	;RP0=0, select bank0
  8142  0E8F  1303               	bcf	3,6	;RP1=0, select bank0
  8143  0E90  00E7               	movwf	___flmul@temp+1
  8144  0E91  0870               	movf	?__Umul8_16,w
  8145  0E92  00E6               	movwf	___flmul@temp
  8146  0E93  0866               	movf	___flmul@temp,w
  8147  0E94  00D6               	movwf	??___flmul
  8148  0E95  0867               	movf	___flmul@temp+1,w
  8149  0E96  00D7               	movwf	??___flmul+1
  8150  0E97  01D8               	clrf	??___flmul+2
  8151  0E98  01D9               	clrf	??___flmul+3
  8152  0E99  0856               	movf	??___flmul,w
  8153  0E9A  07E2               	addwf	___flmul@prod,f
  8154  0E9B  0857               	movf	??___flmul+1,w
  8155  0E9C  1103               	clrz
  8156  0E9D  1803               	skipnc
  8157  0E9E  3E01               	addlw	1
  8158  0E9F  1D03               	btfss	3,2
  8159  0EA0  07E3               	addwf	___flmul@prod+1,f
  8160  0EA1  0858               	movf	??___flmul+2,w
  8161  0EA2  1103               	clrz
  8162  0EA3  1803               	skipnc
  8163  0EA4  3E01               	addlw	1
  8164  0EA5  1D03               	btfss	3,2
  8165  0EA6  07E4               	addwf	___flmul@prod+2,f
  8166  0EA7  0859               	movf	??___flmul+3,w
  8167  0EA8  1103               	clrz
  8168  0EA9  1803               	skipnc
  8169  0EAA  3E01               	addlw	1
  8170  0EAB  1D03               	btfss	3,2
  8171  0EAC  07E5               	addwf	___flmul@prod+3,f
  8172  0EAD  0850               	movf	___flmul@b+2,w
  8173  0EAE  00D6               	movwf	??___flmul
  8174  0EAF  0856               	movf	??___flmul,w
  8175  0EB0  00F0               	movwf	__Umul8_16@multiplicand
  8176  0EB1  0853               	movf	___flmul@a+1,w
  8177  0EB2  160A  158A  231D  120A  158A  	fcall	__Umul8_16
  8178  0EB7  0871               	movf	?__Umul8_16+1,w
  8179  0EB8  1283               	bcf	3,5	;RP0=0, select bank0
  8180  0EB9  1303               	bcf	3,6	;RP1=0, select bank0
  8181  0EBA  00E7               	movwf	___flmul@temp+1
  8182  0EBB  0870               	movf	?__Umul8_16,w
  8183  0EBC  00E6               	movwf	___flmul@temp
  8184  0EBD  0866               	movf	___flmul@temp,w
  8185  0EBE  00D6               	movwf	??___flmul
  8186  0EBF  0867               	movf	___flmul@temp+1,w
  8187  0EC0  00D7               	movwf	??___flmul+1
  8188  0EC1  01D8               	clrf	??___flmul+2
  8189  0EC2  01D9               	clrf	??___flmul+3
  8190  0EC3  0856               	movf	??___flmul,w
  8191  0EC4  07E2               	addwf	___flmul@prod,f
  8192  0EC5  0857               	movf	??___flmul+1,w
  8193  0EC6  1103               	clrz
  8194  0EC7  1803               	skipnc
  8195  0EC8  3E01               	addlw	1
  8196  0EC9  1D03               	btfss	3,2
  8197  0ECA  07E3               	addwf	___flmul@prod+1,f
  8198  0ECB  0858               	movf	??___flmul+2,w
  8199  0ECC  1103               	clrz
  8200  0ECD  1803               	skipnc
  8201  0ECE  3E01               	addlw	1
  8202  0ECF  1D03               	btfss	3,2
  8203  0ED0  07E4               	addwf	___flmul@prod+2,f
  8204  0ED1  0859               	movf	??___flmul+3,w
  8205  0ED2  1103               	clrz
  8206  0ED3  1803               	skipnc
  8207  0ED4  3E01               	addlw	1
  8208  0ED5  1D03               	btfss	3,2
  8209  0ED6  07E5               	addwf	___flmul@prod+3,f
  8210  0ED7  0850               	movf	___flmul@b+2,w
  8211  0ED8  00D6               	movwf	??___flmul
  8212  0ED9  0856               	movf	??___flmul,w
  8213  0EDA  00F0               	movwf	__Umul8_16@multiplicand
  8214  0EDB  0854               	movf	___flmul@a+2,w
  8215  0EDC  160A  158A  231D  120A  158A  	fcall	__Umul8_16
  8216  0EE1  0871               	movf	?__Umul8_16+1,w
  8217  0EE2  1283               	bcf	3,5	;RP0=0, select bank0
  8218  0EE3  1303               	bcf	3,6	;RP1=0, select bank0
  8219  0EE4  00E7               	movwf	___flmul@temp+1
  8220  0EE5  0870               	movf	?__Umul8_16,w
  8221  0EE6  00E6               	movwf	___flmul@temp
  8222  0EE7  0866               	movf	___flmul@temp,w
  8223  0EE8  00D6               	movwf	??___flmul
  8224  0EE9  0867               	movf	___flmul@temp+1,w
  8225  0EEA  00D7               	movwf	??___flmul+1
  8226  0EEB  01D8               	clrf	??___flmul+2
  8227  0EEC  01D9               	clrf	??___flmul+3
  8228  0EED  3008               	movlw	8
  8229  0EEE                     u2915:	
  8230  0EEE  1003               	clrc
  8231  0EEF  0DD6               	rlf	??___flmul,f
  8232  0EF0  0DD7               	rlf	??___flmul+1,f
  8233  0EF1  0DD8               	rlf	??___flmul+2,f
  8234  0EF2  0DD9               	rlf	??___flmul+3,f
  8235  0EF3  3EFF               	addlw	-1
  8236  0EF4  1D03               	skipz
  8237  0EF5  2EEE               	goto	u2915
  8238  0EF6  0856               	movf	??___flmul,w
  8239  0EF7  07E2               	addwf	___flmul@prod,f
  8240  0EF8  0857               	movf	??___flmul+1,w
  8241  0EF9  1103               	clrz
  8242  0EFA  1803               	skipnc
  8243  0EFB  3E01               	addlw	1
  8244  0EFC  1D03               	btfss	3,2
  8245  0EFD  07E3               	addwf	___flmul@prod+1,f
  8246  0EFE  0858               	movf	??___flmul+2,w
  8247  0EFF  1103               	clrz
  8248  0F00  1803               	skipnc
  8249  0F01  3E01               	addlw	1
  8250  0F02  1D03               	btfss	3,2
  8251  0F03  07E4               	addwf	___flmul@prod+2,f
  8252  0F04  0859               	movf	??___flmul+3,w
  8253  0F05  1103               	clrz
  8254  0F06  1803               	skipnc
  8255  0F07  3E01               	addlw	1
  8256  0F08  1D03               	btfss	3,2
  8257  0F09  07E5               	addwf	___flmul@prod+3,f
  8258  0F0A  085C               	movf	___flmul@grs,w
  8259  0F0B  00D6               	movwf	??___flmul
  8260  0F0C  085D               	movf	___flmul@grs+1,w
  8261  0F0D  00D7               	movwf	??___flmul+1
  8262  0F0E  085E               	movf	___flmul@grs+2,w
  8263  0F0F  00D8               	movwf	??___flmul+2
  8264  0F10  085F               	movf	___flmul@grs+3,w
  8265  0F11  00D9               	movwf	??___flmul+3
  8266  0F12  3018               	movlw	24
  8267  0F13                     u2935:	
  8268  0F13  1003               	clrc
  8269  0F14  0CD9               	rrf	??___flmul+3,f
  8270  0F15  0CD8               	rrf	??___flmul+2,f
  8271  0F16  0CD7               	rrf	??___flmul+1,f
  8272  0F17  0CD6               	rrf	??___flmul,f
  8273  0F18  3EFF               	addlw	-1
  8274  0F19  1D03               	skipz
  8275  0F1A  2F13               	goto	u2935
  8276  0F1B  0856               	movf	??___flmul,w
  8277  0F1C  07E2               	addwf	___flmul@prod,f
  8278  0F1D  0857               	movf	??___flmul+1,w
  8279  0F1E  1103               	clrz
  8280  0F1F  1803               	skipnc
  8281  0F20  3E01               	addlw	1
  8282  0F21  1D03               	btfss	3,2
  8283  0F22  07E3               	addwf	___flmul@prod+1,f
  8284  0F23  0858               	movf	??___flmul+2,w
  8285  0F24  1103               	clrz
  8286  0F25  1803               	skipnc
  8287  0F26  3E01               	addlw	1
  8288  0F27  1D03               	btfss	3,2
  8289  0F28  07E4               	addwf	___flmul@prod+2,f
  8290  0F29  0859               	movf	??___flmul+3,w
  8291  0F2A  1103               	clrz
  8292  0F2B  1803               	skipnc
  8293  0F2C  3E01               	addlw	1
  8294  0F2D  1D03               	btfss	3,2
  8295  0F2E  07E5               	addwf	___flmul@prod+3,f
  8296  0F2F  3008               	movlw	8
  8297  0F30  00D6               	movwf	??___flmul
  8298  0F31                     u2955:	
  8299  0F31  1003               	clrc
  8300  0F32  0DDC               	rlf	___flmul@grs,f
  8301  0F33  0DDD               	rlf	___flmul@grs+1,f
  8302  0F34  0DDE               	rlf	___flmul@grs+2,f
  8303  0F35  0DDF               	rlf	___flmul@grs+3,f
  8304  0F36  0BD6               	decfsz	??___flmul,f
  8305  0F37  2F31               	goto	u2955
  8306  0F38  0861               	movf	___flmul@bexp,w
  8307  0F39  0760               	addwf	___flmul@aexp,w
  8308  0F3A  00D6               	movwf	??___flmul
  8309  0F3B  01D7               	clrf	??___flmul+1
  8310  0F3C  0DD7               	rlf	??___flmul+1,f
  8311  0F3D  0856               	movf	??___flmul,w
  8312  0F3E  3E82               	addlw	130
  8313  0F3F  00E6               	movwf	___flmul@temp
  8314  0F40  0857               	movf	??___flmul+1,w
  8315  0F41  1803               	skipnc
  8316  0F42  3E01               	addlw	1
  8317  0F43  3EFF               	addlw	255
  8318  0F44  00E7               	movwf	___flmul@temp+1
  8319  0F45                     l2229:	
  8320  0F45  1BE4               	btfsc	___flmul@prod+2,7
  8321  0F46  2F62               	goto	l2231
  8322  0F47  3001               	movlw	1
  8323  0F48  00D6               	movwf	??___flmul
  8324  0F49                     u2965:	
  8325  0F49  1003               	clrc
  8326  0F4A  0DE2               	rlf	___flmul@prod,f
  8327  0F4B  0DE3               	rlf	___flmul@prod+1,f
  8328  0F4C  0DE4               	rlf	___flmul@prod+2,f
  8329  0F4D  0DE5               	rlf	___flmul@prod+3,f
  8330  0F4E  0BD6               	decfsz	??___flmul,f
  8331  0F4F  2F49               	goto	u2965
  8332  0F50  1BDF               	btfsc	___flmul@grs+3,7
  8333  0F51  1462               	bsf	___flmul@prod,0
  8334  0F52  3001               	movlw	1
  8335  0F53  00D6               	movwf	??___flmul
  8336  0F54                     u2985:	
  8337  0F54  1003               	clrc
  8338  0F55  0DDC               	rlf	___flmul@grs,f
  8339  0F56  0DDD               	rlf	___flmul@grs+1,f
  8340  0F57  0DDE               	rlf	___flmul@grs+2,f
  8341  0F58  0DDF               	rlf	___flmul@grs+3,f
  8342  0F59  0BD6               	decfsz	??___flmul,f
  8343  0F5A  2F54               	goto	u2985
  8344  0F5B  30FF               	movlw	255
  8345  0F5C  07E6               	addwf	___flmul@temp,f
  8346  0F5D  1803               	skipnc
  8347  0F5E  0AE7               	incf	___flmul@temp+1,f
  8348  0F5F  30FF               	movlw	255
  8349  0F60  07E7               	addwf	___flmul@temp+1,f
  8350  0F61  2F45               	goto	l2229
  8351  0F62                     l2231:	
  8352  0F62  01E0               	clrf	___flmul@aexp
  8353  0F63  1FDF               	btfss	___flmul@grs+3,7
  8354  0F64  2F7B               	goto	l2241
  8355  0F65  30FF               	movlw	255
  8356  0F66  055C               	andwf	___flmul@grs,w
  8357  0F67  00D6               	movwf	??___flmul
  8358  0F68  30FF               	movlw	255
  8359  0F69  055D               	andwf	___flmul@grs+1,w
  8360  0F6A  00D7               	movwf	??___flmul+1
  8361  0F6B  30FF               	movlw	255
  8362  0F6C  055E               	andwf	___flmul@grs+2,w
  8363  0F6D  00D8               	movwf	??___flmul+2
  8364  0F6E  307F               	movlw	127
  8365  0F6F  055F               	andwf	___flmul@grs+3,w
  8366  0F70  00D9               	movwf	??___flmul+3
  8367  0F71  0859               	movf	??___flmul+3,w
  8368  0F72  0458               	iorwf	??___flmul+2,w
  8369  0F73  0457               	iorwf	??___flmul+1,w
  8370  0F74  0456               	iorwf	??___flmul,w
  8371  0F75  1903               	skipnz
  8372  0F76  1862               	btfsc	___flmul@prod,0
  8373  0F77  2F79               	goto	l2237
  8374  0F78  2F7B               	goto	l2241
  8375  0F79                     l2237:	
  8376  0F79  01E0               	clrf	___flmul@aexp
  8377  0F7A  0AE0               	incf	___flmul@aexp,f
  8378  0F7B                     l2241:	
  8379  0F7B  0860               	movf	___flmul@aexp,w
  8380  0F7C  1903               	btfsc	3,2
  8381  0F7D  2FAD               	goto	l2251
  8382  0F7E  3001               	movlw	1
  8383  0F7F  07E2               	addwf	___flmul@prod,f
  8384  0F80  3000               	movlw	0
  8385  0F81  1803               	skipnc
  8386  0F82  3001               	movlw	1
  8387  0F83  07E3               	addwf	___flmul@prod+1,f
  8388  0F84  3000               	movlw	0
  8389  0F85  1803               	skipnc
  8390  0F86  3001               	movlw	1
  8391  0F87  07E4               	addwf	___flmul@prod+2,f
  8392  0F88  3000               	movlw	0
  8393  0F89  1803               	skipnc
  8394  0F8A  3001               	movlw	1
  8395  0F8B  07E5               	addwf	___flmul@prod+3,f
  8396  0F8C  1C65               	btfss	___flmul@prod+3,0
  8397  0F8D  2FAD               	goto	l2251
  8398  0F8E  0862               	movf	___flmul@prod,w
  8399  0F8F  00D6               	movwf	??___flmul
  8400  0F90  0863               	movf	___flmul@prod+1,w
  8401  0F91  00D7               	movwf	??___flmul+1
  8402  0F92  0864               	movf	___flmul@prod+2,w
  8403  0F93  00D8               	movwf	??___flmul+2
  8404  0F94  0865               	movf	___flmul@prod+3,w
  8405  0F95  00D9               	movwf	??___flmul+3
  8406  0F96  3001               	movlw	1
  8407  0F97  00DA               	movwf	??___flmul+4
  8408  0F98                     u3055:	
  8409  0F98  0D59               	rlf	??___flmul+3,w
  8410  0F99  0CD9               	rrf	??___flmul+3,f
  8411  0F9A  0CD8               	rrf	??___flmul+2,f
  8412  0F9B  0CD7               	rrf	??___flmul+1,f
  8413  0F9C  0CD6               	rrf	??___flmul,f
  8414  0F9D  0BDA               	decfsz	??___flmul+4,f
  8415  0F9E  2F98               	goto	u3055
  8416  0F9F  0859               	movf	??___flmul+3,w
  8417  0FA0  00E5               	movwf	___flmul@prod+3
  8418  0FA1  0858               	movf	??___flmul+2,w
  8419  0FA2  00E4               	movwf	___flmul@prod+2
  8420  0FA3  0857               	movf	??___flmul+1,w
  8421  0FA4  00E3               	movwf	___flmul@prod+1
  8422  0FA5  0856               	movf	??___flmul,w
  8423  0FA6  00E2               	movwf	___flmul@prod
  8424  0FA7  3001               	movlw	1
  8425  0FA8  07E6               	addwf	___flmul@temp,f
  8426  0FA9  1803               	skipnc
  8427  0FAA  0AE7               	incf	___flmul@temp+1,f
  8428  0FAB  3000               	movlw	0
  8429  0FAC  07E7               	addwf	___flmul@temp+1,f
  8430  0FAD                     l2251:	
  8431  0FAD  0867               	movf	___flmul@temp+1,w
  8432  0FAE  3A80               	xorlw	128
  8433  0FAF  00FF               	movwf	127
  8434  0FB0  3080               	movlw	128
  8435  0FB1  027F               	subwf	127,w
  8436  0FB2  1D03               	skipz
  8437  0FB3  2FB6               	goto	u3065
  8438  0FB4  30FF               	movlw	255
  8439  0FB5  0266               	subwf	___flmul@temp,w
  8440  0FB6                     u3065:	
  8441  0FB6  1C03               	skipc
  8442  0FB7  2FC3               	goto	l2255
  8443  0FB8  307F               	movlw	127
  8444  0FB9  1283               	bcf	3,5	;RP0=0, select bank0
  8445  0FBA  1303               	bcf	3,6	;RP1=0, select bank0
  8446  0FBB  00E5               	movwf	___flmul@prod+3
  8447  0FBC  3080               	movlw	128
  8448  0FBD  00E4               	movwf	___flmul@prod+2
  8449  0FBE  3000               	movlw	0
  8450  0FBF  00E3               	movwf	___flmul@prod+1
  8451  0FC0  3000               	movlw	0
  8452  0FC1  00E2               	movwf	___flmul@prod
  8453  0FC2  2FF3               	goto	l583
  8454  0FC3                     l2255:	
  8455  0FC3  1283               	bcf	3,5	;RP0=0, select bank0
  8456  0FC4  1303               	bcf	3,6	;RP1=0, select bank0
  8457  0FC5  0867               	movf	___flmul@temp+1,w
  8458  0FC6  3A80               	xorlw	128
  8459  0FC7  00FF               	movwf	127
  8460  0FC8  3080               	movlw	128
  8461  0FC9  027F               	subwf	127,w
  8462  0FCA  1D03               	skipz
  8463  0FCB  2FCE               	goto	u3075
  8464  0FCC  3001               	movlw	1
  8465  0FCD  0266               	subwf	___flmul@temp,w
  8466  0FCE                     u3075:	
  8467  0FCE  1803               	skipnc
  8468  0FCF  2FDC               	goto	l2261
  8469  0FD0  3000               	movlw	0
  8470  0FD1  1283               	bcf	3,5	;RP0=0, select bank0
  8471  0FD2  1303               	bcf	3,6	;RP1=0, select bank0
  8472  0FD3  00E5               	movwf	___flmul@prod+3
  8473  0FD4  3000               	movlw	0
  8474  0FD5  00E4               	movwf	___flmul@prod+2
  8475  0FD6  3000               	movlw	0
  8476  0FD7  00E3               	movwf	___flmul@prod+1
  8477  0FD8  3000               	movlw	0
  8478  0FD9  00E2               	movwf	___flmul@prod
  8479  0FDA  01DB               	clrf	___flmul@sign
  8480  0FDB  2FF3               	goto	l583
  8481  0FDC                     l2261:	
  8482  0FDC  1283               	bcf	3,5	;RP0=0, select bank0
  8483  0FDD  1303               	bcf	3,6	;RP1=0, select bank0
  8484  0FDE  0866               	movf	___flmul@temp,w
  8485  0FDF  00D6               	movwf	??___flmul
  8486  0FE0  0856               	movf	??___flmul,w
  8487  0FE1  00E1               	movwf	___flmul@bexp
  8488  0FE2  30FF               	movlw	255
  8489  0FE3  05E2               	andwf	___flmul@prod,f
  8490  0FE4  30FF               	movlw	255
  8491  0FE5  05E3               	andwf	___flmul@prod+1,f
  8492  0FE6  307F               	movlw	127
  8493  0FE7  05E4               	andwf	___flmul@prod+2,f
  8494  0FE8  3000               	movlw	0
  8495  0FE9  05E5               	andwf	___flmul@prod+3,f
  8496  0FEA  1861               	btfsc	___flmul@bexp,0
  8497  0FEB  17E4               	bsf	___flmul@prod+2,7
  8498  0FEC  0861               	movf	___flmul@bexp,w
  8499  0FED  00D6               	movwf	??___flmul
  8500  0FEE  1003               	clrc
  8501  0FEF  0C56               	rrf	??___flmul,w
  8502  0FF0  00D7               	movwf	??___flmul+1
  8503  0FF1  0857               	movf	??___flmul+1,w
  8504  0FF2  00E5               	movwf	___flmul@prod+3
  8505  0FF3                     l583:	
  8506  0FF3  085B               	movf	___flmul@sign,w
  8507  0FF4  00D6               	movwf	??___flmul
  8508  0FF5  0856               	movf	??___flmul,w
  8509  0FF6  04E5               	iorwf	___flmul@prod+3,f
  8510  0FF7  0865               	movf	___flmul@prod+3,w
  8511  0FF8  00D1               	movwf	?___flmul+3
  8512  0FF9  0864               	movf	___flmul@prod+2,w
  8513  0FFA  00D0               	movwf	?___flmul+2
  8514  0FFB  0863               	movf	___flmul@prod+1,w
  8515  0FFC  00CF               	movwf	?___flmul+1
  8516  0FFD  0862               	movf	___flmul@prod,w
  8517  0FFE  00CE               	movwf	?___flmul
  8518  0FFF  0008               	return
  8519  1000                     __end_of___flmul:	
  8520                           
  8521                           	psect	text18
  8522  1B1D                     __ptext18:	
  8523 ;; *************** function __Umul8_16 *****************
  8524 ;; Defined at:
  8525 ;;		line 4 in file "C:\Program Files (x86)\Microchip\xc8\v2.05\pic\sources\c90\common\Umul8_16.c"
  8526 ;; Parameters:    Size  Location     Type
  8527 ;;  multiplier      1    wreg     unsigned char 
  8528 ;;  multiplicand    1    0[COMMON] unsigned char 
  8529 ;; Auto vars:     Size  Location     Type
  8530 ;;  multiplier      1    8[COMMON] unsigned char 
  8531 ;;  word_mpld       2    6[COMMON] unsigned int 
  8532 ;;  product         2    4[COMMON] unsigned int 
  8533 ;; Return value:  Size  Location     Type
  8534 ;;                  2    0[COMMON] unsigned int 
  8535 ;; Registers used:
  8536 ;;		wreg, status,2, status,0
  8537 ;; Tracked objects:
  8538 ;;		On entry : 0/0
  8539 ;;		On exit  : 0/0
  8540 ;;		Unchanged: 0/0
  8541 ;; Data sizes:     COMMON   BANK0   BANK1   BANK3   BANK2
  8542 ;;      Params:         2       0       0       0       0
  8543 ;;      Locals:         5       0       0       0       0
  8544 ;;      Temps:          2       0       0       0       0
  8545 ;;      Totals:         9       0       0       0       0
  8546 ;;Total ram usage:        9 bytes
  8547 ;; Hardware stack levels used:    1
  8548 ;; This function calls:
  8549 ;;		Nothing
  8550 ;; This function is called by:
  8551 ;;		___flmul
  8552 ;; This function uses a non-reentrant model
  8553 ;;
  8554                           
  8555                           
  8556                           ;psect for function __Umul8_16
  8557  1B1D                     __Umul8_16:	
  8558                           
  8559                           ;incstack = 0
  8560                           ; Regs used in __Umul8_16: [wreg+status,2+status,0]
  8561                           ;__Umul8_16@multiplier stored from wreg
  8562  1B1D  00F8               	movwf	__Umul8_16@multiplier
  8563  1B1E  01F4               	clrf	__Umul8_16@product
  8564  1B1F  01F5               	clrf	__Umul8_16@product+1
  8565  1B20  0870               	movf	__Umul8_16@multiplicand,w
  8566  1B21  00F2               	movwf	??__Umul8_16
  8567  1B22  01F3               	clrf	??__Umul8_16+1
  8568  1B23  0872               	movf	??__Umul8_16,w
  8569  1B24  00F6               	movwf	__Umul8_16@word_mpld
  8570  1B25  0873               	movf	??__Umul8_16+1,w
  8571  1B26  00F7               	movwf	__Umul8_16@word_mpld+1
  8572  1B27                     l1901:	
  8573  1B27  1C78               	btfss	__Umul8_16@multiplier,0
  8574  1B28  2B2F               	goto	l697
  8575  1B29  0876               	movf	__Umul8_16@word_mpld,w
  8576  1B2A  07F4               	addwf	__Umul8_16@product,f
  8577  1B2B  1803               	skipnc
  8578  1B2C  0AF5               	incf	__Umul8_16@product+1,f
  8579  1B2D  0877               	movf	__Umul8_16@word_mpld+1,w
  8580  1B2E  07F5               	addwf	__Umul8_16@product+1,f
  8581  1B2F                     l697:	
  8582  1B2F  3001               	movlw	1
  8583  1B30                     u2165:	
  8584  1B30  1003               	clrc
  8585  1B31  0DF6               	rlf	__Umul8_16@word_mpld,f
  8586  1B32  0DF7               	rlf	__Umul8_16@word_mpld+1,f
  8587  1B33  3EFF               	addlw	-1
  8588  1B34  1D03               	skipz
  8589  1B35  2B30               	goto	u2165
  8590  1B36  1003               	clrc
  8591  1B37  0CF8               	rrf	__Umul8_16@multiplier,f
  8592  1B38  0878               	movf	__Umul8_16@multiplier,w
  8593  1B39  1D03               	btfss	3,2
  8594  1B3A  2B27               	goto	l1901
  8595  1B3B  0875               	movf	__Umul8_16@product+1,w
  8596  1B3C  00F1               	movwf	?__Umul8_16+1
  8597  1B3D  0874               	movf	__Umul8_16@product,w
  8598  1B3E  00F0               	movwf	?__Umul8_16
  8599  1B3F  0008               	return
  8600  1B40                     __end_of__Umul8_16:	
  8601                           
  8602                           	psect	text19
  8603  1B8A                     __ptext19:	
  8604 ;; *************** function ___awmod *****************
  8605 ;; Defined at:
  8606 ;;		line 5 in file "C:\Program Files (x86)\Microchip\xc8\v2.05\pic\sources\c90\common\awmod.c"
  8607 ;; Parameters:    Size  Location     Type
  8608 ;;  divisor         2    0[COMMON] int 
  8609 ;;  dividend        2    2[COMMON] int 
  8610 ;; Auto vars:     Size  Location     Type
  8611 ;;  sign            1    6[COMMON] unsigned char 
  8612 ;;  counter         1    5[COMMON] unsigned char 
  8613 ;; Return value:  Size  Location     Type
  8614 ;;                  2    0[COMMON] int 
  8615 ;; Registers used:
  8616 ;;		wreg, status,2, status,0
  8617 ;; Tracked objects:
  8618 ;;		On entry : 0/0
  8619 ;;		On exit  : 0/0
  8620 ;;		Unchanged: 0/0
  8621 ;; Data sizes:     COMMON   BANK0   BANK1   BANK3   BANK2
  8622 ;;      Params:         4       0       0       0       0
  8623 ;;      Locals:         2       0       0       0       0
  8624 ;;      Temps:          1       0       0       0       0
  8625 ;;      Totals:         7       0       0       0       0
  8626 ;;Total ram usage:        7 bytes
  8627 ;; Hardware stack levels used:    1
  8628 ;; This function calls:
  8629 ;;		Nothing
  8630 ;; This function is called by:
  8631 ;;		_UART_send_float
  8632 ;; This function uses a non-reentrant model
  8633 ;;
  8634                           
  8635                           
  8636                           ;psect for function ___awmod
  8637  1B8A                     ___awmod:	
  8638                           
  8639                           ;incstack = 0
  8640                           ; Regs used in ___awmod: [wreg+status,2+status,0]
  8641  1B8A  01F6               	clrf	___awmod@sign
  8642  1B8B  1FF3               	btfss	___awmod@dividend+1,7
  8643  1B8C  2B94               	goto	l2623
  8644  1B8D  09F2               	comf	___awmod@dividend,f
  8645  1B8E  09F3               	comf	___awmod@dividend+1,f
  8646  1B8F  0AF2               	incf	___awmod@dividend,f
  8647  1B90  1903               	skipnz
  8648  1B91  0AF3               	incf	___awmod@dividend+1,f
  8649  1B92  01F6               	clrf	___awmod@sign
  8650  1B93  0AF6               	incf	___awmod@sign,f
  8651  1B94                     l2623:	
  8652  1B94  1FF1               	btfss	___awmod@divisor+1,7
  8653  1B95  2B9B               	goto	l2627
  8654  1B96  09F0               	comf	___awmod@divisor,f
  8655  1B97  09F1               	comf	___awmod@divisor+1,f
  8656  1B98  0AF0               	incf	___awmod@divisor,f
  8657  1B99  1903               	skipnz
  8658  1B9A  0AF1               	incf	___awmod@divisor+1,f
  8659  1B9B                     l2627:	
  8660  1B9B  0870               	movf	___awmod@divisor,w
  8661  1B9C  0471               	iorwf	___awmod@divisor+1,w
  8662  1B9D  1903               	btfsc	3,2
  8663  1B9E  2BC8               	goto	l2645
  8664  1B9F  01F5               	clrf	___awmod@counter
  8665  1BA0  0AF5               	incf	___awmod@counter,f
  8666  1BA1                     l2635:	
  8667  1BA1  1BF1               	btfsc	___awmod@divisor+1,7
  8668  1BA2  2BAF               	goto	l2637
  8669  1BA3  3001               	movlw	1
  8670  1BA4                     u3855:	
  8671  1BA4  1003               	clrc
  8672  1BA5  0DF0               	rlf	___awmod@divisor,f
  8673  1BA6  0DF1               	rlf	___awmod@divisor+1,f
  8674  1BA7  3EFF               	addlw	-1
  8675  1BA8  1D03               	skipz
  8676  1BA9  2BA4               	goto	u3855
  8677  1BAA  3001               	movlw	1
  8678  1BAB  00F4               	movwf	??___awmod
  8679  1BAC  0874               	movf	??___awmod,w
  8680  1BAD  07F5               	addwf	___awmod@counter,f
  8681  1BAE  2BA1               	goto	l2635
  8682  1BAF                     l2637:	
  8683  1BAF  0871               	movf	___awmod@divisor+1,w
  8684  1BB0  0273               	subwf	___awmod@dividend+1,w
  8685  1BB1  1D03               	skipz
  8686  1BB2  2BB5               	goto	u3875
  8687  1BB3  0870               	movf	___awmod@divisor,w
  8688  1BB4  0272               	subwf	___awmod@dividend,w
  8689  1BB5                     u3875:	
  8690  1BB5  1C03               	skipc
  8691  1BB6  2BBD               	goto	l2641
  8692  1BB7  0870               	movf	___awmod@divisor,w
  8693  1BB8  02F2               	subwf	___awmod@dividend,f
  8694  1BB9  0871               	movf	___awmod@divisor+1,w
  8695  1BBA  1C03               	skipc
  8696  1BBB  03F3               	decf	___awmod@dividend+1,f
  8697  1BBC  02F3               	subwf	___awmod@dividend+1,f
  8698  1BBD                     l2641:	
  8699  1BBD  3001               	movlw	1
  8700  1BBE                     u3885:	
  8701  1BBE  1003               	clrc
  8702  1BBF  0CF1               	rrf	___awmod@divisor+1,f
  8703  1BC0  0CF0               	rrf	___awmod@divisor,f
  8704  1BC1  3EFF               	addlw	-1
  8705  1BC2  1D03               	skipz
  8706  1BC3  2BBE               	goto	u3885
  8707  1BC4  3001               	movlw	1
  8708  1BC5  02F5               	subwf	___awmod@counter,f
  8709  1BC6  1D03               	btfss	3,2
  8710  1BC7  2BAF               	goto	l2637
  8711  1BC8                     l2645:	
  8712  1BC8  0876               	movf	___awmod@sign,w
  8713  1BC9  1903               	btfsc	3,2
  8714  1BCA  2BD0               	goto	l2649
  8715  1BCB  09F2               	comf	___awmod@dividend,f
  8716  1BCC  09F3               	comf	___awmod@dividend+1,f
  8717  1BCD  0AF2               	incf	___awmod@dividend,f
  8718  1BCE  1903               	skipnz
  8719  1BCF  0AF3               	incf	___awmod@dividend+1,f
  8720  1BD0                     l2649:	
  8721  1BD0  0873               	movf	___awmod@dividend+1,w
  8722  1BD1  00F1               	movwf	?___awmod+1
  8723  1BD2  0872               	movf	___awmod@dividend,w
  8724  1BD3  00F0               	movwf	?___awmod
  8725  1BD4  0008               	return
  8726  1BD5                     __end_of___awmod:	
  8727                           
  8728                           	psect	text20
  8729  1BD5                     __ptext20:	
  8730 ;; *************** function ___awdiv *****************
  8731 ;; Defined at:
  8732 ;;		line 5 in file "C:\Program Files (x86)\Microchip\xc8\v2.05\pic\sources\c90\common\awdiv.c"
  8733 ;; Parameters:    Size  Location     Type
  8734 ;;  divisor         2    0[COMMON] int 
  8735 ;;  dividend        2    2[COMMON] int 
  8736 ;; Auto vars:     Size  Location     Type
  8737 ;;  quotient        2    7[COMMON] int 
  8738 ;;  sign            1    6[COMMON] unsigned char 
  8739 ;;  counter         1    5[COMMON] unsigned char 
  8740 ;; Return value:  Size  Location     Type
  8741 ;;                  2    0[COMMON] int 
  8742 ;; Registers used:
  8743 ;;		wreg, status,2, status,0
  8744 ;; Tracked objects:
  8745 ;;		On entry : 0/0
  8746 ;;		On exit  : 0/0
  8747 ;;		Unchanged: 0/0
  8748 ;; Data sizes:     COMMON   BANK0   BANK1   BANK3   BANK2
  8749 ;;      Params:         4       0       0       0       0
  8750 ;;      Locals:         4       0       0       0       0
  8751 ;;      Temps:          1       0       0       0       0
  8752 ;;      Totals:         9       0       0       0       0
  8753 ;;Total ram usage:        9 bytes
  8754 ;; Hardware stack levels used:    1
  8755 ;; This function calls:
  8756 ;;		Nothing
  8757 ;; This function is called by:
  8758 ;;		_UART_send_float
  8759 ;; This function uses a non-reentrant model
  8760 ;;
  8761                           
  8762                           
  8763                           ;psect for function ___awdiv
  8764  1BD5                     ___awdiv:	
  8765                           
  8766                           ;incstack = 0
  8767                           ; Regs used in ___awdiv: [wreg+status,2+status,0]
  8768  1BD5  01F6               	clrf	___awdiv@sign
  8769  1BD6  1FF1               	btfss	___awdiv@divisor+1,7
  8770  1BD7  2BDF               	goto	l2579
  8771  1BD8  09F0               	comf	___awdiv@divisor,f
  8772  1BD9  09F1               	comf	___awdiv@divisor+1,f
  8773  1BDA  0AF0               	incf	___awdiv@divisor,f
  8774  1BDB  1903               	skipnz
  8775  1BDC  0AF1               	incf	___awdiv@divisor+1,f
  8776  1BDD  01F6               	clrf	___awdiv@sign
  8777  1BDE  0AF6               	incf	___awdiv@sign,f
  8778  1BDF                     l2579:	
  8779  1BDF  1FF3               	btfss	___awdiv@dividend+1,7
  8780  1BE0  2BEA               	goto	l2585
  8781  1BE1  09F2               	comf	___awdiv@dividend,f
  8782  1BE2  09F3               	comf	___awdiv@dividend+1,f
  8783  1BE3  0AF2               	incf	___awdiv@dividend,f
  8784  1BE4  1903               	skipnz
  8785  1BE5  0AF3               	incf	___awdiv@dividend+1,f
  8786  1BE6  3001               	movlw	1
  8787  1BE7  00F4               	movwf	??___awdiv
  8788  1BE8  0874               	movf	??___awdiv,w
  8789  1BE9  06F6               	xorwf	___awdiv@sign,f
  8790  1BEA                     l2585:	
  8791  1BEA  01F7               	clrf	___awdiv@quotient
  8792  1BEB  01F8               	clrf	___awdiv@quotient+1
  8793  1BEC  0870               	movf	___awdiv@divisor,w
  8794  1BED  0471               	iorwf	___awdiv@divisor+1,w
  8795  1BEE  1903               	btfsc	3,2
  8796  1BEF  2C21               	goto	l2607
  8797  1BF0  01F5               	clrf	___awdiv@counter
  8798  1BF1  0AF5               	incf	___awdiv@counter,f
  8799  1BF2                     l2595:	
  8800  1BF2  1BF1               	btfsc	___awdiv@divisor+1,7
  8801  1BF3  2C00               	goto	l2597
  8802  1BF4  3001               	movlw	1
  8803  1BF5                     u3755:	
  8804  1BF5  1003               	clrc
  8805  1BF6  0DF0               	rlf	___awdiv@divisor,f
  8806  1BF7  0DF1               	rlf	___awdiv@divisor+1,f
  8807  1BF8  3EFF               	addlw	-1
  8808  1BF9  1D03               	skipz
  8809  1BFA  2BF5               	goto	u3755
  8810  1BFB  3001               	movlw	1
  8811  1BFC  00F4               	movwf	??___awdiv
  8812  1BFD  0874               	movf	??___awdiv,w
  8813  1BFE  07F5               	addwf	___awdiv@counter,f
  8814  1BFF  2BF2               	goto	l2595
  8815  1C00                     l2597:	
  8816  1C00  3001               	movlw	1
  8817  1C01                     u3775:	
  8818  1C01  1003               	clrc
  8819  1C02  0DF7               	rlf	___awdiv@quotient,f
  8820  1C03  0DF8               	rlf	___awdiv@quotient+1,f
  8821  1C04  3EFF               	addlw	-1
  8822  1C05  1D03               	skipz
  8823  1C06  2C01               	goto	u3775
  8824  1C07  0871               	movf	___awdiv@divisor+1,w
  8825  1C08  0273               	subwf	___awdiv@dividend+1,w
  8826  1C09  1D03               	skipz
  8827  1C0A  2C0D               	goto	u3785
  8828  1C0B  0870               	movf	___awdiv@divisor,w
  8829  1C0C  0272               	subwf	___awdiv@dividend,w
  8830  1C0D                     u3785:	
  8831  1C0D  1C03               	skipc
  8832  1C0E  2C16               	goto	l2603
  8833  1C0F  0870               	movf	___awdiv@divisor,w
  8834  1C10  02F2               	subwf	___awdiv@dividend,f
  8835  1C11  0871               	movf	___awdiv@divisor+1,w
  8836  1C12  1C03               	skipc
  8837  1C13  03F3               	decf	___awdiv@dividend+1,f
  8838  1C14  02F3               	subwf	___awdiv@dividend+1,f
  8839  1C15  1477               	bsf	___awdiv@quotient,0
  8840  1C16                     l2603:	
  8841  1C16  3001               	movlw	1
  8842  1C17                     u3795:	
  8843  1C17  1003               	clrc
  8844  1C18  0CF1               	rrf	___awdiv@divisor+1,f
  8845  1C19  0CF0               	rrf	___awdiv@divisor,f
  8846  1C1A  3EFF               	addlw	-1
  8847  1C1B  1D03               	skipz
  8848  1C1C  2C17               	goto	u3795
  8849  1C1D  3001               	movlw	1
  8850  1C1E  02F5               	subwf	___awdiv@counter,f
  8851  1C1F  1D03               	btfss	3,2
  8852  1C20  2C00               	goto	l2597
  8853  1C21                     l2607:	
  8854  1C21  0876               	movf	___awdiv@sign,w
  8855  1C22  1903               	btfsc	3,2
  8856  1C23  2C29               	goto	l2611
  8857  1C24  09F7               	comf	___awdiv@quotient,f
  8858  1C25  09F8               	comf	___awdiv@quotient+1,f
  8859  1C26  0AF7               	incf	___awdiv@quotient,f
  8860  1C27  1903               	skipnz
  8861  1C28  0AF8               	incf	___awdiv@quotient+1,f
  8862  1C29                     l2611:	
  8863  1C29  0878               	movf	___awdiv@quotient+1,w
  8864  1C2A  00F1               	movwf	?___awdiv+1
  8865  1C2B  0877               	movf	___awdiv@quotient,w
  8866  1C2C  00F0               	movwf	?___awdiv
  8867  1C2D  0008               	return
  8868  1C2E                     __end_of___awdiv:	
  8869                           
  8870                           	psect	text21
  8871  0004                     __ptext21:	
  8872 ;; *************** function _UART_send_char *****************
  8873 ;; Defined at:
  8874 ;;		line 67 in file "sun_usart.c"
  8875 ;; Parameters:    Size  Location     Type
  8876 ;;  bt              1    wreg     unsigned char 
  8877 ;; Auto vars:     Size  Location     Type
  8878 ;;  bt              1    0[COMMON] unsigned char 
  8879 ;; Return value:  Size  Location     Type
  8880 ;;                  1    wreg      void 
  8881 ;; Registers used:
  8882 ;;		wreg
  8883 ;; Tracked objects:
  8884 ;;		On entry : 0/0
  8885 ;;		On exit  : 0/0
  8886 ;;		Unchanged: 0/0
  8887 ;; Data sizes:     COMMON   BANK0   BANK1   BANK3   BANK2
  8888 ;;      Params:         0       0       0       0       0
  8889 ;;      Locals:         1       0       0       0       0
  8890 ;;      Temps:          0       0       0       0       0
  8891 ;;      Totals:         1       0       0       0       0
  8892 ;;Total ram usage:        1 bytes
  8893 ;; Hardware stack levels used:    1
  8894 ;; This function calls:
  8895 ;;		Nothing
  8896 ;; This function is called by:
  8897 ;;		_UART_send_string
  8898 ;;		_UART_send_float
  8899 ;;		_main
  8900 ;; This function uses a non-reentrant model
  8901 ;;
  8902                           
  8903                           
  8904                           ;psect for function _UART_send_char
  8905  0004                     _UART_send_char:	
  8906                           
  8907                           ;incstack = 0
  8908                           ; Regs used in _UART_send_char: [wreg]
  8909                           ;UART_send_char@bt stored from wreg
  8910  0004  00F0               	movwf	UART_send_char@bt
  8911  0005                     l61:	
  8912                           ;sun_usart.c: 67: void UART_send_char(char bt);sun_usart.c: 68: {;sun_usart.c: 69:     w
      +                          hile(!TXIF);
  8913                           
  8914  0005  1283               	bcf	3,5	;RP0=0, select bank0
  8915  0006  1303               	bcf	3,6	;RP1=0, select bank0
  8916  0007  1E0C               	btfss	12,4	;volatile
  8917  0008  2805               	goto	l61
  8918                           
  8919                           ;sun_usart.c: 70:     TXREG = bt;
  8920  0009  0870               	movf	UART_send_char@bt,w
  8921  000A  0099               	movwf	25	;volatile
  8922  000B  0008               	return
  8923  000C                     __end_of_UART_send_char:	
  8924                           
  8925                           	psect	text22
  8926  1AC7                     __ptext22:	
  8927 ;; *************** function _Initialize_UART *****************
  8928 ;; Defined at:
  8929 ;;		line 36 in file "sun_usart.c"
  8930 ;; Parameters:    Size  Location     Type
  8931 ;;		None
  8932 ;; Auto vars:     Size  Location     Type
  8933 ;;		None
  8934 ;; Return value:  Size  Location     Type
  8935 ;;                  1    wreg      void 
  8936 ;; Registers used:
  8937 ;;		wreg
  8938 ;; Tracked objects:
  8939 ;;		On entry : 0/0
  8940 ;;		On exit  : 0/0
  8941 ;;		Unchanged: 0/0
  8942 ;; Data sizes:     COMMON   BANK0   BANK1   BANK3   BANK2
  8943 ;;      Params:         0       0       0       0       0
  8944 ;;      Locals:         0       0       0       0       0
  8945 ;;      Temps:          0       0       0       0       0
  8946 ;;      Totals:         0       0       0       0       0
  8947 ;;Total ram usage:        0 bytes
  8948 ;; Hardware stack levels used:    1
  8949 ;; This function calls:
  8950 ;;		Nothing
  8951 ;; This function is called by:
  8952 ;;		_main
  8953 ;; This function uses a non-reentrant model
  8954 ;;
  8955                           
  8956                           
  8957                           ;psect for function _Initialize_UART
  8958  1AC7                     _Initialize_UART:	
  8959                           
  8960                           ;sun_usart.c: 39:     TRISC6 = 0;
  8961                           
  8962                           ;incstack = 0
  8963                           ; Regs used in _Initialize_UART: [wreg]
  8964  1AC7  1683               	bsf	3,5	;RP0=1, select bank1
  8965  1AC8  1303               	bcf	3,6	;RP1=0, select bank1
  8966  1AC9  1307               	bcf	7,6	;volatile
  8967                           
  8968                           ;sun_usart.c: 40:     TRISC7 = 1;
  8969  1ACA  1787               	bsf	7,7	;volatile
  8970                           
  8971                           ;sun_usart.c: 45:     SPBRG = ((20000000/16)/9600) - 1;
  8972  1ACB  3081               	movlw	129
  8973  1ACC  0099               	movwf	25	;volatile
  8974                           
  8975                           ;sun_usart.c: 46:     BRGH = 1;
  8976  1ACD  1518               	bsf	24,2	;volatile
  8977                           
  8978                           ;sun_usart.c: 50:     SYNC = 0;
  8979  1ACE  1218               	bcf	24,4	;volatile
  8980                           
  8981                           ;sun_usart.c: 51:     SPEN = 1;
  8982  1ACF  1283               	bcf	3,5	;RP0=0, select bank0
  8983  1AD0  1303               	bcf	3,6	;RP1=0, select bank0
  8984  1AD1  1798               	bsf	24,7	;volatile
  8985                           
  8986                           ;sun_usart.c: 55:     TXEN = 1;
  8987  1AD2  1683               	bsf	3,5	;RP0=1, select bank1
  8988  1AD3  1303               	bcf	3,6	;RP1=0, select bank1
  8989  1AD4  1698               	bsf	24,5	;volatile
  8990                           
  8991                           ;sun_usart.c: 56:     CREN = 1;
  8992  1AD5  1283               	bcf	3,5	;RP0=0, select bank0
  8993  1AD6  1303               	bcf	3,6	;RP1=0, select bank0
  8994  1AD7  1618               	bsf	24,4	;volatile
  8995                           
  8996                           ;sun_usart.c: 60:     TX9 = 0;
  8997  1AD8  1683               	bsf	3,5	;RP0=1, select bank1
  8998  1AD9  1303               	bcf	3,6	;RP1=0, select bank1
  8999  1ADA  1318               	bcf	24,6	;volatile
  9000                           
  9001                           ;sun_usart.c: 61:     RX9 = 0;
  9002  1ADB  1283               	bcf	3,5	;RP0=0, select bank0
  9003  1ADC  1303               	bcf	3,6	;RP1=0, select bank0
  9004  1ADD  1318               	bcf	24,6	;volatile
  9005  1ADE  0008               	return
  9006  1ADF                     __end_of_Initialize_UART:	
  9007                           
  9008                           	psect	text23
  9009  0816                     __ptext23:	
  9010 ;; *************** function _ADC_Read *****************
  9011 ;; Defined at:
  9012 ;;		line 28 in file "sun_usart.c"
  9013 ;; Parameters:    Size  Location     Type
  9014 ;;  channel         1    wreg     unsigned char 
  9015 ;; Auto vars:     Size  Location     Type
  9016 ;;  channel         1    4[COMMON] unsigned char 
  9017 ;; Return value:  Size  Location     Type
  9018 ;;                  2    0[COMMON] unsigned int 
  9019 ;; Registers used:
  9020 ;;		wreg, status,2, status,0
  9021 ;; Tracked objects:
  9022 ;;		On entry : 0/0
  9023 ;;		On exit  : 0/0
  9024 ;;		Unchanged: 0/0
  9025 ;; Data sizes:     COMMON   BANK0   BANK1   BANK3   BANK2
  9026 ;;      Params:         2       0       0       0       0
  9027 ;;      Locals:         1       0       0       0       0
  9028 ;;      Temps:          2       0       0       0       0
  9029 ;;      Totals:         5       0       0       0       0
  9030 ;;Total ram usage:        5 bytes
  9031 ;; Hardware stack levels used:    1
  9032 ;; This function calls:
  9033 ;;		Nothing
  9034 ;; This function is called by:
  9035 ;;		_main
  9036 ;; This function uses a non-reentrant model
  9037 ;;
  9038                           
  9039                           
  9040                           ;psect for function _ADC_Read
  9041  0816                     _ADC_Read:	
  9042                           
  9043                           ;incstack = 0
  9044                           ; Regs used in _ADC_Read: [wreg+status,2+status,0]
  9045                           ;ADC_Read@channel stored from wreg
  9046  0816  00F4               	movwf	ADC_Read@channel
  9047                           
  9048                           ;sun_usart.c: 28: unsigned int ADC_Read(unsigned char channel);sun_usart.c: 29: {;sun_us
      +                          art.c: 30:   ADCON0 |= channel<<3;
  9049  0817  0874               	movf	ADC_Read@channel,w	;volatile
  9050  0818  00F2               	movwf	??_ADC_Read
  9051  0819  3002               	movlw	2
  9052  081A                     u4185:	
  9053  081A  1003               	clrc
  9054  081B  0DF2               	rlf	??_ADC_Read,f
  9055  081C  3EFF               	addlw	-1
  9056  081D  1D03               	skipz
  9057  081E  281A               	goto	u4185
  9058  081F  1003               	clrc
  9059  0820  0D72               	rlf	??_ADC_Read,w
  9060  0821  00F3               	movwf	??_ADC_Read+1
  9061  0822  0873               	movf	??_ADC_Read+1,w
  9062  0823  1283               	bcf	3,5	;RP0=0, select bank0
  9063  0824  1303               	bcf	3,6	;RP1=0, select bank0
  9064  0825  049F               	iorwf	31,f	;volatile
  9065                           
  9066                           ;sun_usart.c: 31:   _delay((unsigned long)((2)*(20000000/4000.0)));
  9067  0826  300D               	movlw	13
  9068  0827  00F3               	movwf	??_ADC_Read+1
  9069  0828  30FB               	movlw	251
  9070  0829  00F2               	movwf	??_ADC_Read
  9071  082A                     u4417:	
  9072  082A  0BF2               	decfsz	??_ADC_Read,f
  9073  082B  282A               	goto	u4417
  9074  082C  0BF3               	decfsz	??_ADC_Read+1,f
  9075  082D  282A               	goto	u4417
  9076  082E  282F               	nop2
  9077                           
  9078                           ;sun_usart.c: 32:   GO_nDONE = 1;
  9079  082F  1283               	bcf	3,5	;RP0=0, select bank0
  9080  0830  1303               	bcf	3,6	;RP1=0, select bank0
  9081  0831  151F               	bsf	31,2	;volatile
  9082  0832                     l52:	
  9083                           ;sun_usart.c: 33:   while(GO_nDONE);
  9084                           
  9085  0832  191F               	btfsc	31,2	;volatile
  9086  0833  2832               	goto	l52
  9087                           
  9088                           ;sun_usart.c: 34:   return ((ADRESH<<8)|ADRESL);
  9089  0834  081E               	movf	30,w	;volatile
  9090  0835  00F1               	movwf	?_ADC_Read+1
  9091  0836  1683               	bsf	3,5	;RP0=1, select bank1
  9092  0837  1303               	bcf	3,6	;RP1=0, select bank1
  9093  0838  081E               	movf	30,w	;volatile
  9094  0839  00F0               	movwf	?_ADC_Read
  9095  083A  0008               	return
  9096  083B                     __end_of_ADC_Read:	
  9097                           
  9098                           	psect	text24
  9099  080A                     __ptext24:	
  9100 ;; *************** function _ADC_Initialize *****************
  9101 ;; Defined at:
  9102 ;;		line 21 in file "sun_usart.c"
  9103 ;; Parameters:    Size  Location     Type
  9104 ;;		None
  9105 ;; Auto vars:     Size  Location     Type
  9106 ;;		None
  9107 ;; Return value:  Size  Location     Type
  9108 ;;                  1    wreg      void 
  9109 ;; Registers used:
  9110 ;;		wreg
  9111 ;; Tracked objects:
  9112 ;;		On entry : 0/0
  9113 ;;		On exit  : 0/0
  9114 ;;		Unchanged: 0/0
  9115 ;; Data sizes:     COMMON   BANK0   BANK1   BANK3   BANK2
  9116 ;;      Params:         0       0       0       0       0
  9117 ;;      Locals:         0       0       0       0       0
  9118 ;;      Temps:          0       0       0       0       0
  9119 ;;      Totals:         0       0       0       0       0
  9120 ;;Total ram usage:        0 bytes
  9121 ;; Hardware stack levels used:    1
  9122 ;; This function calls:
  9123 ;;		Nothing
  9124 ;; This function is called by:
  9125 ;;		_main
  9126 ;; This function uses a non-reentrant model
  9127 ;;
  9128                           
  9129                           
  9130                           ;psect for function _ADC_Initialize
  9131  080A                     _ADC_Initialize:	
  9132                           
  9133                           ;sun_usart.c: 23:   ADCON0 = 0b10000000;
  9134                           
  9135                           ;incstack = 0
  9136                           ; Regs used in _ADC_Initialize: [wreg]
  9137  080A  3080               	movlw	128
  9138  080B  1283               	bcf	3,5	;RP0=0, select bank0
  9139  080C  1303               	bcf	3,6	;RP1=0, select bank0
  9140  080D  009F               	movwf	31	;volatile
  9141                           
  9142                           ;sun_usart.c: 24:   ADCON1 = 0b10000000;
  9143  080E  3080               	movlw	128
  9144  080F  1683               	bsf	3,5	;RP0=1, select bank1
  9145  0810  1303               	bcf	3,6	;RP1=0, select bank1
  9146  0811  009F               	movwf	31	;volatile
  9147                           
  9148                           ;sun_usart.c: 25:  ADON=1;
  9149  0812  1283               	bcf	3,5	;RP0=0, select bank0
  9150  0813  1303               	bcf	3,6	;RP1=0, select bank0
  9151  0814  141F               	bsf	31,0	;volatile
  9152  0815  0008               	return
  9153  0816                     __end_of_ADC_Initialize:	
  9154  007E                     btemp	set	126	;btemp
  9155  007E                     wtemp0	set	126
  9156                           
  9157                           	psect	maintext_split_1
  9158  1057                     l3165:	
  9159                           
  9160                           ;sun_usart.c: 161: UART_send_string(" ");
  9161  1057  3072               	movlw	(low (((STR_11+12)-__stringbase)| (0+32768)))& (0+255)
  9162  1058  160A  158A  22DF  160A  118A  	fcall	_UART_send_string
  9163                           
  9164                           ;sun_usart.c: 162:     UART_send_string(" Z AXIS: ");
  9165  105D  308B               	movlw	(low ((STR_9-__stringbase)| (0+32768)))& (0+255)
  9166  105E  160A  158A  22DF  160A  118A  	fcall	_UART_send_string
  9167                           
  9168                           ;sun_usart.c: 163:     UART_send_float(C);UART_send_float(z); for(int i=0;i<10;i++)
  9169  1063  1683               	bsf	3,5	;RP0=1, select bank3
  9170  1064  1703               	bsf	3,6	;RP1=1, select bank3
  9171  1065  081B               	movf	(main@C+3)^(0+384),w
  9172  1066  1683               	bsf	3,5	;RP0=1, select bank1
  9173  1067  1303               	bcf	3,6	;RP1=0, select bank1
  9174  1068  00A8               	movwf	(UART_send_float@bt+3)^(0+128)
  9175  1069  1683               	bsf	3,5	;RP0=1, select bank3
  9176  106A  1703               	bsf	3,6	;RP1=1, select bank3
  9177  106B  081A               	movf	(main@C+2)^(0+384),w
  9178  106C  1683               	bsf	3,5	;RP0=1, select bank1
  9179  106D  1303               	bcf	3,6	;RP1=0, select bank1
  9180  106E  00A7               	movwf	(UART_send_float@bt+2)^(0+128)
  9181  106F  1683               	bsf	3,5	;RP0=1, select bank3
  9182  1070  1703               	bsf	3,6	;RP1=1, select bank3
  9183  1071  0819               	movf	(main@C+1)^(0+384),w
  9184  1072  1683               	bsf	3,5	;RP0=1, select bank1
  9185  1073  1303               	bcf	3,6	;RP1=0, select bank1
  9186  1074  00A6               	movwf	(UART_send_float@bt+1)^(0+128)
  9187  1075  1683               	bsf	3,5	;RP0=1, select bank3
  9188  1076  1703               	bsf	3,6	;RP1=1, select bank3
  9189  1077  0818               	movf	main@C^(0+384),w
  9190  1078  1683               	bsf	3,5	;RP0=1, select bank1
  9191  1079  1303               	bcf	3,6	;RP1=0, select bank1
  9192  107A  00A5               	movwf	UART_send_float@bt^(0+128)
  9193  107B  160A  158A  26D8  160A  118A  	fcall	_UART_send_float
  9194  1080  1683               	bsf	3,5	;RP0=1, select bank3
  9195  1081  1703               	bsf	3,6	;RP1=1, select bank3
  9196  1082  084B               	movf	(main@z+3)^(0+384),w
  9197  1083  1683               	bsf	3,5	;RP0=1, select bank1
  9198  1084  1303               	bcf	3,6	;RP1=0, select bank1
  9199  1085  00A8               	movwf	(UART_send_float@bt+3)^(0+128)
  9200  1086  1683               	bsf	3,5	;RP0=1, select bank3
  9201  1087  1703               	bsf	3,6	;RP1=1, select bank3
  9202  1088  084A               	movf	(main@z+2)^(0+384),w
  9203  1089  1683               	bsf	3,5	;RP0=1, select bank1
  9204  108A  1303               	bcf	3,6	;RP1=0, select bank1
  9205  108B  00A7               	movwf	(UART_send_float@bt+2)^(0+128)
  9206  108C  1683               	bsf	3,5	;RP0=1, select bank3
  9207  108D  1703               	bsf	3,6	;RP1=1, select bank3
  9208  108E  0849               	movf	(main@z+1)^(0+384),w
  9209  108F  1683               	bsf	3,5	;RP0=1, select bank1
  9210  1090  1303               	bcf	3,6	;RP1=0, select bank1
  9211  1091  00A6               	movwf	(UART_send_float@bt+1)^(0+128)
  9212  1092  1683               	bsf	3,5	;RP0=1, select bank3
  9213  1093  1703               	bsf	3,6	;RP1=1, select bank3
  9214  1094  0848               	movf	main@z^(0+384),w
  9215  1095  1683               	bsf	3,5	;RP0=1, select bank1
  9216  1096  1303               	bcf	3,6	;RP1=0, select bank1
  9217  1097  00A5               	movwf	UART_send_float@bt^(0+128)
  9218  1098  160A  158A  26D8  160A  118A  	fcall	_UART_send_float
  9219  109D  1683               	bsf	3,5	;RP0=1, select bank3
  9220  109E  1703               	bsf	3,6	;RP1=1, select bank3
  9221  109F  01BA               	clrf	main@i_109^(0+384)
  9222  10A0  01BB               	clrf	(main@i_109+1)^(0+384)
  9223  10A1                     l3173:	
  9224  10A1  083B               	movf	(main@i_109+1)^(0+384),w
  9225  10A2  3A80               	xorlw	128
  9226  10A3  00FF               	movwf	127
  9227  10A4  3080               	movlw	128
  9228  10A5  027F               	subwf	127,w
  9229  10A6  1D03               	skipz
  9230  10A7  28AA               	goto	u4375
  9231  10A8  300A               	movlw	10
  9232  10A9  023A               	subwf	main@i_109^(0+384),w
  9233  10AA                     u4375:	
  9234  10AA  1803               	btfsc	3,0
  9235  10AB  28BB               	goto	l3183
  9236                           
  9237                           ;sun_usart.c: 164: UART_send_char(9);
  9238  10AC  3009               	movlw	9
  9239  10AD  120A  118A  2004  160A  118A  	fcall	_UART_send_char
  9240  10B2  3001               	movlw	1
  9241  10B3  1683               	bsf	3,5	;RP0=1, select bank3
  9242  10B4  1703               	bsf	3,6	;RP1=1, select bank3
  9243  10B5  07BA               	addwf	main@i_109^(0+384),f
  9244  10B6  1803               	skipnc
  9245  10B7  0ABB               	incf	(main@i_109+1)^(0+384),f
  9246  10B8  3000               	movlw	0
  9247  10B9  07BB               	addwf	(main@i_109+1)^(0+384),f
  9248  10BA  28A1               	goto	l3173
  9249  10BB                     l3183:	
  9250                           
  9251                           ;sun_usart.c: 165: UART_send_string(" ");
  9252  10BB  3072               	movlw	(low (((STR_11+12)-__stringbase)| (0+32768)))& (0+255)
  9253  10BC  160A  158A  22DF  160A  118A  	fcall	_UART_send_string
  9254                           
  9255                           ;sun_usart.c: 166: UART_send_string(" NEG X AXIS: ");
  9256  10C1  3066               	movlw	(low ((STR_11-__stringbase)| (0+32768)))& (0+255)
  9257  10C2  160A  158A  22DF  160A  118A  	fcall	_UART_send_string
  9258                           
  9259                           ;sun_usart.c: 167:     UART_send_float(D);UART_send_float(negx); for(int i=0;i<10;i++)
  9260  10C7  1683               	bsf	3,5	;RP0=1, select bank3
  9261  10C8  1703               	bsf	3,6	;RP1=1, select bank3
  9262  10C9  081F               	movf	(main@D+3)^(0+384),w
  9263  10CA  1683               	bsf	3,5	;RP0=1, select bank1
  9264  10CB  1303               	bcf	3,6	;RP1=0, select bank1
  9265  10CC  00A8               	movwf	(UART_send_float@bt+3)^(0+128)
  9266  10CD  1683               	bsf	3,5	;RP0=1, select bank3
  9267  10CE  1703               	bsf	3,6	;RP1=1, select bank3
  9268  10CF  081E               	movf	(main@D+2)^(0+384),w
  9269  10D0  1683               	bsf	3,5	;RP0=1, select bank1
  9270  10D1  1303               	bcf	3,6	;RP1=0, select bank1
  9271  10D2  00A7               	movwf	(UART_send_float@bt+2)^(0+128)
  9272  10D3  1683               	bsf	3,5	;RP0=1, select bank3
  9273  10D4  1703               	bsf	3,6	;RP1=1, select bank3
  9274  10D5  081D               	movf	(main@D+1)^(0+384),w
  9275  10D6  1683               	bsf	3,5	;RP0=1, select bank1
  9276  10D7  1303               	bcf	3,6	;RP1=0, select bank1
  9277  10D8  00A6               	movwf	(UART_send_float@bt+1)^(0+128)
  9278  10D9  1683               	bsf	3,5	;RP0=1, select bank3
  9279  10DA  1703               	bsf	3,6	;RP1=1, select bank3
  9280  10DB  081C               	movf	main@D^(0+384),w
  9281  10DC  1683               	bsf	3,5	;RP0=1, select bank1
  9282  10DD  1303               	bcf	3,6	;RP1=0, select bank1
  9283  10DE  00A5               	movwf	UART_send_float@bt^(0+128)
  9284  10DF  160A  158A  26D8  160A  118A  	fcall	_UART_send_float
  9285  10E4  1683               	bsf	3,5	;RP0=1, select bank3
  9286  10E5  1703               	bsf	3,6	;RP1=1, select bank3
  9287  10E6  084F               	movf	(main@negx+3)^(0+384),w
  9288  10E7  1683               	bsf	3,5	;RP0=1, select bank1
  9289  10E8  1303               	bcf	3,6	;RP1=0, select bank1
  9290  10E9  00A8               	movwf	(UART_send_float@bt+3)^(0+128)
  9291  10EA  1683               	bsf	3,5	;RP0=1, select bank3
  9292  10EB  1703               	bsf	3,6	;RP1=1, select bank3
  9293  10EC  084E               	movf	(main@negx+2)^(0+384),w
  9294  10ED  1683               	bsf	3,5	;RP0=1, select bank1
  9295  10EE  1303               	bcf	3,6	;RP1=0, select bank1
  9296  10EF  00A7               	movwf	(UART_send_float@bt+2)^(0+128)
  9297  10F0  1683               	bsf	3,5	;RP0=1, select bank3
  9298  10F1  1703               	bsf	3,6	;RP1=1, select bank3
  9299  10F2  084D               	movf	(main@negx+1)^(0+384),w
  9300  10F3  1683               	bsf	3,5	;RP0=1, select bank1
  9301  10F4  1303               	bcf	3,6	;RP1=0, select bank1
  9302  10F5  00A6               	movwf	(UART_send_float@bt+1)^(0+128)
  9303  10F6  1683               	bsf	3,5	;RP0=1, select bank3
  9304  10F7  1703               	bsf	3,6	;RP1=1, select bank3
  9305  10F8  084C               	movf	main@negx^(0+384),w
  9306  10F9  1683               	bsf	3,5	;RP0=1, select bank1
  9307  10FA  1303               	bcf	3,6	;RP1=0, select bank1
  9308  10FB  00A5               	movwf	UART_send_float@bt^(0+128)
  9309  10FC  160A  158A  26D8  160A  118A  	fcall	_UART_send_float
  9310  1101  1683               	bsf	3,5	;RP0=1, select bank3
  9311  1102  1703               	bsf	3,6	;RP1=1, select bank3
  9312  1103  01BC               	clrf	main@i_112^(0+384)
  9313  1104  01BD               	clrf	(main@i_112+1)^(0+384)
  9314  1105                     l3191:	
  9315  1105  083D               	movf	(main@i_112+1)^(0+384),w
  9316  1106  3A80               	xorlw	128
  9317  1107  00FF               	movwf	127
  9318  1108  3080               	movlw	128
  9319  1109  027F               	subwf	127,w
  9320  110A  1D03               	skipz
  9321  110B  290E               	goto	u4385
  9322  110C  300A               	movlw	10
  9323  110D  023C               	subwf	main@i_112^(0+384),w
  9324  110E                     u4385:	
  9325  110E  1803               	btfsc	3,0
  9326  110F  291F               	goto	l3201
  9327                           
  9328                           ;sun_usart.c: 168: UART_send_char(9);
  9329  1110  3009               	movlw	9
  9330  1111  120A  118A  2004  160A  118A  	fcall	_UART_send_char
  9331  1116  3001               	movlw	1
  9332  1117  1683               	bsf	3,5	;RP0=1, select bank3
  9333  1118  1703               	bsf	3,6	;RP1=1, select bank3
  9334  1119  07BC               	addwf	main@i_112^(0+384),f
  9335  111A  1803               	skipnc
  9336  111B  0ABD               	incf	(main@i_112+1)^(0+384),f
  9337  111C  3000               	movlw	0
  9338  111D  07BD               	addwf	(main@i_112+1)^(0+384),f
  9339  111E  2905               	goto	l3191
  9340  111F                     l3201:	
  9341                           
  9342                           ;sun_usart.c: 169: UART_send_string(" ");
  9343  111F  3072               	movlw	(low (((STR_11+12)-__stringbase)| (0+32768)))& (0+255)
  9344  1120  160A  158A  22DF  160A  118A  	fcall	_UART_send_string
  9345                           
  9346                           ;sun_usart.c: 170: UART_send_string(" NEG Y AXIS:");
  9347  1125  3074               	movlw	(low ((STR_13-__stringbase)| (0+32768)))& (0+255)
  9348  1126  160A  158A  22DF  160A  118A  	fcall	_UART_send_string
  9349                           
  9350                           ;sun_usart.c: 171:     UART_send_float(E);UART_send_float(negy); for(int i=0;i<10;i++)
  9351  112B  1683               	bsf	3,5	;RP0=1, select bank3
  9352  112C  1703               	bsf	3,6	;RP1=1, select bank3
  9353  112D  0823               	movf	(main@E+3)^(0+384),w
  9354  112E  1683               	bsf	3,5	;RP0=1, select bank1
  9355  112F  1303               	bcf	3,6	;RP1=0, select bank1
  9356  1130  00A8               	movwf	(UART_send_float@bt+3)^(0+128)
  9357  1131  1683               	bsf	3,5	;RP0=1, select bank3
  9358  1132  1703               	bsf	3,6	;RP1=1, select bank3
  9359  1133  0822               	movf	(main@E+2)^(0+384),w
  9360  1134  1683               	bsf	3,5	;RP0=1, select bank1
  9361  1135  1303               	bcf	3,6	;RP1=0, select bank1
  9362  1136  00A7               	movwf	(UART_send_float@bt+2)^(0+128)
  9363  1137  1683               	bsf	3,5	;RP0=1, select bank3
  9364  1138  1703               	bsf	3,6	;RP1=1, select bank3
  9365  1139  0821               	movf	(main@E+1)^(0+384),w
  9366  113A  1683               	bsf	3,5	;RP0=1, select bank1
  9367  113B  1303               	bcf	3,6	;RP1=0, select bank1
  9368  113C  00A6               	movwf	(UART_send_float@bt+1)^(0+128)
  9369  113D  1683               	bsf	3,5	;RP0=1, select bank3
  9370  113E  1703               	bsf	3,6	;RP1=1, select bank3
  9371  113F  0820               	movf	main@E^(0+384),w
  9372  1140  1683               	bsf	3,5	;RP0=1, select bank1
  9373  1141  1303               	bcf	3,6	;RP1=0, select bank1
  9374  1142  00A5               	movwf	UART_send_float@bt^(0+128)
  9375  1143  160A  158A  26D8  160A  118A  	fcall	_UART_send_float
  9376  1148  1683               	bsf	3,5	;RP0=1, select bank3
  9377  1149  1703               	bsf	3,6	;RP1=1, select bank3
  9378  114A  0853               	movf	(main@negy+3)^(0+384),w
  9379  114B  1683               	bsf	3,5	;RP0=1, select bank1
  9380  114C  1303               	bcf	3,6	;RP1=0, select bank1
  9381  114D  00A8               	movwf	(UART_send_float@bt+3)^(0+128)
  9382  114E  1683               	bsf	3,5	;RP0=1, select bank3
  9383  114F  1703               	bsf	3,6	;RP1=1, select bank3
  9384  1150  0852               	movf	(main@negy+2)^(0+384),w
  9385  1151  1683               	bsf	3,5	;RP0=1, select bank1
  9386  1152  1303               	bcf	3,6	;RP1=0, select bank1
  9387  1153  00A7               	movwf	(UART_send_float@bt+2)^(0+128)
  9388  1154  1683               	bsf	3,5	;RP0=1, select bank3
  9389  1155  1703               	bsf	3,6	;RP1=1, select bank3
  9390  1156  0851               	movf	(main@negy+1)^(0+384),w
  9391  1157  1683               	bsf	3,5	;RP0=1, select bank1
  9392  1158  1303               	bcf	3,6	;RP1=0, select bank1
  9393  1159  00A6               	movwf	(UART_send_float@bt+1)^(0+128)
  9394  115A  1683               	bsf	3,5	;RP0=1, select bank3
  9395  115B  1703               	bsf	3,6	;RP1=1, select bank3
  9396  115C  0850               	movf	main@negy^(0+384),w
  9397  115D  1683               	bsf	3,5	;RP0=1, select bank1
  9398  115E  1303               	bcf	3,6	;RP1=0, select bank1
  9399  115F  00A5               	movwf	UART_send_float@bt^(0+128)
  9400  1160  160A  158A  26D8  160A  118A  	fcall	_UART_send_float
  9401  1165  1683               	bsf	3,5	;RP0=1, select bank3
  9402  1166  1703               	bsf	3,6	;RP1=1, select bank3
  9403  1167  01BE               	clrf	main@i_115^(0+384)
  9404  1168  01BF               	clrf	(main@i_115+1)^(0+384)
  9405  1169                     l3209:	
  9406  1169  083F               	movf	(main@i_115+1)^(0+384),w
  9407  116A  3A80               	xorlw	128
  9408  116B  00FF               	movwf	127
  9409  116C  3080               	movlw	128
  9410  116D  027F               	subwf	127,w
  9411  116E  1D03               	skipz
  9412  116F  2972               	goto	u4395
  9413  1170  300A               	movlw	10
  9414  1171  023E               	subwf	main@i_115^(0+384),w
  9415  1172                     u4395:	
  9416  1172  1803               	btfsc	3,0
  9417  1173  2983               	goto	l3219
  9418                           
  9419                           ;sun_usart.c: 172: UART_send_char(9);
  9420  1174  3009               	movlw	9
  9421  1175  120A  118A  2004  160A  118A  	fcall	_UART_send_char
  9422  117A  3001               	movlw	1
  9423  117B  1683               	bsf	3,5	;RP0=1, select bank3
  9424  117C  1703               	bsf	3,6	;RP1=1, select bank3
  9425  117D  07BE               	addwf	main@i_115^(0+384),f
  9426  117E  1803               	skipnc
  9427  117F  0ABF               	incf	(main@i_115+1)^(0+384),f
  9428  1180  3000               	movlw	0
  9429  1181  07BF               	addwf	(main@i_115+1)^(0+384),f
  9430  1182  2969               	goto	l3209
  9431  1183                     l3219:	
  9432                           
  9433                           ;sun_usart.c: 173: UART_send_string(" ");
  9434  1183  3072               	movlw	(low (((STR_11+12)-__stringbase)| (0+32768)))& (0+255)
  9435  1184  160A  158A  22DF  160A  118A  	fcall	_UART_send_string
  9436                           
  9437                           ;sun_usart.c: 174:  _delay((unsigned long)((1000)*(20000000/4000.0)));
  9438  1189  301A               	movlw	26
  9439  118A  1683               	bsf	3,5	;RP0=1, select bank1
  9440  118B  1303               	bcf	3,6	;RP1=0, select bank1
  9441  118C  00E0               	movwf	(??_main^(0+128)+2)
  9442  118D  305E               	movlw	94
  9443  118E  00DF               	movwf	(??_main^(0+128)+1)
  9444  118F  306D               	movlw	109
  9445  1190  00DE               	movwf	??_main^(0+128)
  9446  1191                     u4407:	
  9447  1191  0BDE               	decfsz	??_main^(0+128),f
  9448  1192  2991               	goto	u4407
  9449  1193  0BDF               	decfsz	(??_main^(0+128)+1),f
  9450  1194  2991               	goto	u4407
  9451  1195  0BE0               	decfsz	(??_main^(0+128)+2),f
  9452  1196  2991               	goto	u4407
  9453  1197  2998               	nop2
  9454  1198  120A  118A  289D   	goto	l3083
  9455  119B                     __end_of_main:	


Data Sizes:
    Strings     104
    Constant    44
    Data        0
    BSS         2
    Persistent  0
    Stack       0

Auto Spaces:
    Space          Size  Autos    Used
    COMMON           14     14      14
    BANK0            80     80      80
    BANK1            80     66      68
    BANK3            96     80      80
    BANK2            96      0       0

Pointer List with Targets:

    eval_poly@d	PTR const  size(1) Largest target is 24
		 -> atan@coeff_a(CODE[24]), atan@coeff_b(CODE[20]), 

    UART_send_string@st_pt	PTR unsigned char  size(1) Largest target is 35
		 -> STR_14(CODE[2]), STR_13(CODE[13]), STR_12(CODE[2]), STR_11(CODE[14]), 
		 -> STR_10(CODE[2]), STR_9(CODE[10]), STR_8(CODE[2]), STR_7(CODE[10]), 
		 -> STR_6(CODE[2]), STR_5(CODE[10]), STR_4(CODE[2]), STR_3(CODE[22]), 
		 -> STR_2(CODE[2]), STR_1(CODE[35]), 


Critical Paths under _main in COMMON

    _asin->_atan
    _sqrt->___fladd
    ___flneg->___fladd
    _eval_poly->___fladd
    _UART_send_string->_UART_send_char
    _UART_send_float->___xxtofl
    ___xxtofl->_ADC_Read
    ___flsub->___fladd
    ___flsub->___xxtofl
    ___fladd->__Umul8_16
    ___flmul->___fladd

Critical Paths under _main in BANK0

    _acos->___flsub
    _asin->___flsub
    _sqrt->___flsub
    _atan->___flsub
    _fabs->___flneg
    ___flneg->___fladd
    _eval_poly->___flmul
    ___fleq->_fabs
    ___fldiv->___flneg
    _UART_send_float->___flsub
    ___fltol->___flmul
    ___flsub->___flmul
    ___flmul->___fldiv

Critical Paths under _main in BANK1

    _main->_acos
    _acos->_asin
    _asin->_atan
    _atan->_eval_poly
    _UART_send_float->___fltol

Critical Paths under _main in BANK3

    None.

Critical Paths under _main in BANK2

    None.

Call Graph Tables:

 ---------------------------------------------------------------------------------
 (Depth) Function   	        Calls       Base Space   Used Autos Params    Refs
 ---------------------------------------------------------------------------------
 (0) _main                                                84    84      0   69899
                                             62 BANK1      4     4      0
                                              0 BANK3     80    80      0
                     _ADC_Initialize
                           _ADC_Read
                    _Initialize_UART
                     _UART_send_char
                    _UART_send_float
                   _UART_send_string
                            ___fladd
                            ___fldiv
                            ___flmul
                           ___xxtofl
                               _acos
                               _sqrt
 ---------------------------------------------------------------------------------
 (1) _acos                                                 8     4      4   43701
                                             54 BANK1      8     4      4
                            ___flsub
                               _asin
 ---------------------------------------------------------------------------------
 (2) _asin                                                24    20      4   39029
                                             30 BANK1     24    20      4
                            ___fldiv
                             ___flge
                            ___flmul
                            ___flneg
                            ___flsub
                               _atan
                               _fabs
                               _sqrt
 ---------------------------------------------------------------------------------
 (1) _sqrt                                                29    25      4    1033
                                              0 BANK1     29    25      4
                            ___fladd (ARG)
                            ___flmul (ARG)
                            ___flsub (ARG)
 ---------------------------------------------------------------------------------
 (3) _atan                                                22    18      4   23102
                                             13 COMMON     1     1      0
                                              9 BANK1     21    17      4
                            ___fldiv
                             ___fleq
                             ___flge
                            ___flmul
                            ___flneg
                            ___flsub
                          _eval_poly
                               _fabs
 ---------------------------------------------------------------------------------
 (3) _fabs                                                 4     0      4    1737
                                             20 BANK0      4     0      4
                             ___flge
                            ___flneg
 ---------------------------------------------------------------------------------
 (4) ___flneg                                              4     0      4     349
                                             16 BANK0      4     0      4
                            ___fladd (ARG)
 ---------------------------------------------------------------------------------
 (4) ___flge                                              12     4      8    1094
                                              0 COMMON    12     4      8
 ---------------------------------------------------------------------------------
 (4) _eval_poly                                           16     9      7    8075
                                             72 BANK0      7     0      7
                                              0 BANK1      9     9      0
                            ___fladd
                            ___flmul
 ---------------------------------------------------------------------------------
 (4) ___fleq                                              12     4      8     242
                                             24 BANK0     12     4      8
                               _fabs (ARG)
 ---------------------------------------------------------------------------------
 (4) ___fldiv                                             26    18      8    2641
                                             20 BANK0     26    18      8
                            ___flneg (ARG)
 ---------------------------------------------------------------------------------
 (1) _UART_send_string                                     2     2      0     529
                                              1 COMMON     2     2      0
                     _UART_send_char
 ---------------------------------------------------------------------------------
 (1) _UART_send_float                                     16    12      4   11814
                                              5 BANK1     16    12      4
                     _UART_send_char
                            ___awdiv
                            ___awmod
                            ___flmul
                            ___flsub
                            ___fltol
                           ___xxtofl
 ---------------------------------------------------------------------------------
 (1) ___xxtofl                                            14    10      4     778
                                              5 COMMON     8     4      4
                                              0 BANK0      6     6      0
                           _ADC_Read (ARG)
 ---------------------------------------------------------------------------------
 (2) ___fltol                                             11     7      4     381
                                             72 BANK0      6     2      4
                                              0 BANK1      5     5      0
                            ___flmul (ARG)
 ---------------------------------------------------------------------------------
 (4) ___flsub                                              8     0      8    4157
                                             72 BANK0      8     0      8
                            ___fladd
                            ___fldiv (ARG)
                            ___flmul (ARG)
                            ___flneg (ARG)
                           ___xxtofl (ARG)
 ---------------------------------------------------------------------------------
 (5) ___fladd                                             20    12      8    3200
                                              9 COMMON     4     4      0
                                              0 BANK0     16     8      8
                          __Umul8_16 (ARG)
 ---------------------------------------------------------------------------------
 (5) ___flmul                                             26    18      8    4241
                                             46 BANK0     26    18      8
                          __Umul8_16
                            ___fladd (ARG)
                            ___fldiv (ARG)
 ---------------------------------------------------------------------------------
 (6) __Umul8_16                                            9     7      2     799
                                              0 COMMON     9     7      2
 ---------------------------------------------------------------------------------
 (2) ___awmod                                              7     3      4     600
                                              0 COMMON     7     3      4
 ---------------------------------------------------------------------------------
 (2) ___awdiv                                              9     5      4     604
                                              0 COMMON     9     5      4
 ---------------------------------------------------------------------------------
 (2) _UART_send_char                                       1     1      0      22
                                              0 COMMON     1     1      0
 ---------------------------------------------------------------------------------
 (1) _Initialize_UART                                      0     0      0       0
 ---------------------------------------------------------------------------------
 (1) _ADC_Read                                             5     3      2      22
                                              0 COMMON     5     3      2
 ---------------------------------------------------------------------------------
 (1) _ADC_Initialize                                       0     0      0       0
 ---------------------------------------------------------------------------------
 Estimated maximum stack depth 6
 ---------------------------------------------------------------------------------

 Call Graph Graphs:

 _main (ROOT)
   _ADC_Initialize
   _ADC_Read
   _Initialize_UART
   _UART_send_char
   _UART_send_float
     _UART_send_char
     ___awdiv
     ___awmod
     ___flmul
       __Umul8_16
       ___fladd (ARG)
         __Umul8_16 (ARG)
       ___fldiv (ARG)
         ___flneg (ARG)
           ___fladd (ARG)
             __Umul8_16 (ARG)
     ___flsub
       ___fladd
         __Umul8_16 (ARG)
       ___fldiv (ARG)
         ___flneg (ARG)
           ___fladd (ARG)
             __Umul8_16 (ARG)
       ___flmul (ARG)
         __Umul8_16
         ___fladd (ARG)
           __Umul8_16 (ARG)
         ___fldiv (ARG)
           ___flneg (ARG)
             ___fladd (ARG)
               __Umul8_16 (ARG)
       ___flneg (ARG)
         ___fladd (ARG)
           __Umul8_16 (ARG)
       ___xxtofl (ARG)
         _ADC_Read (ARG)
     ___fltol
       ___flmul (ARG)
         __Umul8_16
         ___fladd (ARG)
           __Umul8_16 (ARG)
         ___fldiv (ARG)
           ___flneg (ARG)
             ___fladd (ARG)
               __Umul8_16 (ARG)
     ___xxtofl
       _ADC_Read (ARG)
   _UART_send_string
     _UART_send_char
   ___fladd
     __Umul8_16 (ARG)
   ___fldiv
     ___flneg (ARG)
       ___fladd (ARG)
         __Umul8_16 (ARG)
   ___flmul
     __Umul8_16
     ___fladd (ARG)
       __Umul8_16 (ARG)
     ___fldiv (ARG)
       ___flneg (ARG)
         ___fladd (ARG)
           __Umul8_16 (ARG)
   ___xxtofl
     _ADC_Read (ARG)
   _acos
     ___flsub
       ___fladd
         __Umul8_16 (ARG)
       ___fldiv (ARG)
         ___flneg (ARG)
           ___fladd (ARG)
             __Umul8_16 (ARG)
       ___flmul (ARG)
         __Umul8_16
         ___fladd (ARG)
           __Umul8_16 (ARG)
         ___fldiv (ARG)
           ___flneg (ARG)
             ___fladd (ARG)
               __Umul8_16 (ARG)
       ___flneg (ARG)
         ___fladd (ARG)
           __Umul8_16 (ARG)
       ___xxtofl (ARG)
         _ADC_Read (ARG)
     _asin
       ___fldiv
         ___flneg (ARG)
           ___fladd (ARG)
             __Umul8_16 (ARG)
       ___flge
       ___flmul
         __Umul8_16
         ___fladd (ARG)
           __Umul8_16 (ARG)
         ___fldiv (ARG)
           ___flneg (ARG)
             ___fladd (ARG)
               __Umul8_16 (ARG)
       ___flneg
         ___fladd (ARG)
           __Umul8_16 (ARG)
       ___flsub
         ___fladd
           __Umul8_16 (ARG)
         ___fldiv (ARG)
           ___flneg (ARG)
             ___fladd (ARG)
               __Umul8_16 (ARG)
         ___flmul (ARG)
           __Umul8_16
           ___fladd (ARG)
             __Umul8_16 (ARG)
           ___fldiv (ARG)
             ___flneg (ARG)
               ___fladd (ARG)
                 __Umul8_16 (ARG)
         ___flneg (ARG)
           ___fladd (ARG)
             __Umul8_16 (ARG)
         ___xxtofl (ARG)
           _ADC_Read (ARG)
       _atan
         ___fldiv
           ___flneg (ARG)
             ___fladd (ARG)
               __Umul8_16 (ARG)
         ___fleq
           _fabs (ARG)
             ___flge
             ___flneg
               ___fladd (ARG)
                 __Umul8_16 (ARG)
         ___flge
         ___flmul
           __Umul8_16
           ___fladd (ARG)
             __Umul8_16 (ARG)
           ___fldiv (ARG)
             ___flneg (ARG)
               ___fladd (ARG)
                 __Umul8_16 (ARG)
         ___flneg
           ___fladd (ARG)
             __Umul8_16 (ARG)
         ___flsub
           ___fladd
             __Umul8_16 (ARG)
           ___fldiv (ARG)
             ___flneg (ARG)
               ___fladd (ARG)
                 __Umul8_16 (ARG)
           ___flmul (ARG)
             __Umul8_16
             ___fladd (ARG)
               __Umul8_16 (ARG)
             ___fldiv (ARG)
               ___flneg (ARG)
                 ___fladd (ARG)
                   __Umul8_16 (ARG)
           ___flneg (ARG)
             ___fladd (ARG)
               __Umul8_16 (ARG)
           ___xxtofl (ARG)
             _ADC_Read (ARG)
         _eval_poly
           ___fladd
             __Umul8_16 (ARG)
           ___flmul
             __Umul8_16
             ___fladd (ARG)
               __Umul8_16 (ARG)
             ___fldiv (ARG)
               ___flneg (ARG)
                 ___fladd (ARG)
                   __Umul8_16 (ARG)
         _fabs
           ___flge
           ___flneg
             ___fladd (ARG)
               __Umul8_16 (ARG)
       _fabs
         ___flge
         ___flneg
           ___fladd (ARG)
             __Umul8_16 (ARG)
       _sqrt
         ___fladd (ARG)
           __Umul8_16 (ARG)
         ___flmul (ARG)
           __Umul8_16
           ___fladd (ARG)
             __Umul8_16 (ARG)
           ___fldiv (ARG)
             ___flneg (ARG)
               ___fladd (ARG)
                 __Umul8_16 (ARG)
         ___flsub (ARG)
           ___fladd
             __Umul8_16 (ARG)
           ___fldiv (ARG)
             ___flneg (ARG)
               ___fladd (ARG)
                 __Umul8_16 (ARG)
           ___flmul (ARG)
             __Umul8_16
             ___fladd (ARG)
               __Umul8_16 (ARG)
             ___fldiv (ARG)
               ___flneg (ARG)
                 ___fladd (ARG)
                   __Umul8_16 (ARG)
           ___flneg (ARG)
             ___fladd (ARG)
               __Umul8_16 (ARG)
           ___xxtofl (ARG)
             _ADC_Read (ARG)
   _sqrt
     ___fladd (ARG)
       __Umul8_16 (ARG)
     ___flmul (ARG)
       __Umul8_16
       ___fladd (ARG)
         __Umul8_16 (ARG)
       ___fldiv (ARG)
         ___flneg (ARG)
           ___fladd (ARG)
             __Umul8_16 (ARG)
     ___flsub (ARG)
       ___fladd
         __Umul8_16 (ARG)
       ___fldiv (ARG)
         ___flneg (ARG)
           ___fladd (ARG)
             __Umul8_16 (ARG)
       ___flmul (ARG)
         __Umul8_16
         ___fladd (ARG)
           __Umul8_16 (ARG)
         ___fldiv (ARG)
           ___flneg (ARG)
             ___fladd (ARG)
               __Umul8_16 (ARG)
       ___flneg (ARG)
         ___fladd (ARG)
           __Umul8_16 (ARG)
       ___xxtofl (ARG)
         _ADC_Read (ARG)

 Address spaces:
Name               Size   Autos  Total    Cost      Usage
BITCOMMON            E      0       0       0        0.0%
EEDATA             100      0       0       0        0.0%
NULL                 0      0       0       0        0.0%
CODE                 0      0       0       0        0.0%
COMMON               E      E       E       1      100.0%
BITSFR0              0      0       0       1        0.0%
SFR0                 0      0       0       1        0.0%
BITSFR1              0      0       0       2        0.0%
SFR1                 0      0       0       2        0.0%
STACK                0      0       0       2        0.0%
ABS                  0      0      F2       3        0.0%
BITBANK0            50      0       0       4        0.0%
BITSFR3              0      0       0       4        0.0%
SFR3                 0      0       0       4        0.0%
BANK0               50     50      50       5      100.0%
BITSFR2              0      0       0       5        0.0%
SFR2                 0      0       0       5        0.0%
BITBANK1            50      0       0       6        0.0%
BANK1               50     42      44       7       85.0%
BITBANK3            60      0       0       8        0.0%
BANK3               60     50      50       9       83.3%
BITBANK2            60      0       0      10        0.0%
BANK2               60      0       0      11        0.0%
DATA                 0      0      F2      12        0.0%


Microchip Technology PIC Macro Assembler V2.05 build -831301201 
Symbol Table                                                                                   Thu Aug 08 18:41:25 2019

             ___fldiv@aexp 004D               ___fldiv@bexp 004C                          pc 0002  
             ___fldiv@sign 0045                __CFG_CP$OFF 0000                         l52 0832  
                       l61 0005               ___awdiv@sign 0076                         fsr 0004  
      __Umul8_16@word_mpld 0076                        l351 1B5C                        l352 1B76  
                      l531 11E9                        l603 0939                        l356 1CD5  
                      l517 156A                        l509 1552                        l375 1C95  
                      l359 1D3B                        l481 1407                        l553 1328  
                      l642 1DC3                        l475 1390                        l643 1DCD  
                      l635 1DAD                        l555 1336                        l629 1D6D  
                      l583 0FF3                        l479 142B                        l496 14EA  
                      l676 1639                        l697 1B2F               __CFG_CPD$OFF 0000  
                      _RX9 00C6                        _TX9 04C6                        fsr0 0004  
             ___awmod@sign 0076               __CFG_FOSC$HS 0000               ___flmul@aexp 0060  
             ___flmul@bexp 0061               ___flmul@sign 005B               ___flmul@temp 0066  
             ___flmul@prod 0062               __CFG_LVP$OFF 0000               ___fltol@exp1 006D  
                     l2101 151D                       l2105 151F                       l2025 1414  
                     l2017 13D6                       l2123 1562                       l2051 145E  
                     l2043 143B                       l2027 1416                       l2035 1427  
                     l2053 1460                       l2061 1470                       l3021 0B74  
                     l2231 0F62                       l2151 0D12                       l2127 1566  
                     l2071 14DC                       l2311 11C3                       l3031 0C4D  
                     l2241 0F7B                       l2401 12C3                       l2305 11B8  
                     l3009 0A54                       l3201 111F                       l2251 0FAD  
                     l2147 0D08                       l2411 12F5                       l2261 0FDC  
                     l2237 0F79                       l2229 0F45                       l2165 0D2D  
                     l2149 0D0A                       l2093 1512                       l2325 11DE  
                     l2309 11BB                       l3061 0055                       l2255 0FC3  
                     l2167 0D2F                       l2087 150B                       l2079 14FC  
                     l2095 1514                       l2415 130E                       l2511 0929  
                     l2177 0D45                       l2169 0D37                       l2345 1214  
                     l2329 11E1                       l2281 1B88                       l2513 08EA  
                     l2505 08E9                       l3209 1169                       l3137 0778  
                     l2611 1C29                       l2603 1C16                       l2427 1332  
                     l2371 1282                       l2339 1208                       l2515 0960  
                     l3219 1183                       l3155 07DC                       l3147 0792  
                     l3083 009D                       l3075 007E                       l1901 1B27  
                     l2701 1D7C                       l2365 1263                       l2373 123F  
                     l2445 1EBF                       l3173 10A1                       l3165 1057  
                     l2607 1C21                       l2623 1B94                       l2391 12AA  
                     l2375 1287                       l2527 09D3                       l3191 1105  
                     l3183 10BB                       l2641 1BBD                       l2705 1D80  
                     l1921 1D15                       l2481 0897                       l2465 0866  
                     l3089 016F                       l2635 1BA1                       l2627 1B9B  
                     l2715 1DC1                       l2707 1D92                       l2563 17CC  
                     l2547 15DA                       l2475 087B                       l2637 1BAF  
                     l2645 1BC8                       l2717 1DB2                       l2397 12C1  
                     l2389 128D                       l1917 1CEF                       l2469 086E  
                     l2655 1C3D                       l2559 17AA                       l2487 08AC  
                     l2585 1BEA                       l2649 1BD0                       l1953 135B  
                     l2729 1DEA                       l2809 1AE0                       l2595 1BF2  
                     l2579 1BDF                       l2675 1C7D                       l2659 1C46  
                     l2597 1C00                       l1981 1388                       l1957 135E  
                     l2685 1CAC                       l2677 1C91                       l1959 1366  
                     l2695 1D65                       l1977 1385                       l1987 139A  
                     _ADON 00F8                       STR_1 1832                       STR_2 1877  
                     STR_3 1855                       STR_4 1877                       STR_5 186F  
                     STR_6 1877                       STR_7 1886                       STR_8 1877  
                     STR_9 1890                       _BRGH 04C2                       _CREN 00C4  
                     u2211 1D00                       u2212 1D01                       u2213 1D06  
                     u2214 1D07                       u2231 1D26                       u2215 1D0C  
                     u2232 1D27                       u2216 1D0D                       u2233 1D2C  
                     u2234 1D2D                       u3115 1B84                       u2235 1D32  
                     u2236 1D33                       u2165 1B30                       u2501 149D  
                     u2405 141C                       u2510 14B1                       u2502 149E  
                     u3055 0F98                       u2511 14B2                       u2503 14A3  
                     u3215 1248                       u2512 14B7                       u2504 14A4  
                     u2360 13F6                       u3065 0FB6                       u2513 14B8  
                     u2505 14A9                       u3305 129C                       u3225 1251  
                     u2506 14AA                       u2370 13F7                       u3075 0FCE  
                     u2355 13EA                       u4125 1DD5                       u4045 1D89  
                     u3245 125C                       u3255 1271                       u4065 1DA5  
                     u3425 1DFA                       u2555 14FE                       u3435 1E38  
                     u3515 08B9                       u2493 1484                       u2485 1464  
                     u4085 1DBA                       u3285 1291                       u3605 098E  
                     u4325 006C                       u2655 153C                       u3375 12E0  
                     u3535 08E2                       u4407 1191                       u4335 0095  
                     u4417 082A                       u4185 081A                       u3385 12FE  
                     u3545 0904                       u4345 00A8                       u2915 0EEE  
                     u3395 1319                       u3635 09BD                       u4355 0781  
                     u3660 15F5                       u2845 0DF5                       u3565 0942  
                     u4365 07E5                       u3670 15F6                       u2935 0F13  
                     u3575 0954                       u4375 10AA                       u4385 110E  
                     u3755 1BF5                       u2955 0F31                       u2875 0E52  
                     u3595 0969                       u4395 1172                       u2965 0F49  
                     u3925 1C5D                       u3775 1C01                       u3855 1BA4  
                     u3785 1C0D                       u2985 0F54                       u3795 1C17  
                     u3875 1BB5                       u3955 1C7E                       u3885 1BBE  
                     u3985 1C9C                       _SPEN 00C7                       _TXEN 04C5  
                     _TXIF 0064                       _SYNC 04C4               __CFG_WRT$OFF 0000  
                     _acos 1004                       _fabs 000C                       _atan 1575  
                     _asin 09F9                       _main 003D       UART_send_float@fval1 00AF  
                     btemp 007E       UART_send_float@ival1 00AD                       _sqrt 083B  
         __end_of_ADC_Read 083B              __CFG_BOREN$ON 0000                       start 0000  
          ___fldiv@new_exp 0046  __size_of_UART_send_string 001C                      ?_acos 00D6  
                    ?_fabs 0034              ___fltol@sign1 006C                      ?_atan 00A9  
                    ?_asin 00BE            __end_of___fladd 1575                      ?_main 0070  
          __end_of___fldiv 133E            __end_of___awdiv 1C2E            __end_of___flneg 1AC7  
                    STR_10 1877                      STR_11 186B                      STR_12 1877  
                    STR_13 1879                      STR_14 1877              __CFG_WDTE$OFF 0000  
          __end_of___awmod 1BD5            __end_of___flmul 1000            __end_of___flsub 1B1D  
          __end_of___fltol 1CBB                      ?_sqrt 00A0            ___awdiv@divisor 0070  
          ___awdiv@counter 0075                      _SPBRG 0099                      _TRISB 0086  
                    _TXREG 0019                      acos@x 00D6                      fabs@d 0034  
                    _errno 00E2                      atan@f 00A9                      atan@x 00B1  
                    atan@y 00AD                      asin@x 00BE                      asin@y 00CE  
                    main@A 0190                      main@B 0194                      main@C 0198  
                    main@D 019C                      main@E 01A0                      main@i 01B2  
                    main@r 01D4                      main@x 01C0                      main@y 01C4  
                    main@z 01C8                      pclath 000A                      sqrt@a 00A0  
                    sqrt@i 00A9                      sqrt@p 00AE                      status 0003  
                    wtemp0 007E            _UART_send_float 1ED8            __initialization 07F8  
             __end_of_acos 1057               __end_of_fabs 003D               __end_of_atan 1800  
             __end_of_asin 0CEB               __end_of_main 119B               __end_of_sqrt 09F9  
                   ??_acos 007E                     ??_fabs 007D                     ??_atan 007D  
                   ??_asin 007E                     ??_main 00DE                     ??_sqrt 00A4  
                   _ADCON0 001F                     _ADCON1 009F                     _ADRESH 001E  
                   _ADRESL 009E           ___awdiv@dividend 0072                     _TRISB0 0430  
                   _TRISC6 043E                     _TRISC7 043F           __end_of___xxtofl 1DF3  
           __CFG_PWRTE$OFF 0000                     ___flge 1CBB                     ___fleq 1B40  
                ??___fladd 0028                  ??___fldiv 003C                  ??___awdiv 0074  
                ??___flneg 007D                  ??___awmod 0074                  ??___flmul 0056  
                ??___flsub 007D                  ??___fltol 00A0            ADC_Read@channel 0074  
         ___awdiv@quotient 0077            ___awmod@divisor 0070            ___awmod@counter 0075  
       __size_of__Umul8_16 0023                  ?_ADC_Read 0070                 ___flge@ff1 0070  
               ___flge@ff2 0074               ___xxtofl@arg 0022               ___xxtofl@exp 0021  
             ___xxtofl@val 0075                 ___fleq@ff1 0038                 ___fleq@ff2 003C  
  __end_of_UART_send_float 2000    __end_of__initialization 07FC                 ___flneg@f1 0030  
             eval_poly@res 00A5                 ___fltol@f1 0068             __pcstackCOMMON 0070  
         _UART_send_string 1ADF   __size_of_Initialize_UART 0018                 ??_ADC_Read 0072  
               __pbssBANK1 00E2         __size_of_eval_poly 00E5          __end_of__Umul8_16 1B40  
               __pmaintext 003D                    ?___flge 0070                    ?___fleq 0038  
  __size_of_ADC_Initialize 000C                  ?___xxtofl 0075    __size_of_UART_send_char 0008  
               __stringtab 1800          UART_send_float@bt 00A5           ?_UART_send_float 00A5  
          __size_of___flge 0093            __size_of___fleq 004A                    ___fladd 133E  
                  ___fldiv 119B                    ___awdiv 1BD5                    ___flneg 1ABC  
                  ___awmod 1B8A                    ___flmul 0CEB                    ___flsub 1AFB  
                  ___fltol 1C2E          __end_of_eval_poly 1ED8                    __ptext1 1004  
                  __ptext2 09F9                    __ptext3 083B                    __ptext4 1575  
                  __ptext5 000C                    __ptext6 1ABC                    __ptext7 1CBB  
                  __ptext8 1DF3                    __ptext9 1B40          ??_Initialize_UART 0070  
          atan@val_squared 00B6                 ??___xxtofl 0079           ___awmod@dividend 0072  
                  atan@val 00BA       end_of_initialization 07FC                    psplit$0 90022  
                  sqrt@grs 00AF                    sqrt@exp 00B3                ___fladd@grs 007C  
            ___xxtofl@sign 0020                ___fldiv@grs 0048                ___fldiv@rem 0041  
     pnum$maintext_split_1 0022          __size_of_ADC_Read 0025   __end_of_UART_send_string 1AFB  
              ___flmul@grs 005C        UART_send_float@fval 00B1        UART_send_float@ival 00B3  
           __end_of___flge 1D4E             __end_of___fleq 1B8A             _ADC_Initialize 080A  
      start_initialization 07F8                 eval_poly@d 006C                 eval_poly@n 006D  
               eval_poly@x 0068             _UART_send_char 0004                   ??___flge 0078  
                 ??___fleq 0040     __end_of_ADC_Initialize 0816                  __Umul8_16 1B1D  
                ___fladd@a 0024                  ___fladd@b 0020     __end_of_UART_send_char 000C  
                ___fldiv@a 0034                  ___fldiv@b 0038                  ___flmul@a 0052  
                ___flmul@b 004E                  ___flsub@a 0068                  ___flsub@b 006C  
                ___latbits 0002              __pcstackBANK0 0020              __pcstackBANK1 00A0  
            __pcstackBANK3 0190          __size_of___xxtofl 00A5            _Initialize_UART 1AC7  
                 ?___fladd 0020                   ?___fldiv 0034                   ?___awdiv 0070  
                 ?___flneg 0030                   ?___awmod 0070                   ?___flmul 004E  
                 ?___flsub 0068                   ?___fltol 0068                 ?__Umul8_16 0070  
          ?_ADC_Initialize 0070           UART_send_char@bt 0070                  __pstrings 1800  
         UART_send_float@f 00A9            ?_UART_send_char 0070                  _eval_poly 1DF3  
                 _ADC_Read 0816                  atan@recip 00B5                   _GO_nDONE 00FA  
 __size_of_UART_send_float 0128                __stringbase 1805                  main@i_103 01B6  
                main@i_112 01BC                  main@i_106 01B8                  main@i_115 01BE  
                main@i_109 01BA      UART_send_string@st_pt 0072                 ?_eval_poly 0068  
      __end_ofatan@coeff_a 181E        __end_ofatan@coeff_b 1832          ?_UART_send_string 0070  
       ??_UART_send_string 0071    __end_of_Initialize_UART 1ADF                ??__Umul8_16 0072  
             pnum$maintext 0009           __size_of___fladd 0237           __size_of___fldiv 01A3  
         __size_of___awdiv 0059           __size_of___flneg 000B           __size_of___awmod 004B  
         __size_of___flmul 0315           __size_of___flsub 0022           __size_of___fltol 008D  
                 _acos$832 00DA         __end_of__stringtab 1806                   _asin$833 00C6  
                 _asin$834 00D2                   _asin$835 00CA                   ___xxtofl 1D4E  
                 _main$830 01D8                   _main$831 01DC                   _main$827 01A4  
                 _main$828 01A8                   _main$829 01AC                   __ptext10 119B  
                 __ptext11 1ADF                   __ptext20 1BD5                   __ptext12 1ED8  
                 __ptext21 0004                   __ptext13 1D4E                   __ptext22 1AC7  
                 __ptext14 1C2E                   __ptext23 0816                   __ptext15 1AFB  
                 __ptext24 080A                   __ptext16 133E                   __ptext17 0CEB  
                 __ptext18 1B1D                   __ptext19 1B8A              __size_of_acos 0053  
            __size_of_fabs 0031              __size_of_atan 028B              __size_of_asin 02F2  
            __size_of_main 115E              __size_of_sqrt 01BE                   main@i_98 01B4  
                 main@flag 01B0                   main@negx 01CC                   main@negy 01D0  
              atan@coeff_a 1806                atan@coeff_b 181E          ??_UART_send_float 007D  
              ??_eval_poly 00A0                  sqrt@tfrac 00AA           ?_Initialize_UART 0070  
         ??_ADC_Initialize 0070                  stringcode 1800           ??_UART_send_char 0070  
                 sqrt@frac 00B9                   sqrt@sign 00A8                   sqrt@root 00B5  
   __Umul8_16@multiplicand 0070                   stringdir 1800                   stringtab 1800  
            ___fladd@signs 0079               ___fladd@aexp 007A               ___fladd@bexp 007B  
     __Umul8_16@multiplier 0078          __Umul8_16@product 0074  
