

Microchip MPLAB XC8 Assembler V2.05 build -831301201 
                                                                                               Wed Dec 04 06:36:53 2019

Microchip MPLAB XC8 C Compiler v2.05 (Free license) build 20181220022703 Og1 
     1                           	processor	16F877A
     2                           	opt	pw 120
     3                           	opt	flic
     4                           	psect	strings,global,class=STRING,delta=2
     5                           	psect	cinit,global,class=CODE,merge=1,delta=2
     6                           	psect	bssBANK0,global,class=BANK0,space=1,delta=1
     7                           	psect	bssBANK1,global,class=BANK1,space=1,delta=1
     8                           	psect	cstackCOMMON,global,class=COMMON,space=1,delta=1
     9                           	psect	cstackBANK0,global,class=BANK0,space=1,delta=1
    10                           	psect	maintext,global,class=CODE,split=1,delta=2
    11                           	psect	text1,local,class=CODE,merge=1,delta=2
    12                           	psect	text2,local,class=CODE,merge=1,delta=2
    13                           	psect	text3,local,class=CODE,merge=1,delta=2
    14                           	psect	text4,local,class=CODE,merge=1,delta=2
    15                           	psect	text5,local,class=CODE,merge=1,delta=2
    16                           	psect	text6,local,class=CODE,merge=1,delta=2
    17                           	psect	text7,local,class=CODE,merge=1,delta=2
    18                           	psect	text8,local,class=CODE,merge=1,delta=2
    19                           	psect	text9,local,class=CODE,merge=1,delta=2
    20                           	psect	text10,local,class=CODE,merge=1,delta=2
    21                           	psect	text11,local,class=CODE,merge=1,delta=2,group=1
    22                           	psect	text12,local,class=CODE,merge=1,delta=2,group=1
    23                           	psect	text13,local,class=CODE,merge=1,delta=2,group=1
    24                           	psect	text14,local,class=CODE,merge=1,delta=2,group=1
    25                           	psect	text15,local,class=CODE,merge=1,delta=2,group=1
    26                           	psect	text16,local,class=CODE,merge=1,delta=2,group=1
    27                           	psect	text17,local,class=CODE,merge=1,delta=2,group=1
    28                           	psect	text18,local,class=CODE,merge=1,delta=2,group=1
    29                           	psect	text19,local,class=CODE,merge=1,delta=2,group=1
    30                           	psect	text20,local,class=CODE,merge=1,delta=2,group=1
    31                           	dabs	1,0x7E,2
    32  0000                     
    33                           ; Version 2.05
    34                           ; Generated 20/12/2018 GMT
    35                           ; 
    36                           ; Copyright © 2018, Microchip Technology Inc. and its subsidiaries ("Microchip")
    37                           ; All rights reserved.
    38                           ; 
    39                           ; This software is developed by Microchip Technology Inc. and its subsidiaries ("Microch
      +                          ip").
    40                           ; 
    41                           ; Redistribution and use in source and binary forms, with or without modification, are
    42                           ; permitted provided that the following conditions are met:
    43                           ; 
    44                           ;     1. Redistributions of source code must retain the above copyright notice, this lis
      +                          t of
    45                           ;        conditions and the following disclaimer.
    46                           ; 
    47                           ;     2. Redistributions in binary form must reproduce the above copyright notice, this 
      +                          list
    48                           ;        of conditions and the following disclaimer in the documentation and/or other
    49                           ;        materials provided with the distribution.
    50                           ; 
    51                           ;     3. Microchip's name may not be used to endorse or promote products derived from th
      +                          is
    52                           ;        software without specific prior written permission.
    53                           ; 
    54                           ; THIS SOFTWARE IS PROVIDED BY MICROCHIP "AS IS" AND ANY EXPRESS OR IMPLIED WARRANTIES,
    55                           ; INCLUDING, BUT NOT LIMITED TO, THE IMPLIED WARRANTIES OF MERCHANTABILITY AND FITNESS F
      +                          OR
    56                           ; PURPOSE ARE DISCLAIMED.  IN NO EVENT SHALL MICROCHIP BE LIABLE FOR ANY DIRECT, INDIREC
      +                          T,
    57                           ; INCIDENTAL, SPECIAL, EXEMPLARY, OR CONSEQUENTIAL DAMAGES (INCLUDING BUT NOT LIMITED TO
    58                           ; PROCUREMENT OF SUBSTITUTE GOODS OR SERVICES; LOSS OF USE, DATA OR PROFITS; OR BUSINESS
    59                           ; INTERRUPTION) HOWSOEVER CAUSED AND ON ANY THEORY OF LIABILITY, WHETHER IN CONTRACT, ST
      +                          RICT
    60                           ; LIABILITY, OR TORT (INCLUDING NEGLIGENCE OR OTHERWISE) ARISING IN ANY WAY OUT OF THE U
      +                          SE OF
    61                           ; THIS SOFTWARE, EVEN IF ADVISED OF THE POSSIBILITY OF SUCH DAMAGE.
    62                           ; 
    63                           ; 
    64                           ; Code-generator required, PIC16F877A Definitions
    65                           ; 
    66                           ; SFR Addresses
    67  0000                     	;# 
    68  0001                     	;# 
    69  0002                     	;# 
    70  0003                     	;# 
    71  0004                     	;# 
    72  0005                     	;# 
    73  0006                     	;# 
    74  0007                     	;# 
    75  0008                     	;# 
    76  0009                     	;# 
    77  000A                     	;# 
    78  000B                     	;# 
    79  000C                     	;# 
    80  000D                     	;# 
    81  000E                     	;# 
    82  000E                     	;# 
    83  000F                     	;# 
    84  0010                     	;# 
    85  0011                     	;# 
    86  0012                     	;# 
    87  0013                     	;# 
    88  0014                     	;# 
    89  0015                     	;# 
    90  0015                     	;# 
    91  0016                     	;# 
    92  0017                     	;# 
    93  0018                     	;# 
    94  0019                     	;# 
    95  001A                     	;# 
    96  001B                     	;# 
    97  001B                     	;# 
    98  001C                     	;# 
    99  001D                     	;# 
   100  001E                     	;# 
   101  001F                     	;# 
   102  0081                     	;# 
   103  0085                     	;# 
   104  0086                     	;# 
   105  0087                     	;# 
   106  0088                     	;# 
   107  0089                     	;# 
   108  008C                     	;# 
   109  008D                     	;# 
   110  008E                     	;# 
   111  0091                     	;# 
   112  0092                     	;# 
   113  0093                     	;# 
   114  0094                     	;# 
   115  0098                     	;# 
   116  0099                     	;# 
   117  009C                     	;# 
   118  009D                     	;# 
   119  009E                     	;# 
   120  009F                     	;# 
   121  010C                     	;# 
   122  010D                     	;# 
   123  010E                     	;# 
   124  010F                     	;# 
   125  018C                     	;# 
   126  018D                     	;# 
   127  0000                     	;# 
   128  0001                     	;# 
   129  0002                     	;# 
   130  0003                     	;# 
   131  0004                     	;# 
   132  0005                     	;# 
   133  0006                     	;# 
   134  0007                     	;# 
   135  0008                     	;# 
   136  0009                     	;# 
   137  000A                     	;# 
   138  000B                     	;# 
   139  000C                     	;# 
   140  000D                     	;# 
   141  000E                     	;# 
   142  000E                     	;# 
   143  000F                     	;# 
   144  0010                     	;# 
   145  0011                     	;# 
   146  0012                     	;# 
   147  0013                     	;# 
   148  0014                     	;# 
   149  0015                     	;# 
   150  0015                     	;# 
   151  0016                     	;# 
   152  0017                     	;# 
   153  0018                     	;# 
   154  0019                     	;# 
   155  001A                     	;# 
   156  001B                     	;# 
   157  001B                     	;# 
   158  001C                     	;# 
   159  001D                     	;# 
   160  001E                     	;# 
   161  001F                     	;# 
   162  0081                     	;# 
   163  0085                     	;# 
   164  0086                     	;# 
   165  0087                     	;# 
   166  0088                     	;# 
   167  0089                     	;# 
   168  008C                     	;# 
   169  008D                     	;# 
   170  008E                     	;# 
   171  0091                     	;# 
   172  0092                     	;# 
   173  0093                     	;# 
   174  0094                     	;# 
   175  0098                     	;# 
   176  0099                     	;# 
   177  009C                     	;# 
   178  009D                     	;# 
   179  009E                     	;# 
   180  009F                     	;# 
   181  010C                     	;# 
   182  010D                     	;# 
   183  010E                     	;# 
   184  010F                     	;# 
   185  018C                     	;# 
   186  018D                     	;# 
   187  0000                     	;# 
   188  0001                     	;# 
   189  0002                     	;# 
   190  0003                     	;# 
   191  0004                     	;# 
   192  0005                     	;# 
   193  0006                     	;# 
   194  0007                     	;# 
   195  0008                     	;# 
   196  0009                     	;# 
   197  000A                     	;# 
   198  000B                     	;# 
   199  000C                     	;# 
   200  000D                     	;# 
   201  000E                     	;# 
   202  000E                     	;# 
   203  000F                     	;# 
   204  0010                     	;# 
   205  0011                     	;# 
   206  0012                     	;# 
   207  0013                     	;# 
   208  0014                     	;# 
   209  0015                     	;# 
   210  0015                     	;# 
   211  0016                     	;# 
   212  0017                     	;# 
   213  0018                     	;# 
   214  0019                     	;# 
   215  001A                     	;# 
   216  001B                     	;# 
   217  001B                     	;# 
   218  001C                     	;# 
   219  001D                     	;# 
   220  001E                     	;# 
   221  001F                     	;# 
   222  0081                     	;# 
   223  0085                     	;# 
   224  0086                     	;# 
   225  0087                     	;# 
   226  0088                     	;# 
   227  0089                     	;# 
   228  008C                     	;# 
   229  008D                     	;# 
   230  008E                     	;# 
   231  0091                     	;# 
   232  0092                     	;# 
   233  0093                     	;# 
   234  0094                     	;# 
   235  0098                     	;# 
   236  0099                     	;# 
   237  009C                     	;# 
   238  009D                     	;# 
   239  009E                     	;# 
   240  009F                     	;# 
   241  010C                     	;# 
   242  010D                     	;# 
   243  010E                     	;# 
   244  010F                     	;# 
   245  018C                     	;# 
   246  018D                     	;# 
   247  0000                     	;# 
   248  0001                     	;# 
   249  0002                     	;# 
   250  0003                     	;# 
   251  0004                     	;# 
   252  0005                     	;# 
   253  0006                     	;# 
   254  0007                     	;# 
   255  0008                     	;# 
   256  0009                     	;# 
   257  000A                     	;# 
   258  000B                     	;# 
   259  000C                     	;# 
   260  000D                     	;# 
   261  000E                     	;# 
   262  000E                     	;# 
   263  000F                     	;# 
   264  0010                     	;# 
   265  0011                     	;# 
   266  0012                     	;# 
   267  0013                     	;# 
   268  0014                     	;# 
   269  0015                     	;# 
   270  0015                     	;# 
   271  0016                     	;# 
   272  0017                     	;# 
   273  0018                     	;# 
   274  0019                     	;# 
   275  001A                     	;# 
   276  001B                     	;# 
   277  001B                     	;# 
   278  001C                     	;# 
   279  001D                     	;# 
   280  001E                     	;# 
   281  001F                     	;# 
   282  0081                     	;# 
   283  0085                     	;# 
   284  0086                     	;# 
   285  0087                     	;# 
   286  0088                     	;# 
   287  0089                     	;# 
   288  008C                     	;# 
   289  008D                     	;# 
   290  008E                     	;# 
   291  0091                     	;# 
   292  0092                     	;# 
   293  0093                     	;# 
   294  0094                     	;# 
   295  0098                     	;# 
   296  0099                     	;# 
   297  009C                     	;# 
   298  009D                     	;# 
   299  009E                     	;# 
   300  009F                     	;# 
   301  010C                     	;# 
   302  010D                     	;# 
   303  010E                     	;# 
   304  010F                     	;# 
   305  018C                     	;# 
   306  018D                     	;# 
   307  0006                     _PORTB	set	6
   308  0006                     _PORTBbits	set	6
   309  0008                     _PORTDbits	set	8
   310  0088                     _TRISDbits	set	136
   311  0086                     _TRISB	set	134
   312  0085                     _TRISA	set	133
   313  0088                     _TRISD	set	136
   314                           
   315                           	psect	strings
   316  0800                     __pstrings:	
   317  0800                     stringtab:	
   318  0800                     __stringtab:	
   319  0800                     stringcode:	
   320                           ;	String table - string pointers are 1 byte each
   321                           
   322  0800                     stringdir:	
   323  0800  3008               	movlw	high stringdir
   324  0801  008A               	movwf	10
   325  0802  0804               	movf	4,w
   326  0803  0A84               	incf	4,f
   327  0804  0782               	addwf	2,f
   328  0805                     __stringbase:	
   329  0805  3400               	retlw	0
   330  0806                     __end_of__stringtab:	
   331  0806                     STR_10:	
   332  0806  3454               	retlw	84	;'T'
   333  0807  3445               	retlw	69	;'E'
   334  0808  344D               	retlw	77	;'M'
   335  0809  3450               	retlw	80	;'P'
   336  080A  3445               	retlw	69	;'E'
   337  080B  3452               	retlw	82	;'R'
   338  080C  3441               	retlw	65	;'A'
   339  080D  3454               	retlw	84	;'T'
   340  080E  3455               	retlw	85	;'U'
   341  080F  3452               	retlw	82	;'R'
   342  0810  3445               	retlw	69	;'E'
   343  0811  3420               	retlw	32	;' '
   344  0812  3449               	retlw	73	;'I'
   345  0813  344E               	retlw	78	;'N'
   346  0814  3420               	retlw	32	;' '
   347  0815  3443               	retlw	67	;'C'
   348  0816  3445               	retlw	69	;'E'
   349  0817  344C               	retlw	76	;'L'
   350  0818  3443               	retlw	67	;'C'
   351  0819  3449               	retlw	73	;'I'
   352  081A  3455               	retlw	85	;'U'
   353  081B  3453               	retlw	83	;'S'
   354  081C  3400               	retlw	0
   355  081D                     STR_1:	
   356  081D  3450               	retlw	80	;'P'
   357  081E  346C               	retlw	108	;'l'
   358  081F  3465               	retlw	101	;'e'
   359  0820  3461               	retlw	97	;'a'
   360  0821  3473               	retlw	115	;'s'
   361  0822  3465               	retlw	101	;'e'
   362  0823  3420               	retlw	32	;' '
   363  0824  3443               	retlw	67	;'C'
   364  0825  346F               	retlw	111	;'o'
   365  0826  346E               	retlw	110	;'n'
   366  0827  346E               	retlw	110	;'n'
   367  0828  3465               	retlw	101	;'e'
   368  0829  3463               	retlw	99	;'c'
   369  082A  3474               	retlw	116	;'t'
   370  082B  3420               	retlw	32	;' '
   371  082C  3420               	retlw	32	;' '
   372  082D  3420               	retlw	32	;' '
   373  082E  3400               	retlw	0
   374  082F                     STR_3:	
   375  082F  3420               	retlw	32	;' '
   376  0830  3420               	retlw	32	;' '
   377  0831  3420               	retlw	32	;' '
   378  0832  3420               	retlw	32	;' '
   379  0833  3420               	retlw	32	;' '
   380  0834  3420               	retlw	32	;' '
   381  0835  3420               	retlw	32	;' '
   382  0836  3420               	retlw	32	;' '
   383  0837  3420               	retlw	32	;' '
   384  0838  3420               	retlw	32	;' '
   385  0839  3420               	retlw	32	;' '
   386  083A  3420               	retlw	32	;' '
   387  083B  3420               	retlw	32	;' '
   388  083C  3420               	retlw	32	;' '
   389  083D  3420               	retlw	32	;' '
   390  083E  3420               	retlw	32	;' '
   391  083F  3400               	retlw	0
   392  0840                     STR_2:	
   393  0840  3454               	retlw	84	;'T'
   394  0841  3465               	retlw	101	;'e'
   395  0842  346D               	retlw	109	;'m'
   396  0843  3470               	retlw	112	;'p'
   397  0844  342D               	retlw	45	;'-'
   398  0845  3453               	retlw	83	;'S'
   399  0846  3465               	retlw	101	;'e'
   400  0847  346E               	retlw	110	;'n'
   401  0848  3473               	retlw	115	;'s'
   402  0849  3465               	retlw	101	;'e'
   403  084A  3420               	retlw	32	;' '
   404  084B  3450               	retlw	80	;'P'
   405  084C  3472               	retlw	114	;'r'
   406  084D  346F               	retlw	111	;'o'
   407  084E  3462               	retlw	98	;'b'
   408  084F  3465               	retlw	101	;'e'
   409  0850  3400               	retlw	0
   410  0851                     STR_4:	
   411  0851  3443               	retlw	67	;'C'
   412  0852  3469               	retlw	105	;'i'
   413  0853  3472               	retlw	114	;'r'
   414  0854  3463               	retlw	99	;'c'
   415  0855  3475               	retlw	117	;'u'
   416  0856  3469               	retlw	105	;'i'
   417  0857  3474               	retlw	116	;'t'
   418  0858  3420               	retlw	32	;' '
   419  0859  3444               	retlw	68	;'D'
   420  085A  3469               	retlw	105	;'i'
   421  085B  3467               	retlw	103	;'g'
   422  085C  3465               	retlw	101	;'e'
   423  085D  3473               	retlw	115	;'s'
   424  085E  3474               	retlw	116	;'t'
   425  085F  3400               	retlw	0
   426  0860                     STR_6:	
   427  0860  3443               	retlw	67	;'C'
   428  0861  3420               	retlw	32	;' '
   429  0862  3420               	retlw	32	;' '
   430  0863  3420               	retlw	32	;' '
   431  0864  3420               	retlw	32	;' '
   432  0865  3400               	retlw	0
   433  0866                     STR_5:	
   434  0866  342D               	retlw	45	;'-'
   435  0867  3400               	retlw	0
   436  0860                     
   437                           ; #config settings
   438  0000                     
   439                           	psect	cinit
   440  07E4                     start_initialization:	
   441  07E4                     __initialization:	
   442                           
   443                           ; Clear objects allocated to BANK0
   444  07E4  1283               	bcf	3,5	;RP0=0, select bank0
   445  07E5  1303               	bcf	3,6	;RP1=0, select bank0
   446  07E6  01E8               	clrf	__pbssBANK0& (0+127)
   447  07E7  01E9               	clrf	(__pbssBANK0+1)& (0+127)
   448  07E8  01EA               	clrf	(__pbssBANK0+2)& (0+127)
   449  07E9  01EB               	clrf	(__pbssBANK0+3)& (0+127)
   450  07EA  01EC               	clrf	(__pbssBANK0+4)& (0+127)
   451  07EB  01ED               	clrf	(__pbssBANK0+5)& (0+127)
   452  07EC  01EE               	clrf	(__pbssBANK0+6)& (0+127)
   453  07ED  01EF               	clrf	(__pbssBANK0+7)& (0+127)
   454                           
   455                           ; Clear objects allocated to BANK1
   456  07EE  1683               	bsf	3,5	;RP0=1, select bank1
   457  07EF  1303               	bcf	3,6	;RP1=0, select bank1
   458  07F0  01A0               	clrf	__pbssBANK1& (0+127)
   459  07F1  01A1               	clrf	(__pbssBANK1+1)& (0+127)
   460  07F2  01A2               	clrf	(__pbssBANK1+2)& (0+127)
   461  07F3  01A3               	clrf	(__pbssBANK1+3)& (0+127)
   462  07F4  01A4               	clrf	(__pbssBANK1+4)& (0+127)
   463  07F5  01A5               	clrf	(__pbssBANK1+5)& (0+127)
   464  07F6  01A6               	clrf	(__pbssBANK1+6)& (0+127)
   465  07F7  01A7               	clrf	(__pbssBANK1+7)& (0+127)
   466  07F8  01A8               	clrf	(__pbssBANK1+8)& (0+127)
   467  07F9  01A9               	clrf	(__pbssBANK1+9)& (0+127)
   468  07FA  01AA               	clrf	(__pbssBANK1+10)& (0+127)
   469  07FB  01AB               	clrf	(__pbssBANK1+11)& (0+127)
   470  07FC                     end_of_initialization:	
   471                           ;End of C runtime variable initialization code
   472                           
   473  07FC                     __end_of__initialization:	
   474  07FC  0183               	clrf	3
   475  07FD  120A  118A  2C6A   	ljmp	_main	;jump to C main() function
   476                           
   477                           	psect	bssBANK0
   478  0068                     __pbssBANK0:	
   479  0068                     _aft_val:	
   480  0068                     	ds	4
   481  006C                     _pre_val:	
   482  006C                     	ds	4
   483                           
   484                           	psect	bssBANK1
   485  00A0                     __pbssBANK1:	
   486  00A0                     lcd_bcd@F890:	
   487  00A0                     	ds	10
   488  00AA                     _status:	
   489  00AA                     	ds	2
   490                           
   491                           	psect	cstackCOMMON
   492  0070                     __pcstackCOMMON:	
   493  0070                     ?___flge:	
   494  0070                     ?_lcd_init:	
   495                           ; 1 bit 
   496                           
   497  0070                     ?_lcd_com:	
   498                           ; 1 bytes @ 0x0
   499                           
   500  0070                     ?_lcd_puts:	
   501                           ; 1 bytes @ 0x0
   502                           
   503  0070                     ?_ow_reset:	
   504                           ; 1 bytes @ 0x0
   505                           
   506  0070                     ??_ow_reset:	
   507                           ; 1 bytes @ 0x0
   508                           
   509  0070                     ?_write_byte:	
   510                           ; 1 bytes @ 0x0
   511                           
   512  0070                     ??_write_byte:	
   513                           ; 1 bytes @ 0x0
   514                           
   515  0070                     ?_read_byte:	
   516                           ; 1 bytes @ 0x0
   517                           
   518  0070                     ??_read_byte:	
   519                           ; 1 bytes @ 0x0
   520                           
   521  0070                     ?_lcd_data:	
   522                           ; 1 bytes @ 0x0
   523                           
   524  0070                     ?_main:	
   525                           ; 1 bytes @ 0x0
   526                           
   527  0070                     ?_delay:	
   528                           ; 1 bytes @ 0x0
   529                           
   530  0070                     ?_lcd_init_write:	
   531                           ; 1 bytes @ 0x0
   532                           
   533  0070                     ?__Umul8_16:	
   534                           ; 1 bytes @ 0x0
   535                           
   536  0070                     ?___wmul:	
   537                           ; 2 bytes @ 0x0
   538                           
   539  0070                     ?___lwdiv:	
   540                           ; 2 bytes @ 0x0
   541                           
   542  0070                     ?___lwmod:	
   543                           ; 2 bytes @ 0x0
   544                           
   545  0070                     ?___fladd:	
   546                           ; 2 bytes @ 0x0
   547                           
   548  0070                     ?___xxtofl:	
   549                           ; 4 bytes @ 0x0
   550                           
   551  0070                     lcd_bcd@uc_digit:	
   552                           ; 4 bytes @ 0x0
   553                           
   554  0070                     __Umul8_16@multiplicand:	
   555                           ; 1 bytes @ 0x0
   556                           
   557  0070                     delay@j:	
   558                           ; 1 bytes @ 0x0
   559                           
   560  0070                     ___wmul@multiplier:	
   561                           ; 2 bytes @ 0x0
   562                           
   563  0070                     ___lwdiv@divisor:	
   564                           ; 2 bytes @ 0x0
   565                           
   566  0070                     ___lwmod@divisor:	
   567                           ; 2 bytes @ 0x0
   568                           
   569  0070                     ___flge@ff1:	
   570                           ; 2 bytes @ 0x0
   571                           
   572  0070                     ___fladd@b:	
   573                           ; 4 bytes @ 0x0
   574                           
   575  0070                     ___xxtofl@val:	
   576                           ; 4 bytes @ 0x0
   577                           
   578                           
   579                           ; 4 bytes @ 0x0
   580  0070                     	ds	1
   581  0071                     write_byte@val:	
   582                           
   583                           ; 1 bytes @ 0x1
   584  0071                     	ds	1
   585  0072                     ??__Umul8_16:	
   586  0072                     ??_delay:	
   587                           ; 1 bytes @ 0x2
   588                           
   589  0072                     read_byte@result:	
   590                           ; 1 bytes @ 0x2
   591                           
   592  0072                     write_byte@i:	
   593                           ; 1 bytes @ 0x2
   594                           
   595  0072                     delay@i:	
   596                           ; 1 bytes @ 0x2
   597                           
   598  0072                     ___wmul@multiplicand:	
   599                           ; 2 bytes @ 0x2
   600                           
   601  0072                     ___lwdiv@dividend:	
   602                           ; 2 bytes @ 0x2
   603                           
   604  0072                     ___lwmod@dividend:	
   605                           ; 2 bytes @ 0x2
   606                           
   607                           
   608                           ; 2 bytes @ 0x2
   609  0072                     	ds	1
   610  0073                     read_byte@i:	
   611                           
   612                           ; 1 bytes @ 0x3
   613  0073                     	ds	1
   614  0074                     ??_lcd_com:	
   615  0074                     ??_lcd_init_write:	
   616                           ; 1 bytes @ 0x4
   617                           
   618  0074                     ??___wmul:	
   619                           ; 1 bytes @ 0x4
   620                           
   621  0074                     ??___lwdiv:	
   622                           ; 1 bytes @ 0x4
   623                           
   624  0074                     ??___lwmod:	
   625                           ; 1 bytes @ 0x4
   626                           
   627  0074                     ??___xxtofl:	
   628                           ; 1 bytes @ 0x4
   629                           
   630  0074                     lcd_init_write@a:	
   631                           ; 1 bytes @ 0x4
   632                           
   633  0074                     ___wmul@product:	
   634                           ; 1 bytes @ 0x4
   635                           
   636  0074                     __Umul8_16@product:	
   637                           ; 2 bytes @ 0x4
   638                           
   639  0074                     ___flge@ff2:	
   640                           ; 2 bytes @ 0x4
   641                           
   642  0074                     ___fladd@a:	
   643                           ; 4 bytes @ 0x4
   644                           
   645                           
   646                           ; 4 bytes @ 0x4
   647  0074                     	ds	1
   648  0075                     ___lwmod@counter:	
   649  0075                     ___lwdiv@quotient:	
   650                           ; 1 bytes @ 0x5
   651                           
   652                           
   653                           ; 2 bytes @ 0x5
   654  0075                     	ds	1
   655  0076                     lcd_com@a:	
   656  0076                     __Umul8_16@word_mpld:	
   657                           ; 1 bytes @ 0x6
   658                           
   659                           
   660                           ; 2 bytes @ 0x6
   661  0076                     	ds	1
   662  0077                     lcd_com@temp:	
   663  0077                     ___lwdiv@counter:	
   664                           ; 1 bytes @ 0x7
   665                           
   666                           
   667                           ; 1 bytes @ 0x7
   668  0077                     	ds	1
   669  0078                     ??_lcd_init:	
   670  0078                     ??_lcd_data:	
   671                           ; 1 bytes @ 0x8
   672                           
   673  0078                     ??___flge:	
   674                           ; 1 bytes @ 0x8
   675                           
   676  0078                     lcd_data@a:	
   677                           ; 1 bytes @ 0x8
   678                           
   679  0078                     ___fladd@signs:	
   680                           ; 1 bytes @ 0x8
   681                           
   682  0078                     ___xxtofl@sign:	
   683                           ; 1 bytes @ 0x8
   684                           
   685  0078                     __Umul8_16@multiplier:	
   686                           ; 1 bytes @ 0x8
   687                           
   688                           
   689                           ; 1 bytes @ 0x8
   690  0078                     	ds	1
   691  0079                     ??_lcd_puts:	
   692  0079                     ___fladd@aexp:	
   693                           ; 1 bytes @ 0x9
   694                           
   695  0079                     ___xxtofl@exp:	
   696                           ; 1 bytes @ 0x9
   697                           
   698  0079                     lcd_puts@i:	
   699                           ; 1 bytes @ 0x9
   700                           
   701                           
   702                           ; 2 bytes @ 0x9
   703  0079                     	ds	1
   704  007A                     ___fladd@bexp:	
   705  007A                     ___xxtofl@arg:	
   706                           ; 1 bytes @ 0xA
   707                           
   708                           
   709                           ; 4 bytes @ 0xA
   710  007A                     	ds	1
   711  007B                     lcd_puts@str:	
   712  007B                     ___fladd@grs:	
   713                           ; 1 bytes @ 0xB
   714                           
   715                           
   716                           ; 1 bytes @ 0xB
   717  007B                     	ds	1
   718  007C                     ??___flsub:	
   719                           
   720                           ; 1 bytes @ 0xC
   721  007C                     	ds	2
   722  007E                     ??_lcd_bcd:	
   723                           
   724                           	psect	cstackBANK0
   725  0020                     __pcstackBANK0:	
   726                           ; 1 bytes @ 0xE
   727                           
   728  0020                     ??___fladd:	
   729  0020                     ?___flmul:	
   730                           ; 1 bytes @ 0x0
   731                           
   732  0020                     ___flmul@b:	
   733                           ; 4 bytes @ 0x0
   734                           
   735                           
   736                           ; 4 bytes @ 0x0
   737  0020                     	ds	4
   738  0024                     ___flmul@a:	
   739                           
   740                           ; 4 bytes @ 0x4
   741  0024                     	ds	4
   742  0028                     ??___flmul:	
   743  0028                     ?___flsub:	
   744                           ; 1 bytes @ 0x8
   745                           
   746  0028                     ___flsub@a:	
   747                           ; 4 bytes @ 0x8
   748                           
   749                           
   750                           ; 4 bytes @ 0x8
   751  0028                     	ds	4
   752  002C                     ___flsub@b:	
   753                           
   754                           ; 4 bytes @ 0xC
   755  002C                     	ds	1
   756  002D                     ___flmul@sign:	
   757                           
   758                           ; 1 bytes @ 0xD
   759  002D                     	ds	1
   760  002E                     ___flmul@grs:	
   761                           
   762                           ; 4 bytes @ 0xE
   763  002E                     	ds	4
   764  0032                     ___flmul@aexp:	
   765                           
   766                           ; 1 bytes @ 0x12
   767  0032                     	ds	1
   768  0033                     ___flmul@bexp:	
   769                           
   770                           ; 1 bytes @ 0x13
   771  0033                     	ds	1
   772  0034                     ___flmul@prod:	
   773                           
   774                           ; 4 bytes @ 0x14
   775  0034                     	ds	4
   776  0038                     ___flmul@temp:	
   777                           
   778                           ; 2 bytes @ 0x18
   779  0038                     	ds	2
   780  003A                     ?___fltol:	
   781  003A                     ___fltol@f1:	
   782                           ; 4 bytes @ 0x1A
   783                           
   784                           
   785                           ; 4 bytes @ 0x1A
   786  003A                     	ds	4
   787  003E                     ??___fltol:	
   788                           
   789                           ; 1 bytes @ 0x1E
   790  003E                     	ds	5
   791  0043                     ___fltol@sign1:	
   792                           
   793                           ; 1 bytes @ 0x23
   794  0043                     	ds	1
   795  0044                     ___fltol@exp1:	
   796                           
   797                           ; 1 bytes @ 0x24
   798  0044                     	ds	1
   799  0045                     ?_lcd_bcd:	
   800  0045                     lcd_bcd@ui_number:	
   801                           ; 1 bytes @ 0x25
   802                           
   803                           
   804                           ; 2 bytes @ 0x25
   805  0045                     	ds	2
   806  0047                     lcd_bcd@ui_decimal:	
   807                           
   808                           ; 10 bytes @ 0x27
   809  0047                     	ds	10
   810  0051                     ??_main:	
   811                           
   812                           ; 1 bytes @ 0x31
   813  0051                     	ds	3
   814  0054                     main@difference1:	
   815                           
   816                           ; 4 bytes @ 0x34
   817  0054                     	ds	4
   818  0058                     main@difference2:	
   819                           
   820                           ; 4 bytes @ 0x38
   821  0058                     	ds	4
   822  005C                     main@TempL:	
   823                           
   824                           ; 2 bytes @ 0x3C
   825  005C                     	ds	2
   826  005E                     main@TempH:	
   827                           
   828                           ; 2 bytes @ 0x3E
   829  005E                     	ds	2
   830  0060                     main@t2:	
   831                           
   832                           ; 2 bytes @ 0x40
   833  0060                     	ds	2
   834  0062                     main@t:	
   835                           
   836                           ; 2 bytes @ 0x42
   837  0062                     	ds	2
   838  0064                     main@i:	
   839                           
   840                           ; 4 bytes @ 0x44
   841  0064                     	ds	4
   842                           
   843                           	psect	maintext
   844  046A                     __pmaintext:	
   845 ;;
   846 ;;Main: autosize = 0, tempsize = 3, incstack = 0, save=0
   847 ;;
   848 ;; *************** function _main *****************
   849 ;; Defined at:
   850 ;;		line 56 in file "main.c"
   851 ;; Parameters:    Size  Location     Type
   852 ;;		None
   853 ;; Auto vars:     Size  Location     Type
   854 ;;  i               4   68[BANK0 ] float 
   855 ;;  difference2     4   56[BANK0 ] float 
   856 ;;  difference1     4   52[BANK0 ] float 
   857 ;;  t               2   66[BANK0 ] unsigned int 
   858 ;;  t2              2   64[BANK0 ] unsigned int 
   859 ;;  TempH           2   62[BANK0 ] unsigned short 
   860 ;;  TempL           2   60[BANK0 ] unsigned short 
   861 ;; Return value:  Size  Location     Type
   862 ;;                  1    wreg      void 
   863 ;; Registers used:
   864 ;;		wreg, fsr0l, fsr0h, status,2, status,0, btemp+1, pclath, cstack
   865 ;; Tracked objects:
   866 ;;		On entry : B00/0
   867 ;;		On exit  : 0/0
   868 ;;		Unchanged: 0/0
   869 ;; Data sizes:     COMMON   BANK0   BANK1   BANK3   BANK2
   870 ;;      Params:         0       0       0       0       0
   871 ;;      Locals:         0      20       0       0       0
   872 ;;      Temps:          0       3       0       0       0
   873 ;;      Totals:         0      23       0       0       0
   874 ;;Total ram usage:       23 bytes
   875 ;; Hardware stack levels required when called:    4
   876 ;; This function calls:
   877 ;;		___flge
   878 ;;		___flmul
   879 ;;		___flsub
   880 ;;		___fltol
   881 ;;		___wmul
   882 ;;		___xxtofl
   883 ;;		_lcd_bcd
   884 ;;		_lcd_com
   885 ;;		_lcd_data
   886 ;;		_lcd_init
   887 ;;		_lcd_puts
   888 ;;		_ow_reset
   889 ;;		_read_byte
   890 ;;		_write_byte
   891 ;; This function is called by:
   892 ;;		Startup code after reset
   893 ;; This function uses a non-reentrant model
   894 ;;
   895                           
   896                           
   897                           ;psect for function _main
   898  046A                     _main:	
   899                           
   900                           ;main.c: 57:     TRISD = 0xFF;
   901                           
   902                           ;incstack = 0
   903                           ; Regs used in _main: [wreg-fsr0h+status,2+status,0+btemp+1+pclath+cstack]
   904  046A  30FF               	movlw	255
   905  046B  1683               	bsf	3,5	;RP0=1, select bank1
   906  046C  1303               	bcf	3,6	;RP1=0, select bank1
   907  046D  0088               	movwf	8	;volatile
   908                           
   909                           ;main.c: 58:     TRISA = 0x00;
   910  046E  0185               	clrf	5	;volatile
   911                           
   912                           ;main.c: 59:     TRISB = 0x00;
   913  046F  0186               	clrf	6	;volatile
   914  0470  3000               	movlw	0
   915  0471  1283               	bcf	3,5	;RP0=0, select bank0
   916  0472  1303               	bcf	3,6	;RP1=0, select bank0
   917  0473  00DB               	movwf	main@difference2+3
   918  0474  3000               	movlw	0
   919  0475  00DA               	movwf	main@difference2+2
   920  0476  3000               	movlw	0
   921  0477  00D9               	movwf	main@difference2+1
   922  0478  3000               	movlw	0
   923  0479  00D8               	movwf	main@difference2
   924                           
   925                           ;main.c: 64:     lcd_init();
   926  047A  120A  158A  23FC  120A  118A  	fcall	_lcd_init
   927  047F                     l2393:	
   928                           ;main.c: 68:   while(ow_reset()){
   929                           
   930                           
   931                           ;main.c: 68:   while(ow_reset()){
   932  047F  120A  158A  2264  120A  118A  	fcall	_ow_reset
   933  0484  3A00               	xorlw	0
   934  0485  1903               	btfsc	3,2
   935  0486  2CA0               	goto	l2395
   936                           
   937                           ;main.c: 69:    lcd_com(0x80);
   938  0487  3080               	movlw	128
   939  0488  120A  158A  233E  120A  118A  	fcall	_lcd_com
   940                           
   941                           ;main.c: 70:    lcd_puts ("Please Connect   ");
   942  048D  3018               	movlw	(low ((STR_1-__stringbase)| (0+32768)))& (0+255)
   943  048E  120A  158A  221F  120A  118A  	fcall	_lcd_puts
   944                           
   945                           ;main.c: 71:    lcd_com (0xC0);
   946  0493  30C0               	movlw	192
   947  0494  120A  158A  233E  120A  118A  	fcall	_lcd_com
   948                           
   949                           ;main.c: 72:    lcd_puts("Temp-Sense Probe");
   950  0499  303B               	movlw	(low ((STR_2-__stringbase)| (0+32768)))& (0+255)
   951  049A  120A  158A  221F  120A  118A  	fcall	_lcd_puts
   952  049F  2C7F               	goto	l2393
   953  04A0                     l2395:	
   954                           
   955                           ;main.c: 76:         lcd_puts ("                ");
   956  04A0  302A               	movlw	(low ((STR_3-__stringbase)| (0+32768)))& (0+255)
   957  04A1  120A  158A  221F  120A  118A  	fcall	_lcd_puts
   958                           
   959                           ;main.c: 77:   ow_reset();
   960  04A6  120A  158A  2264  120A  118A  	fcall	_ow_reset
   961                           
   962                           ;main.c: 78:   write_byte(0x4E);
   963  04AB  304E               	movlw	78
   964  04AC  120A  158A  22C7  120A  118A  	fcall	_write_byte
   965                           
   966                           ;main.c: 79:      write_byte(0);
   967  04B1  3000               	movlw	0
   968  04B2  120A  158A  22C7  120A  118A  	fcall	_write_byte
   969                           
   970                           ;main.c: 80:   write_byte(0);
   971  04B7  3000               	movlw	0
   972  04B8  120A  158A  22C7  120A  118A  	fcall	_write_byte
   973                           
   974                           ;main.c: 81:   write_byte(0x7F);
   975  04BD  307F               	movlw	127
   976  04BE  120A  158A  22C7  120A  118A  	fcall	_write_byte
   977                           
   978                           ;main.c: 82:   ow_reset();
   979  04C3  120A  158A  2264  120A  118A  	fcall	_ow_reset
   980                           
   981                           ;main.c: 83:   write_byte(0xCC);
   982  04C8  30CC               	movlw	204
   983  04C9  120A  158A  22C7  120A  118A  	fcall	_write_byte
   984                           
   985                           ;main.c: 84:   write_byte(0x44);
   986  04CE  3044               	movlw	68
   987  04CF  120A  158A  22C7  120A  118A  	fcall	_write_byte
   988  04D4                     l2415:	
   989                           ;main.c: 86:   while (read_byte()==0xff)
   990                           
   991                           
   992                           ;main.c: 86:   while (read_byte()==0xff)
   993  04D4  120A  118A  2003  120A  118A  	fcall	_read_byte
   994  04D9  3AFF               	xorlw	255
   995  04DA  1D03               	btfss	3,2
   996  04DB  2CEC               	goto	l2417
   997                           
   998                           ;main.c: 87:    _delay((unsigned long)((500)*(20000000/4000.0)));
   999  04DC  300D               	movlw	13
  1000  04DD  1283               	bcf	3,5	;RP0=0, select bank0
  1001  04DE  1303               	bcf	3,6	;RP1=0, select bank0
  1002  04DF  00D3               	movwf	??_main+2
  1003  04E0  30AF               	movlw	175
  1004  04E1  00D2               	movwf	??_main+1
  1005  04E2  30B5               	movlw	181
  1006  04E3  00D1               	movwf	??_main
  1007  04E4                     u3297:	
  1008  04E4  0BD1               	decfsz	??_main,f
  1009  04E5  2CE4               	goto	u3297
  1010  04E6  0BD2               	decfsz	??_main+1,f
  1011  04E7  2CE4               	goto	u3297
  1012  04E8  0BD3               	decfsz	??_main+2,f
  1013  04E9  2CE4               	goto	u3297
  1014  04EA  2CEB               	nop2
  1015  04EB  2CD4               	goto	l2415
  1016  04EC                     l2417:	
  1017                           
  1018                           ;main.c: 89:    ow_reset();
  1019  04EC  120A  158A  2264  120A  118A  	fcall	_ow_reset
  1020                           
  1021                           ;main.c: 91:    write_byte(0xCC);
  1022  04F1  30CC               	movlw	204
  1023  04F2  120A  158A  22C7  120A  118A  	fcall	_write_byte
  1024                           
  1025                           ;main.c: 92:    write_byte(0xBE);
  1026  04F7  30BE               	movlw	190
  1027  04F8  120A  158A  22C7  120A  118A  	fcall	_write_byte
  1028                           
  1029                           ;main.c: 94:    TempL = read_byte();
  1030  04FD  120A  118A  2003  120A  118A  	fcall	_read_byte
  1031  0502  1283               	bcf	3,5	;RP0=0, select bank0
  1032  0503  1303               	bcf	3,6	;RP1=0, select bank0
  1033  0504  00D1               	movwf	??_main
  1034  0505  01D2               	clrf	??_main+1
  1035  0506  0851               	movf	??_main,w
  1036  0507  00DC               	movwf	main@TempL
  1037  0508  0852               	movf	??_main+1,w
  1038  0509  00DD               	movwf	main@TempL+1
  1039                           
  1040                           ;main.c: 95:    TempH = read_byte();
  1041  050A  120A  118A  2003  120A  118A  	fcall	_read_byte
  1042  050F  1283               	bcf	3,5	;RP0=0, select bank0
  1043  0510  1303               	bcf	3,6	;RP1=0, select bank0
  1044  0511  00D1               	movwf	??_main
  1045  0512  01D2               	clrf	??_main+1
  1046  0513  0851               	movf	??_main,w
  1047  0514  00DE               	movwf	main@TempH
  1048  0515  0852               	movf	??_main+1,w
  1049  0516  00DF               	movwf	main@TempH+1
  1050                           
  1051                           ;main.c: 106:   if((TempH & 0x80)!=0){
  1052  0517  1FDE               	btfss	main@TempH,7
  1053  0518  2EB4               	goto	l2481
  1054                           
  1055                           ;main.c: 107:    t=TempH;
  1056  0519  085F               	movf	main@TempH+1,w
  1057  051A  00E3               	movwf	main@t+1
  1058  051B  085E               	movf	main@TempH,w
  1059  051C  00E2               	movwf	main@t
  1060                           
  1061                           ;main.c: 108:          t<<=8;
  1062  051D  3008               	movlw	8
  1063  051E                     u3195:	
  1064  051E  1003               	clrc
  1065  051F  0DE2               	rlf	main@t,f
  1066  0520  0DE3               	rlf	main@t+1,f
  1067  0521  3EFF               	addlw	-1
  1068  0522  1D03               	skipz
  1069  0523  2D1E               	goto	u3195
  1070                           
  1071                           ;main.c: 109:          t=t|TempL;
  1072  0524  085C               	movf	main@TempL,w
  1073  0525  0462               	iorwf	main@t,w
  1074  0526  00E2               	movwf	main@t
  1075  0527  085D               	movf	main@TempL+1,w
  1076  0528  0463               	iorwf	main@t+1,w
  1077  0529  00E3               	movwf	main@t+1
  1078                           
  1079                           ;main.c: 110:          t=t-1;
  1080  052A  0862               	movf	main@t,w
  1081  052B  3EFF               	addlw	255
  1082  052C  00E2               	movwf	main@t
  1083  052D  0863               	movf	main@t+1,w
  1084  052E  1803               	skipnc
  1085  052F  3E01               	addlw	1
  1086  0530  3EFF               	addlw	255
  1087  0531  00E3               	movwf	main@t+1
  1088                           
  1089                           ;main.c: 111:          t=~t;
  1090  0532  09E2               	comf	main@t,f
  1091  0533  09E3               	comf	main@t+1,f
  1092                           
  1093                           ;main.c: 112:          t>>=4;
  1094  0534  3004               	movlw	4
  1095  0535                     u3205:	
  1096  0535  1003               	clrc
  1097  0536  0CE3               	rrf	main@t+1,f
  1098  0537  0CE2               	rrf	main@t,f
  1099  0538  3EFF               	addlw	-1
  1100  0539  1D03               	skipz
  1101  053A  2D35               	goto	u3205
  1102                           
  1103                           ;main.c: 113:    t=t*100;
  1104  053B  0863               	movf	main@t+1,w
  1105  053C  00F1               	movwf	___wmul@multiplier+1
  1106  053D  0862               	movf	main@t,w
  1107  053E  00F0               	movwf	___wmul@multiplier
  1108  053F  3064               	movlw	100
  1109  0540  00F2               	movwf	___wmul@multiplicand
  1110  0541  3000               	movlw	0
  1111  0542  00F3               	movwf	___wmul@multiplicand+1
  1112  0543  120A  158A  21DC  120A  118A  	fcall	___wmul
  1113  0548  0871               	movf	?___wmul+1,w
  1114  0549  1283               	bcf	3,5	;RP0=0, select bank0
  1115  054A  1303               	bcf	3,6	;RP1=0, select bank0
  1116  054B  00E3               	movwf	main@t+1
  1117  054C  0870               	movf	?___wmul,w
  1118  054D  00E2               	movwf	main@t
  1119                           
  1120                           ;main.c: 114:    t2=TempL;
  1121  054E  085D               	movf	main@TempL+1,w
  1122  054F  00E1               	movwf	main@t2+1
  1123  0550  085C               	movf	main@TempL,w
  1124  0551  00E0               	movwf	main@t2
  1125                           
  1126                           ;main.c: 115:    t2=t2-1;
  1127  0552  0860               	movf	main@t2,w
  1128  0553  3EFF               	addlw	255
  1129  0554  00E0               	movwf	main@t2
  1130  0555  0861               	movf	main@t2+1,w
  1131  0556  1803               	skipnc
  1132  0557  3E01               	addlw	1
  1133  0558  3EFF               	addlw	255
  1134  0559  00E1               	movwf	main@t2+1
  1135                           
  1136                           ;main.c: 116:          t2=~t2;
  1137  055A  09E0               	comf	main@t2,f
  1138  055B  09E1               	comf	main@t2+1,f
  1139                           
  1140                           ;main.c: 117:          t2=t2&0x0f;
  1141  055C  300F               	movlw	15
  1142  055D  0560               	andwf	main@t2,w
  1143  055E  00E0               	movwf	main@t2
  1144  055F  3000               	movlw	0
  1145  0560  0561               	andwf	main@t2+1,w
  1146  0561  00E1               	movwf	main@t2+1
  1147                           
  1148                           ;main.c: 118:    t2=t2 * 6.25;
  1149  0562  0860               	movf	main@t2,w
  1150  0563  00F0               	movwf	___xxtofl@val
  1151  0564  0861               	movf	main@t2+1,w
  1152  0565  00F1               	movwf	___xxtofl@val+1
  1153  0566  01F2               	clrf	___xxtofl@val+2
  1154  0567  01F3               	clrf	___xxtofl@val+3
  1155  0568  3000               	movlw	0
  1156  0569  120A  158A  251E  120A  118A  	fcall	___xxtofl
  1157  056E  0873               	movf	?___xxtofl+3,w
  1158  056F  1283               	bcf	3,5	;RP0=0, select bank0
  1159  0570  1303               	bcf	3,6	;RP1=0, select bank0
  1160  0571  00A7               	movwf	___flmul@a+3
  1161  0572  0872               	movf	?___xxtofl+2,w
  1162  0573  00A6               	movwf	___flmul@a+2
  1163  0574  0871               	movf	?___xxtofl+1,w
  1164  0575  00A5               	movwf	___flmul@a+1
  1165  0576  0870               	movf	?___xxtofl,w
  1166  0577  00A4               	movwf	___flmul@a
  1167  0578  3040               	movlw	64
  1168  0579  00A3               	movwf	___flmul@b+3
  1169  057A  30C8               	movlw	200
  1170  057B  00A2               	movwf	___flmul@b+2
  1171  057C  3000               	movlw	0
  1172  057D  00A1               	movwf	___flmul@b+1
  1173  057E  3000               	movlw	0
  1174  057F  00A0               	movwf	___flmul@b
  1175  0580  120A  118A  2155  120A  118A  	fcall	___flmul
  1176  0585  1283               	bcf	3,5	;RP0=0, select bank0
  1177  0586  1303               	bcf	3,6	;RP1=0, select bank0
  1178  0587  0823               	movf	?___flmul+3,w
  1179  0588  00BD               	movwf	___fltol@f1+3
  1180  0589  0822               	movf	?___flmul+2,w
  1181  058A  00BC               	movwf	___fltol@f1+2
  1182  058B  0821               	movf	?___flmul+1,w
  1183  058C  00BB               	movwf	___fltol@f1+1
  1184  058D  0820               	movf	?___flmul,w
  1185  058E  00BA               	movwf	___fltol@f1
  1186  058F  120A  158A  238F  120A  118A  	fcall	___fltol
  1187  0594  1283               	bcf	3,5	;RP0=0, select bank0
  1188  0595  1303               	bcf	3,6	;RP1=0, select bank0
  1189  0596  083B               	movf	?___fltol+1,w
  1190  0597  00E1               	movwf	main@t2+1
  1191  0598  083A               	movf	?___fltol,w
  1192  0599  00E0               	movwf	main@t2
  1193                           
  1194                           ;main.c: 119:    i=((unsigned int)t ) + (unsigned int)t2;
  1195  059A  0860               	movf	main@t2,w
  1196  059B  0762               	addwf	main@t,w
  1197  059C  00F0               	movwf	___xxtofl@val
  1198  059D  0861               	movf	main@t2+1,w
  1199  059E  1803               	skipnc
  1200  059F  0A61               	incf	main@t2+1,w
  1201  05A0  0763               	addwf	main@t+1,w
  1202  05A1  00F1               	movwf	___xxtofl@val+1
  1203  05A2  01F2               	clrf	___xxtofl@val+2
  1204  05A3  01F3               	clrf	___xxtofl@val+3
  1205  05A4  3000               	movlw	0
  1206  05A5  120A  158A  251E  120A  118A  	fcall	___xxtofl
  1207  05AA  0873               	movf	?___xxtofl+3,w
  1208  05AB  1283               	bcf	3,5	;RP0=0, select bank0
  1209  05AC  1303               	bcf	3,6	;RP1=0, select bank0
  1210  05AD  00E7               	movwf	main@i+3
  1211  05AE  0872               	movf	?___xxtofl+2,w
  1212  05AF  00E6               	movwf	main@i+2
  1213  05B0  0871               	movf	?___xxtofl+1,w
  1214  05B1  00E5               	movwf	main@i+1
  1215  05B2  0870               	movf	?___xxtofl,w
  1216  05B3  00E4               	movwf	main@i
  1217                           
  1218                           ;main.c: 123:    pre_val=aft_val;
  1219  05B4  086B               	movf	_aft_val+3,w
  1220  05B5  00EF               	movwf	_pre_val+3
  1221  05B6  086A               	movf	_aft_val+2,w
  1222  05B7  00EE               	movwf	_pre_val+2
  1223  05B8  0869               	movf	_aft_val+1,w
  1224  05B9  00ED               	movwf	_pre_val+1
  1225  05BA  0868               	movf	_aft_val,w
  1226  05BB  00EC               	movwf	_pre_val
  1227                           
  1228                           ;main.c: 125:    difference1 = pre_val - i;
  1229  05BC  0867               	movf	main@i+3,w
  1230  05BD  00AB               	movwf	___flsub@a+3
  1231  05BE  0866               	movf	main@i+2,w
  1232  05BF  00AA               	movwf	___flsub@a+2
  1233  05C0  0865               	movf	main@i+1,w
  1234  05C1  00A9               	movwf	___flsub@a+1
  1235  05C2  0864               	movf	main@i,w
  1236  05C3  00A8               	movwf	___flsub@a
  1237  05C4  086F               	movf	_pre_val+3,w
  1238  05C5  00AF               	movwf	___flsub@b+3
  1239  05C6  086E               	movf	_pre_val+2,w
  1240  05C7  00AE               	movwf	___flsub@b+2
  1241  05C8  086D               	movf	_pre_val+1,w
  1242  05C9  00AD               	movwf	___flsub@b+1
  1243  05CA  086C               	movf	_pre_val,w
  1244  05CB  00AC               	movwf	___flsub@b
  1245  05CC  120A  158A  21FD  120A  118A  	fcall	___flsub
  1246  05D1  1283               	bcf	3,5	;RP0=0, select bank0
  1247  05D2  1303               	bcf	3,6	;RP1=0, select bank0
  1248  05D3  082B               	movf	?___flsub+3,w
  1249  05D4  00D7               	movwf	main@difference1+3
  1250  05D5  082A               	movf	?___flsub+2,w
  1251  05D6  00D6               	movwf	main@difference1+2
  1252  05D7  0829               	movf	?___flsub+1,w
  1253  05D8  00D5               	movwf	main@difference1+1
  1254  05D9  0828               	movf	?___flsub,w
  1255  05DA  00D4               	movwf	main@difference1
  1256                           
  1257                           ;main.c: 126:    difference2 = i - pre_val;
  1258  05DB  086F               	movf	_pre_val+3,w
  1259  05DC  00AB               	movwf	___flsub@a+3
  1260  05DD  086E               	movf	_pre_val+2,w
  1261  05DE  00AA               	movwf	___flsub@a+2
  1262  05DF  086D               	movf	_pre_val+1,w
  1263  05E0  00A9               	movwf	___flsub@a+1
  1264  05E1  086C               	movf	_pre_val,w
  1265  05E2  00A8               	movwf	___flsub@a
  1266  05E3  0867               	movf	main@i+3,w
  1267  05E4  00AF               	movwf	___flsub@b+3
  1268  05E5  0866               	movf	main@i+2,w
  1269  05E6  00AE               	movwf	___flsub@b+2
  1270  05E7  0865               	movf	main@i+1,w
  1271  05E8  00AD               	movwf	___flsub@b+1
  1272  05E9  0864               	movf	main@i,w
  1273  05EA  00AC               	movwf	___flsub@b
  1274  05EB  120A  158A  21FD  120A  118A  	fcall	___flsub
  1275  05F0  1283               	bcf	3,5	;RP0=0, select bank0
  1276  05F1  1303               	bcf	3,6	;RP1=0, select bank0
  1277  05F2  082B               	movf	?___flsub+3,w
  1278  05F3  00DB               	movwf	main@difference2+3
  1279  05F4  082A               	movf	?___flsub+2,w
  1280  05F5  00DA               	movwf	main@difference2+2
  1281  05F6  0829               	movf	?___flsub+1,w
  1282  05F7  00D9               	movwf	main@difference2+1
  1283  05F8  0828               	movf	?___flsub,w
  1284  05F9  00D8               	movwf	main@difference2
  1285                           
  1286                           ;main.c: 128:    if(difference1 > 20 || difference2 > 20){
  1287  05FA  3041               	movlw	65
  1288  05FB  00F3               	movwf	___flge@ff1+3
  1289  05FC  30A0               	movlw	160
  1290  05FD  00F2               	movwf	___flge@ff1+2
  1291  05FE  3000               	movlw	0
  1292  05FF  00F1               	movwf	___flge@ff1+1
  1293  0600  3000               	movlw	0
  1294  0601  00F0               	movwf	___flge@ff1
  1295  0602  0857               	movf	main@difference1+3,w
  1296  0603  00F7               	movwf	___flge@ff2+3
  1297  0604  0856               	movf	main@difference1+2,w
  1298  0605  00F6               	movwf	___flge@ff2+2
  1299  0606  0855               	movf	main@difference1+1,w
  1300  0607  00F5               	movwf	___flge@ff2+1
  1301  0608  0854               	movf	main@difference1,w
  1302  0609  00F4               	movwf	___flge@ff2
  1303  060A  120A  158A  248B  120A  118A  	fcall	___flge
  1304  060F  1C03               	btfss	3,0
  1305  0610  2E2A               	goto	l2453
  1306  0611  3041               	movlw	65
  1307  0612  00F3               	movwf	___flge@ff1+3
  1308  0613  30A0               	movlw	160
  1309  0614  00F2               	movwf	___flge@ff1+2
  1310  0615  3000               	movlw	0
  1311  0616  00F1               	movwf	___flge@ff1+1
  1312  0617  3000               	movlw	0
  1313  0618  00F0               	movwf	___flge@ff1
  1314  0619  1283               	bcf	3,5	;RP0=0, select bank0
  1315  061A  1303               	bcf	3,6	;RP1=0, select bank0
  1316  061B  085B               	movf	main@difference2+3,w
  1317  061C  00F7               	movwf	___flge@ff2+3
  1318  061D  085A               	movf	main@difference2+2,w
  1319  061E  00F6               	movwf	___flge@ff2+2
  1320  061F  0859               	movf	main@difference2+1,w
  1321  0620  00F5               	movwf	___flge@ff2+1
  1322  0621  0858               	movf	main@difference2,w
  1323  0622  00F4               	movwf	___flge@ff2
  1324  0623  120A  158A  248B  120A  118A  	fcall	___flge
  1325  0628  1803               	btfsc	3,0
  1326  0629  2E74               	goto	l2469
  1327  062A                     l2453:	
  1328                           
  1329                           ;main.c: 129:       aft_val = i;
  1330  062A  1283               	bcf	3,5	;RP0=0, select bank0
  1331  062B  1303               	bcf	3,6	;RP1=0, select bank0
  1332  062C  0867               	movf	main@i+3,w
  1333  062D  00EB               	movwf	_aft_val+3
  1334  062E  0866               	movf	main@i+2,w
  1335  062F  00EA               	movwf	_aft_val+2
  1336  0630  0865               	movf	main@i+1,w
  1337  0631  00E9               	movwf	_aft_val+1
  1338  0632  0864               	movf	main@i,w
  1339  0633  00E8               	movwf	_aft_val
  1340                           
  1341                           ;main.c: 130:       lcd_com (0x80);
  1342  0634  3080               	movlw	128
  1343  0635  120A  158A  233E  120A  118A  	fcall	_lcd_com
  1344                           
  1345                           ;main.c: 131:       lcd_puts ("Circuit Digest");
  1346  063A  304C               	movlw	(low ((STR_4-__stringbase)| (0+32768)))& (0+255)
  1347  063B  120A  158A  221F  120A  118A  	fcall	_lcd_puts
  1348                           
  1349                           ;main.c: 132:       lcd_com (0xc0);
  1350  0640  30C0               	movlw	192
  1351  0641  120A  158A  233E  120A  118A  	fcall	_lcd_com
  1352                           
  1353                           ;main.c: 133:       lcd_puts("-");
  1354  0646  3061               	movlw	(low ((STR_5-__stringbase)| (0+32768)))& (0+255)
  1355  0647  120A  158A  221F  120A  118A  	fcall	_lcd_puts
  1356                           
  1357                           ;main.c: 134:       lcd_bcd (5,aft_val);
  1358  064C  1283               	bcf	3,5	;RP0=0, select bank0
  1359  064D  1303               	bcf	3,6	;RP1=0, select bank0
  1360  064E  086B               	movf	_aft_val+3,w
  1361  064F  00BD               	movwf	___fltol@f1+3
  1362  0650  086A               	movf	_aft_val+2,w
  1363  0651  00BC               	movwf	___fltol@f1+2
  1364  0652  0869               	movf	_aft_val+1,w
  1365  0653  00BB               	movwf	___fltol@f1+1
  1366  0654  0868               	movf	_aft_val,w
  1367  0655  00BA               	movwf	___fltol@f1
  1368  0656  120A  158A  238F  120A  118A  	fcall	___fltol
  1369  065B  1283               	bcf	3,5	;RP0=0, select bank0
  1370  065C  1303               	bcf	3,6	;RP1=0, select bank0
  1371  065D  083B               	movf	?___fltol+1,w
  1372  065E  00C6               	movwf	lcd_bcd@ui_number+1
  1373  065F  083A               	movf	?___fltol,w
  1374  0660  00C5               	movwf	lcd_bcd@ui_number
  1375  0661  3005               	movlw	5
  1376  0662  120A  118A  2035  120A  118A  	fcall	_lcd_bcd
  1377                           
  1378                           ;main.c: 135:       lcd_data(223);
  1379  0667  30DF               	movlw	223
  1380  0668  120A  158A  21A7  120A  118A  	fcall	_lcd_data
  1381                           
  1382                           ;main.c: 136:       lcd_puts("C    ");
  1383  066D  305B               	movlw	(low ((STR_6-__stringbase)| (0+32768)))& (0+255)
  1384  066E  120A  158A  221F  120A  118A  	fcall	_lcd_puts
  1385                           
  1386                           ;main.c: 138:      }
  1387  0673  2C7F               	goto	l2393
  1388  0674                     l2469:	
  1389                           
  1390                           ;main.c: 141:       lcd_com (0x80);
  1391  0674  3080               	movlw	128
  1392  0675  120A  158A  233E  120A  118A  	fcall	_lcd_com
  1393                           
  1394                           ;main.c: 142:       lcd_puts ("Circuit Digest");
  1395  067A  304C               	movlw	(low ((STR_4-__stringbase)| (0+32768)))& (0+255)
  1396  067B  120A  158A  221F  120A  118A  	fcall	_lcd_puts
  1397                           
  1398                           ;main.c: 143:       lcd_com (0xc0);
  1399  0680  30C0               	movlw	192
  1400  0681  120A  158A  233E  120A  118A  	fcall	_lcd_com
  1401                           
  1402                           ;main.c: 144:       lcd_puts("-");
  1403  0686  3061               	movlw	(low ((STR_5-__stringbase)| (0+32768)))& (0+255)
  1404  0687  120A  158A  221F  120A  118A  	fcall	_lcd_puts
  1405                           
  1406                           ;main.c: 145:       lcd_bcd (5,pre_val);
  1407  068C  1283               	bcf	3,5	;RP0=0, select bank0
  1408  068D  1303               	bcf	3,6	;RP1=0, select bank0
  1409  068E  086F               	movf	_pre_val+3,w
  1410  068F  00BD               	movwf	___fltol@f1+3
  1411  0690  086E               	movf	_pre_val+2,w
  1412  0691  00BC               	movwf	___fltol@f1+2
  1413  0692  086D               	movf	_pre_val+1,w
  1414  0693  00BB               	movwf	___fltol@f1+1
  1415  0694  086C               	movf	_pre_val,w
  1416  0695  00BA               	movwf	___fltol@f1
  1417  0696  120A  158A  238F  120A  118A  	fcall	___fltol
  1418  069B  1283               	bcf	3,5	;RP0=0, select bank0
  1419  069C  1303               	bcf	3,6	;RP1=0, select bank0
  1420  069D  083B               	movf	?___fltol+1,w
  1421  069E  00C6               	movwf	lcd_bcd@ui_number+1
  1422  069F  083A               	movf	?___fltol,w
  1423  06A0  00C5               	movwf	lcd_bcd@ui_number
  1424  06A1  3005               	movlw	5
  1425  06A2  120A  118A  2035  120A  118A  	fcall	_lcd_bcd
  1426                           
  1427                           ;main.c: 146:       lcd_data(223);
  1428  06A7  30DF               	movlw	223
  1429  06A8  120A  158A  21A7  120A  118A  	fcall	_lcd_data
  1430                           
  1431                           ;main.c: 147:       lcd_puts("C    ");
  1432  06AD  305B               	movlw	(low ((STR_6-__stringbase)| (0+32768)))& (0+255)
  1433  06AE  120A  158A  221F  120A  118A  	fcall	_lcd_puts
  1434  06B3  2C7F               	goto	l2393
  1435  06B4                     l2481:	
  1436                           
  1437                           ;main.c: 156:    i=((unsigned int)TempH << 8 ) + (unsigned int)TempL;
  1438  06B4  085E               	movf	main@TempH,w
  1439  06B5  00D2               	movwf	??_main+1
  1440  06B6  01D1               	clrf	??_main
  1441  06B7  085C               	movf	main@TempL,w
  1442  06B8  0751               	addwf	??_main,w
  1443  06B9  00F0               	movwf	___xxtofl@val
  1444  06BA  085D               	movf	main@TempL+1,w
  1445  06BB  1803               	skipnc
  1446  06BC  0A5D               	incf	main@TempL+1,w
  1447  06BD  0752               	addwf	??_main+1,w
  1448  06BE  00F1               	movwf	___xxtofl@val+1
  1449  06BF  01F2               	clrf	___xxtofl@val+2
  1450  06C0  01F3               	clrf	___xxtofl@val+3
  1451  06C1  3000               	movlw	0
  1452  06C2  120A  158A  251E  120A  118A  	fcall	___xxtofl
  1453  06C7  0873               	movf	?___xxtofl+3,w
  1454  06C8  1283               	bcf	3,5	;RP0=0, select bank0
  1455  06C9  1303               	bcf	3,6	;RP1=0, select bank0
  1456  06CA  00E7               	movwf	main@i+3
  1457  06CB  0872               	movf	?___xxtofl+2,w
  1458  06CC  00E6               	movwf	main@i+2
  1459  06CD  0871               	movf	?___xxtofl+1,w
  1460  06CE  00E5               	movwf	main@i+1
  1461  06CF  0870               	movf	?___xxtofl,w
  1462  06D0  00E4               	movwf	main@i
  1463                           
  1464                           ;main.c: 157:    i = i * 6.25;
  1465  06D1  3040               	movlw	64
  1466  06D2  00A3               	movwf	___flmul@b+3
  1467  06D3  30C8               	movlw	200
  1468  06D4  00A2               	movwf	___flmul@b+2
  1469  06D5  3000               	movlw	0
  1470  06D6  00A1               	movwf	___flmul@b+1
  1471  06D7  3000               	movlw	0
  1472  06D8  00A0               	movwf	___flmul@b
  1473  06D9  0867               	movf	main@i+3,w
  1474  06DA  00A7               	movwf	___flmul@a+3
  1475  06DB  0866               	movf	main@i+2,w
  1476  06DC  00A6               	movwf	___flmul@a+2
  1477  06DD  0865               	movf	main@i+1,w
  1478  06DE  00A5               	movwf	___flmul@a+1
  1479  06DF  0864               	movf	main@i,w
  1480  06E0  00A4               	movwf	___flmul@a
  1481  06E1  120A  118A  2155  120A  118A  	fcall	___flmul
  1482  06E6  1283               	bcf	3,5	;RP0=0, select bank0
  1483  06E7  1303               	bcf	3,6	;RP1=0, select bank0
  1484  06E8  0823               	movf	?___flmul+3,w
  1485  06E9  00E7               	movwf	main@i+3
  1486  06EA  0822               	movf	?___flmul+2,w
  1487  06EB  00E6               	movwf	main@i+2
  1488  06EC  0821               	movf	?___flmul+1,w
  1489  06ED  00E5               	movwf	main@i+1
  1490  06EE  0820               	movf	?___flmul,w
  1491  06EF  00E4               	movwf	main@i
  1492                           
  1493                           ;main.c: 160:    pre_val=aft_val;
  1494  06F0  086B               	movf	_aft_val+3,w
  1495  06F1  00EF               	movwf	_pre_val+3
  1496  06F2  086A               	movf	_aft_val+2,w
  1497  06F3  00EE               	movwf	_pre_val+2
  1498  06F4  0869               	movf	_aft_val+1,w
  1499  06F5  00ED               	movwf	_pre_val+1
  1500  06F6  0868               	movf	_aft_val,w
  1501  06F7  00EC               	movwf	_pre_val
  1502                           
  1503                           ;main.c: 163:    difference1 = pre_val - i;
  1504  06F8  0867               	movf	main@i+3,w
  1505  06F9  00AB               	movwf	___flsub@a+3
  1506  06FA  0866               	movf	main@i+2,w
  1507  06FB  00AA               	movwf	___flsub@a+2
  1508  06FC  0865               	movf	main@i+1,w
  1509  06FD  00A9               	movwf	___flsub@a+1
  1510  06FE  0864               	movf	main@i,w
  1511  06FF  00A8               	movwf	___flsub@a
  1512  0700  086F               	movf	_pre_val+3,w
  1513  0701  00AF               	movwf	___flsub@b+3
  1514  0702  086E               	movf	_pre_val+2,w
  1515  0703  00AE               	movwf	___flsub@b+2
  1516  0704  086D               	movf	_pre_val+1,w
  1517  0705  00AD               	movwf	___flsub@b+1
  1518  0706  086C               	movf	_pre_val,w
  1519  0707  00AC               	movwf	___flsub@b
  1520  0708  120A  158A  21FD  120A  118A  	fcall	___flsub
  1521  070D  1283               	bcf	3,5	;RP0=0, select bank0
  1522  070E  1303               	bcf	3,6	;RP1=0, select bank0
  1523  070F  082B               	movf	?___flsub+3,w
  1524  0710  00D7               	movwf	main@difference1+3
  1525  0711  082A               	movf	?___flsub+2,w
  1526  0712  00D6               	movwf	main@difference1+2
  1527  0713  0829               	movf	?___flsub+1,w
  1528  0714  00D5               	movwf	main@difference1+1
  1529  0715  0828               	movf	?___flsub,w
  1530  0716  00D4               	movwf	main@difference1
  1531                           
  1532                           ;main.c: 164:    difference2 = i - pre_val;
  1533  0717  086F               	movf	_pre_val+3,w
  1534  0718  00AB               	movwf	___flsub@a+3
  1535  0719  086E               	movf	_pre_val+2,w
  1536  071A  00AA               	movwf	___flsub@a+2
  1537  071B  086D               	movf	_pre_val+1,w
  1538  071C  00A9               	movwf	___flsub@a+1
  1539  071D  086C               	movf	_pre_val,w
  1540  071E  00A8               	movwf	___flsub@a
  1541  071F  0867               	movf	main@i+3,w
  1542  0720  00AF               	movwf	___flsub@b+3
  1543  0721  0866               	movf	main@i+2,w
  1544  0722  00AE               	movwf	___flsub@b+2
  1545  0723  0865               	movf	main@i+1,w
  1546  0724  00AD               	movwf	___flsub@b+1
  1547  0725  0864               	movf	main@i,w
  1548  0726  00AC               	movwf	___flsub@b
  1549  0727  120A  158A  21FD  120A  118A  	fcall	___flsub
  1550  072C  1283               	bcf	3,5	;RP0=0, select bank0
  1551  072D  1303               	bcf	3,6	;RP1=0, select bank0
  1552  072E  082B               	movf	?___flsub+3,w
  1553  072F  00DB               	movwf	main@difference2+3
  1554  0730  082A               	movf	?___flsub+2,w
  1555  0731  00DA               	movwf	main@difference2+2
  1556  0732  0829               	movf	?___flsub+1,w
  1557  0733  00D9               	movwf	main@difference2+1
  1558  0734  0828               	movf	?___flsub,w
  1559  0735  00D8               	movwf	main@difference2
  1560                           
  1561                           ;main.c: 166:    if(difference1 > 20 || difference2 > 20){
  1562  0736  3041               	movlw	65
  1563  0737  00F3               	movwf	___flge@ff1+3
  1564  0738  30A0               	movlw	160
  1565  0739  00F2               	movwf	___flge@ff1+2
  1566  073A  3000               	movlw	0
  1567  073B  00F1               	movwf	___flge@ff1+1
  1568  073C  3000               	movlw	0
  1569  073D  00F0               	movwf	___flge@ff1
  1570  073E  0857               	movf	main@difference1+3,w
  1571  073F  00F7               	movwf	___flge@ff2+3
  1572  0740  0856               	movf	main@difference1+2,w
  1573  0741  00F6               	movwf	___flge@ff2+2
  1574  0742  0855               	movf	main@difference1+1,w
  1575  0743  00F5               	movwf	___flge@ff2+1
  1576  0744  0854               	movf	main@difference1,w
  1577  0745  00F4               	movwf	___flge@ff2
  1578  0746  120A  158A  248B  120A  118A  	fcall	___flge
  1579  074B  1C03               	btfss	3,0
  1580  074C  2F66               	goto	l2495
  1581  074D  3041               	movlw	65
  1582  074E  00F3               	movwf	___flge@ff1+3
  1583  074F  30A0               	movlw	160
  1584  0750  00F2               	movwf	___flge@ff1+2
  1585  0751  3000               	movlw	0
  1586  0752  00F1               	movwf	___flge@ff1+1
  1587  0753  3000               	movlw	0
  1588  0754  00F0               	movwf	___flge@ff1
  1589  0755  1283               	bcf	3,5	;RP0=0, select bank0
  1590  0756  1303               	bcf	3,6	;RP1=0, select bank0
  1591  0757  085B               	movf	main@difference2+3,w
  1592  0758  00F7               	movwf	___flge@ff2+3
  1593  0759  085A               	movf	main@difference2+2,w
  1594  075A  00F6               	movwf	___flge@ff2+2
  1595  075B  0859               	movf	main@difference2+1,w
  1596  075C  00F5               	movwf	___flge@ff2+1
  1597  075D  0858               	movf	main@difference2,w
  1598  075E  00F4               	movwf	___flge@ff2
  1599  075F  120A  158A  248B  120A  118A  	fcall	___flge
  1600  0764  1803               	btfsc	3,0
  1601  0765  2FAA               	goto	l2509
  1602  0766                     l2495:	
  1603                           
  1604                           ;main.c: 167:       aft_val = i;
  1605  0766  1283               	bcf	3,5	;RP0=0, select bank0
  1606  0767  1303               	bcf	3,6	;RP1=0, select bank0
  1607  0768  0867               	movf	main@i+3,w
  1608  0769  00EB               	movwf	_aft_val+3
  1609  076A  0866               	movf	main@i+2,w
  1610  076B  00EA               	movwf	_aft_val+2
  1611  076C  0865               	movf	main@i+1,w
  1612  076D  00E9               	movwf	_aft_val+1
  1613  076E  0864               	movf	main@i,w
  1614  076F  00E8               	movwf	_aft_val
  1615                           
  1616                           ;main.c: 168:       lcd_com (0x80);
  1617  0770  3080               	movlw	128
  1618  0771  120A  158A  233E  120A  118A  	fcall	_lcd_com
  1619                           
  1620                           ;main.c: 169:       lcd_puts ("TEMPERATURE IN CELCIUS");
  1621  0776  3001               	movlw	(low ((STR_10-__stringbase)| (0+32768)))& (0+255)
  1622  0777  120A  158A  221F  120A  118A  	fcall	_lcd_puts
  1623                           
  1624                           ;main.c: 170:       lcd_com (0xc0);
  1625  077C  30C0               	movlw	192
  1626  077D  120A  158A  233E  120A  118A  	fcall	_lcd_com
  1627                           
  1628                           ;main.c: 171:       lcd_bcd (5,aft_val);
  1629  0782  1283               	bcf	3,5	;RP0=0, select bank0
  1630  0783  1303               	bcf	3,6	;RP1=0, select bank0
  1631  0784  086B               	movf	_aft_val+3,w
  1632  0785  00BD               	movwf	___fltol@f1+3
  1633  0786  086A               	movf	_aft_val+2,w
  1634  0787  00BC               	movwf	___fltol@f1+2
  1635  0788  0869               	movf	_aft_val+1,w
  1636  0789  00BB               	movwf	___fltol@f1+1
  1637  078A  0868               	movf	_aft_val,w
  1638  078B  00BA               	movwf	___fltol@f1
  1639  078C  120A  158A  238F  120A  118A  	fcall	___fltol
  1640  0791  1283               	bcf	3,5	;RP0=0, select bank0
  1641  0792  1303               	bcf	3,6	;RP1=0, select bank0
  1642  0793  083B               	movf	?___fltol+1,w
  1643  0794  00C6               	movwf	lcd_bcd@ui_number+1
  1644  0795  083A               	movf	?___fltol,w
  1645  0796  00C5               	movwf	lcd_bcd@ui_number
  1646  0797  3005               	movlw	5
  1647  0798  120A  118A  2035  120A  118A  	fcall	_lcd_bcd
  1648                           
  1649                           ;main.c: 172:       lcd_data(223);
  1650  079D  30DF               	movlw	223
  1651  079E  120A  158A  21A7  120A  118A  	fcall	_lcd_data
  1652                           
  1653                           ;main.c: 173:       lcd_puts("C    ");
  1654  07A3  305B               	movlw	(low ((STR_6-__stringbase)| (0+32768)))& (0+255)
  1655  07A4  120A  158A  221F  120A  118A  	fcall	_lcd_puts
  1656                           
  1657                           ;main.c: 175:      }
  1658  07A9  2C7F               	goto	l2393
  1659  07AA                     l2509:	
  1660                           
  1661                           ;main.c: 177:       lcd_com (0x80);
  1662  07AA  3080               	movlw	128
  1663  07AB  120A  158A  233E  120A  118A  	fcall	_lcd_com
  1664                           
  1665                           ;main.c: 178:       lcd_puts ("TEMPERATURE IN CELCIUS");
  1666  07B0  3001               	movlw	(low ((STR_10-__stringbase)| (0+32768)))& (0+255)
  1667  07B1  120A  158A  221F  120A  118A  	fcall	_lcd_puts
  1668                           
  1669                           ;main.c: 179:       lcd_com (0xc0);
  1670  07B6  30C0               	movlw	192
  1671  07B7  120A  158A  233E  120A  118A  	fcall	_lcd_com
  1672                           
  1673                           ;main.c: 180:       lcd_bcd (5,pre_val);
  1674  07BC  1283               	bcf	3,5	;RP0=0, select bank0
  1675  07BD  1303               	bcf	3,6	;RP1=0, select bank0
  1676  07BE  086F               	movf	_pre_val+3,w
  1677  07BF  00BD               	movwf	___fltol@f1+3
  1678  07C0  086E               	movf	_pre_val+2,w
  1679  07C1  00BC               	movwf	___fltol@f1+2
  1680  07C2  086D               	movf	_pre_val+1,w
  1681  07C3  00BB               	movwf	___fltol@f1+1
  1682  07C4  086C               	movf	_pre_val,w
  1683  07C5  00BA               	movwf	___fltol@f1
  1684  07C6  120A  158A  238F  120A  118A  	fcall	___fltol
  1685  07CB  1283               	bcf	3,5	;RP0=0, select bank0
  1686  07CC  1303               	bcf	3,6	;RP1=0, select bank0
  1687  07CD  083B               	movf	?___fltol+1,w
  1688  07CE  00C6               	movwf	lcd_bcd@ui_number+1
  1689  07CF  083A               	movf	?___fltol,w
  1690  07D0  00C5               	movwf	lcd_bcd@ui_number
  1691  07D1  3005               	movlw	5
  1692  07D2  120A  118A  2035  120A  118A  	fcall	_lcd_bcd
  1693                           
  1694                           ;main.c: 181:       lcd_data(223);
  1695  07D7  30DF               	movlw	223
  1696  07D8  120A  158A  21A7  120A  118A  	fcall	_lcd_data
  1697                           
  1698                           ;main.c: 182:       lcd_puts("C    ");
  1699  07DD  305B               	movlw	(low ((STR_6-__stringbase)| (0+32768)))& (0+255)
  1700  07DE  120A  158A  221F  120A  118A  	fcall	_lcd_puts
  1701  07E3  2C7F               	goto	l2393
  1702  07E4                     __end_of_main:	
  1703                           
  1704                           	psect	text1
  1705  0AC7                     __ptext1:	
  1706 ;; *************** function _write_byte *****************
  1707 ;; Defined at:
  1708 ;;		line 87 in file "supporting c files/ds18b20.c"
  1709 ;; Parameters:    Size  Location     Type
  1710 ;;  val             1    wreg     unsigned char 
  1711 ;; Auto vars:     Size  Location     Type
  1712 ;;  val             1    1[COMMON] unsigned char 
  1713 ;;  i               1    2[COMMON] unsigned char 
  1714 ;; Return value:  Size  Location     Type
  1715 ;;                  1    wreg      void 
  1716 ;; Registers used:
  1717 ;;		wreg, status,2, status,0
  1718 ;; Tracked objects:
  1719 ;;		On entry : 0/0
  1720 ;;		On exit  : 0/0
  1721 ;;		Unchanged: 0/0
  1722 ;; Data sizes:     COMMON   BANK0   BANK1   BANK3   BANK2
  1723 ;;      Params:         0       0       0       0       0
  1724 ;;      Locals:         2       0       0       0       0
  1725 ;;      Temps:          1       0       0       0       0
  1726 ;;      Totals:         3       0       0       0       0
  1727 ;;Total ram usage:        3 bytes
  1728 ;; Hardware stack levels used:    1
  1729 ;; This function calls:
  1730 ;;		Nothing
  1731 ;; This function is called by:
  1732 ;;		_main
  1733 ;; This function uses a non-reentrant model
  1734 ;;
  1735                           
  1736                           
  1737                           ;psect for function _write_byte
  1738  0AC7                     _write_byte:	
  1739                           
  1740                           ;incstack = 0
  1741                           ; Regs used in _write_byte: [wreg+status,2+status,0]
  1742                           ;write_byte@val stored from wreg
  1743  0AC7  00F1               	movwf	write_byte@val
  1744                           
  1745                           ;supporting c files/ds18b20.c: 87: void write_byte(char val);supporting c files/ds18b20.
      +                          c: 88: {;supporting c files/ds18b20.c: 89:     char i;;supporting c files/ds18b20.c: 90:
      +                               TRISDbits.TRISD6 = 1;
  1746  0AC8  1683               	bsf	3,5	;RP0=1, select bank1
  1747  0AC9  1303               	bcf	3,6	;RP1=0, select bank1
  1748  0ACA  1708               	bsf	8,6	;volatile
  1749                           
  1750                           ;supporting c files/ds18b20.c: 92:   for(i = 0; i < 8; i++)
  1751  0ACB  01F2               	clrf	write_byte@i
  1752  0ACC                     l2051:	
  1753                           
  1754                           ;supporting c files/ds18b20.c: 93:   {;supporting c files/ds18b20.c: 94:    if((val & (1
      +                          <<i))!= 0)
  1755  0ACC  3001               	movlw	1
  1756  0ACD  00F0               	movwf	??_write_byte
  1757  0ACE  0A72               	incf	write_byte@i,w
  1758  0ACF  2AD2               	goto	u2354
  1759  0AD0                     u2355:	
  1760  0AD0  1003               	clrc
  1761  0AD1  0DF0               	rlf	??_write_byte,f
  1762  0AD2                     u2354:	
  1763  0AD2  3EFF               	addlw	-1
  1764  0AD3  1D03               	skipz
  1765  0AD4  2AD0               	goto	u2355
  1766  0AD5  0870               	movf	??_write_byte,w
  1767  0AD6  0571               	andwf	write_byte@val,w
  1768  0AD7  1903               	btfsc	3,2
  1769  0AD8  2AEB               	goto	l105
  1770                           
  1771                           ;supporting c files/ds18b20.c: 95:    {;supporting c files/ds18b20.c: 97:    TRISDbits.T
      +                          RISD6 = 0;
  1772  0AD9  1683               	bsf	3,5	;RP0=1, select bank1
  1773  0ADA  1303               	bcf	3,6	;RP1=0, select bank1
  1774  0ADB  1308               	bcf	8,6	;volatile
  1775                           
  1776                           ;supporting c files/ds18b20.c: 98:    PORTDbits.RD6 = 0;
  1777  0ADC  1283               	bcf	3,5	;RP0=0, select bank0
  1778  0ADD  1303               	bcf	3,6	;RP1=0, select bank0
  1779  0ADE  1308               	bcf	8,6	;volatile
  1780                           
  1781                           ;supporting c files/ds18b20.c: 99:    _delay((unsigned long)((1)*(20000000/4000000.0)));
  1782  0ADF  2AE0               	nop2	;2 cycle nop
  1783  0AE0  2AE1               	nop2	;2 cycle nop
  1784  0AE1  0000               	nop
  1785                           
  1786                           ;supporting c files/ds18b20.c: 100:    TRISDbits.TRISD6 = 1;
  1787  0AE2  1683               	bsf	3,5	;RP0=1, select bank1
  1788  0AE3  1303               	bcf	3,6	;RP1=0, select bank1
  1789  0AE4  1708               	bsf	8,6	;volatile
  1790                           
  1791                           ;supporting c files/ds18b20.c: 101:    _delay((unsigned long)((60)*(20000000/4000000.0))
      +                          );
  1792  0AE5  3063               	movlw	99
  1793  0AE6  00F0               	movwf	??_write_byte
  1794  0AE7                     u3307:	
  1795  0AE7  0BF0               	decfsz	??_write_byte,f
  1796  0AE8  2AE7               	goto	u3307
  1797  0AE9  2AEA               	nop2
  1798                           
  1799                           ;supporting c files/ds18b20.c: 102:    }
  1800  0AEA  2AF9               	goto	l2061
  1801  0AEB                     l105:	
  1802                           ;supporting c files/ds18b20.c: 103:    else
  1803                           
  1804                           
  1805                           ;supporting c files/ds18b20.c: 104:    {;supporting c files/ds18b20.c: 106:    TRISDbits
      +                          .TRISD6 = 0;
  1806  0AEB  1683               	bsf	3,5	;RP0=1, select bank1
  1807  0AEC  1303               	bcf	3,6	;RP1=0, select bank1
  1808  0AED  1308               	bcf	8,6	;volatile
  1809                           
  1810                           ;supporting c files/ds18b20.c: 107:    PORTDbits.RD6 = 0;
  1811  0AEE  1283               	bcf	3,5	;RP0=0, select bank0
  1812  0AEF  1303               	bcf	3,6	;RP1=0, select bank0
  1813  0AF0  1308               	bcf	8,6	;volatile
  1814                           
  1815                           ;supporting c files/ds18b20.c: 108:    _delay((unsigned long)((60)*(20000000/4000000.0))
      +                          );
  1816  0AF1  3063               	movlw	99
  1817  0AF2  00F0               	movwf	??_write_byte
  1818  0AF3                     u3317:	
  1819  0AF3  0BF0               	decfsz	??_write_byte,f
  1820  0AF4  2AF3               	goto	u3317
  1821  0AF5  2AF6               	nop2
  1822                           
  1823                           ;supporting c files/ds18b20.c: 109:    TRISDbits.TRISD6 = 1;
  1824  0AF6  1683               	bsf	3,5	;RP0=1, select bank1
  1825  0AF7  1303               	bcf	3,6	;RP1=0, select bank1
  1826  0AF8  1708               	bsf	8,6	;volatile
  1827  0AF9                     l2061:	
  1828                           
  1829                           ;supporting c files/ds18b20.c: 111:   }
  1830  0AF9  3001               	movlw	1
  1831  0AFA  00F0               	movwf	??_write_byte
  1832  0AFB  0870               	movf	??_write_byte,w
  1833  0AFC  07F2               	addwf	write_byte@i,f
  1834  0AFD  3008               	movlw	8
  1835  0AFE  0272               	subwf	write_byte@i,w
  1836  0AFF  1803               	btfsc	3,0
  1837  0B00  0008               	return
  1838  0B01  2ACC               	goto	l2051
  1839  0B02                     __end_of_write_byte:	
  1840                           
  1841                           	psect	text2
  1842  0003                     __ptext2:	
  1843 ;; *************** function _read_byte *****************
  1844 ;; Defined at:
  1845 ;;		line 57 in file "supporting c files/ds18b20.c"
  1846 ;; Parameters:    Size  Location     Type
  1847 ;;		None
  1848 ;; Auto vars:     Size  Location     Type
  1849 ;;  i               1    3[COMMON] unsigned char 
  1850 ;;  result          1    2[COMMON] unsigned char 
  1851 ;; Return value:  Size  Location     Type
  1852 ;;                  1    wreg      unsigned char 
  1853 ;; Registers used:
  1854 ;;		wreg, status,2, status,0
  1855 ;; Tracked objects:
  1856 ;;		On entry : 0/0
  1857 ;;		On exit  : 0/0
  1858 ;;		Unchanged: 0/0
  1859 ;; Data sizes:     COMMON   BANK0   BANK1   BANK3   BANK2
  1860 ;;      Params:         0       0       0       0       0
  1861 ;;      Locals:         2       0       0       0       0
  1862 ;;      Temps:          2       0       0       0       0
  1863 ;;      Totals:         4       0       0       0       0
  1864 ;;Total ram usage:        4 bytes
  1865 ;; Hardware stack levels used:    1
  1866 ;; This function calls:
  1867 ;;		Nothing
  1868 ;; This function is called by:
  1869 ;;		_main
  1870 ;; This function uses a non-reentrant model
  1871 ;;
  1872                           
  1873                           
  1874                           ;psect for function _read_byte
  1875  0003                     _read_byte:	
  1876                           
  1877                           ;supporting c files/ds18b20.c: 59:     char i,result = 0;
  1878                           
  1879                           ;incstack = 0
  1880                           ; Regs used in _read_byte: [wreg+status,2+status,0]
  1881  0003  01F2               	clrf	read_byte@result
  1882                           
  1883                           ;supporting c files/ds18b20.c: 60:  TRISDbits.TRISD6 = 1;
  1884  0004  1683               	bsf	3,5	;RP0=1, select bank1
  1885  0005  1303               	bcf	3,6	;RP1=0, select bank1
  1886  0006  1708               	bsf	8,6	;volatile
  1887                           
  1888                           ;supporting c files/ds18b20.c: 61:   for(i = 0; i < 8; i++)
  1889  0007  01F3               	clrf	read_byte@i
  1890  0008                     l93:	
  1891                           
  1892                           ;supporting c files/ds18b20.c: 62:   {;supporting c files/ds18b20.c: 63:   TRISDbits.TRI
      +                          SD6 = 0;
  1893  0008  1683               	bsf	3,5	;RP0=1, select bank1
  1894  0009  1303               	bcf	3,6	;RP1=0, select bank1
  1895  000A  1308               	bcf	8,6	;volatile
  1896                           
  1897                           ;supporting c files/ds18b20.c: 64:   PORTDbits.RD6 = 0;
  1898  000B  1283               	bcf	3,5	;RP0=0, select bank0
  1899  000C  1303               	bcf	3,6	;RP1=0, select bank0
  1900  000D  1308               	bcf	8,6	;volatile
  1901                           
  1902                           ;supporting c files/ds18b20.c: 65:   _delay((unsigned long)((2)*(20000000/4000000.0)));
  1903  000E  3003               	movlw	3
  1904  000F  00F0               	movwf	??_read_byte
  1905  0010                     u3327:	
  1906  0010  0BF0               	decfsz	??_read_byte,f
  1907  0011  2810               	goto	u3327
  1908                           
  1909                           ;supporting c files/ds18b20.c: 66:   TRISDbits.TRISD6 = 1;
  1910  0012  1683               	bsf	3,5	;RP0=1, select bank1
  1911  0013  1303               	bcf	3,6	;RP1=0, select bank1
  1912  0014  1708               	bsf	8,6	;volatile
  1913                           
  1914                           ;supporting c files/ds18b20.c: 67:   if(PORTDbits.RD6 != 0)
  1915  0015  1283               	bcf	3,5	;RP0=0, select bank0
  1916  0016  1303               	bcf	3,6	;RP1=0, select bank0
  1917  0017  1F08               	btfss	8,6	;volatile
  1918  0018  2826               	goto	l2081
  1919                           
  1920                           ;supporting c files/ds18b20.c: 68:   result |= 1<<i;
  1921  0019  3001               	movlw	1
  1922  001A  00F0               	movwf	??_read_byte
  1923  001B  0A73               	incf	read_byte@i,w
  1924  001C  281F               	goto	u2394
  1925  001D                     u2395:	
  1926  001D  1003               	clrc
  1927  001E  0DF0               	rlf	??_read_byte,f
  1928  001F                     u2394:	
  1929  001F  3EFF               	addlw	-1
  1930  0020  1D03               	skipz
  1931  0021  281D               	goto	u2395
  1932  0022  0870               	movf	??_read_byte,w
  1933  0023  00F1               	movwf	??_read_byte+1
  1934  0024  0871               	movf	??_read_byte+1,w
  1935  0025  04F2               	iorwf	read_byte@result,f
  1936  0026                     l2081:	
  1937                           
  1938                           ;supporting c files/ds18b20.c: 69:   _delay((unsigned long)((60)*(20000000/4000000.0)));
  1939  0026  3063               	movlw	99
  1940  0027  00F0               	movwf	??_read_byte
  1941  0028                     u3337:	
  1942  0028  0BF0               	decfsz	??_read_byte,f
  1943  0029  2828               	goto	u3337
  1944  002A  282B               	nop2
  1945                           
  1946                           ;supporting c files/ds18b20.c: 70:   }
  1947  002B  3001               	movlw	1
  1948  002C  00F0               	movwf	??_read_byte
  1949  002D  0870               	movf	??_read_byte,w
  1950  002E  07F3               	addwf	read_byte@i,f
  1951  002F  3008               	movlw	8
  1952  0030  0273               	subwf	read_byte@i,w
  1953  0031  1C03               	skipc
  1954  0032  2808               	goto	l93
  1955                           
  1956                           ;supporting c files/ds18b20.c: 71:  return result;
  1957  0033  0872               	movf	read_byte@result,w
  1958  0034  0008               	return
  1959  0035                     __end_of_read_byte:	
  1960                           
  1961                           	psect	text3
  1962  0A64                     __ptext3:	
  1963 ;; *************** function _ow_reset *****************
  1964 ;; Defined at:
  1965 ;;		line 23 in file "supporting c files/ds18b20.c"
  1966 ;; Parameters:    Size  Location     Type
  1967 ;;		None
  1968 ;; Auto vars:     Size  Location     Type
  1969 ;;		None
  1970 ;; Return value:  Size  Location     Type
  1971 ;;                  1    wreg      unsigned char 
  1972 ;; Registers used:
  1973 ;;		wreg
  1974 ;; Tracked objects:
  1975 ;;		On entry : 0/0
  1976 ;;		On exit  : 0/0
  1977 ;;		Unchanged: 0/0
  1978 ;; Data sizes:     COMMON   BANK0   BANK1   BANK3   BANK2
  1979 ;;      Params:         0       0       0       0       0
  1980 ;;      Locals:         0       0       0       0       0
  1981 ;;      Temps:          2       0       0       0       0
  1982 ;;      Totals:         2       0       0       0       0
  1983 ;;Total ram usage:        2 bytes
  1984 ;; Hardware stack levels used:    1
  1985 ;; This function calls:
  1986 ;;		Nothing
  1987 ;; This function is called by:
  1988 ;;		_main
  1989 ;; This function uses a non-reentrant model
  1990 ;;
  1991                           
  1992                           
  1993                           ;psect for function _ow_reset
  1994  0A64                     _ow_reset:	
  1995                           
  1996                           ;supporting c files/ds18b20.c: 25:     TRISDbits.TRISD6 = 0;
  1997                           
  1998                           ;incstack = 0
  1999                           ; Regs used in _ow_reset: [wreg]
  2000  0A64  1683               	bsf	3,5	;RP0=1, select bank1
  2001  0A65  1303               	bcf	3,6	;RP1=0, select bank1
  2002  0A66  1308               	bcf	8,6	;volatile
  2003                           
  2004                           ;supporting c files/ds18b20.c: 26:  PORTDbits.RD6 = 0;
  2005  0A67  1283               	bcf	3,5	;RP0=0, select bank0
  2006  0A68  1303               	bcf	3,6	;RP1=0, select bank0
  2007  0A69  1308               	bcf	8,6	;volatile
  2008                           
  2009                           ;supporting c files/ds18b20.c: 27:  _delay((unsigned long)((480)*(20000000/4000000.0)));
  2010  0A6A  3004               	movlw	4
  2011  0A6B  00F1               	movwf	??_ow_reset+1
  2012  0A6C  301C               	movlw	28
  2013  0A6D  00F0               	movwf	??_ow_reset
  2014  0A6E                     u3347:	
  2015  0A6E  0BF0               	decfsz	??_ow_reset,f
  2016  0A6F  2A6E               	goto	u3347
  2017  0A70  0BF1               	decfsz	??_ow_reset+1,f
  2018  0A71  2A6E               	goto	u3347
  2019  0A72  0000               	nop
  2020                           
  2021                           ;supporting c files/ds18b20.c: 28:  TRISDbits.TRISD6 = 1;
  2022  0A73  1683               	bsf	3,5	;RP0=1, select bank1
  2023  0A74  1303               	bcf	3,6	;RP1=0, select bank1
  2024  0A75  1708               	bsf	8,6	;volatile
  2025                           
  2026                           ;supporting c files/ds18b20.c: 29:  _delay((unsigned long)((60)*(20000000/4000000.0)));
  2027  0A76  3063               	movlw	99
  2028  0A77  00F0               	movwf	??_ow_reset
  2029  0A78                     u3357:	
  2030  0A78  0BF0               	decfsz	??_ow_reset,f
  2031  0A79  2A78               	goto	u3357
  2032  0A7A  2A7B               	nop2
  2033                           
  2034                           ;supporting c files/ds18b20.c: 31:   if (PORTDbits.RD6 == 0)
  2035  0A7B  1283               	bcf	3,5	;RP0=0, select bank0
  2036  0A7C  1303               	bcf	3,6	;RP1=0, select bank0
  2037  0A7D  1B08               	btfsc	8,6	;volatile
  2038  0A7E  2A8A               	goto	l2039
  2039                           
  2040                           ;supporting c files/ds18b20.c: 32:   {;supporting c files/ds18b20.c: 33:   _delay((unsig
      +                          ned long)((480)*(20000000/4000000.0)));
  2041  0A7F  3004               	movlw	4
  2042  0A80  00F1               	movwf	??_ow_reset+1
  2043  0A81  301C               	movlw	28
  2044  0A82  00F0               	movwf	??_ow_reset
  2045  0A83                     u3367:	
  2046  0A83  0BF0               	decfsz	??_ow_reset,f
  2047  0A84  2A83               	goto	u3367
  2048  0A85  0BF1               	decfsz	??_ow_reset+1,f
  2049  0A86  2A83               	goto	u3367
  2050  0A87  0000               	nop
  2051                           
  2052                           ;supporting c files/ds18b20.c: 34:   return 0;
  2053  0A88  3000               	movlw	0
  2054  0A89  0008               	return
  2055  0A8A                     l2039:	
  2056                           
  2057                           ;supporting c files/ds18b20.c: 37:   {;supporting c files/ds18b20.c: 38:   _delay((unsig
      +                          ned long)((480)*(20000000/4000000.0)));
  2058  0A8A  3004               	movlw	4
  2059  0A8B  00F1               	movwf	??_ow_reset+1
  2060  0A8C  301C               	movlw	28
  2061  0A8D  00F0               	movwf	??_ow_reset
  2062  0A8E                     u3377:	
  2063  0A8E  0BF0               	decfsz	??_ow_reset,f
  2064  0A8F  2A8E               	goto	u3377
  2065  0A90  0BF1               	decfsz	??_ow_reset+1,f
  2066  0A91  2A8E               	goto	u3377
  2067  0A92  0000               	nop
  2068                           
  2069                           ;supporting c files/ds18b20.c: 39:   return 1;
  2070  0A93  3001               	movlw	1
  2071  0A94  0008               	return
  2072  0A95                     __end_of_ow_reset:	
  2073                           
  2074                           	psect	text4
  2075  0A1F                     __ptext4:	
  2076 ;; *************** function _lcd_puts *****************
  2077 ;; Defined at:
  2078 ;;		line 95 in file "supporting c files/lcd.c"
  2079 ;; Parameters:    Size  Location     Type
  2080 ;;  str             1    wreg     PTR unsigned char 
  2081 ;;		 -> STR_13(6), STR_12(23), STR_11(6), STR_10(23), 
  2082 ;;		 -> STR_9(6), STR_8(2), STR_7(15), STR_6(6), 
  2083 ;;		 -> STR_5(2), STR_4(15), STR_3(17), STR_2(17), 
  2084 ;;		 -> STR_1(18), 
  2085 ;; Auto vars:     Size  Location     Type
  2086 ;;  str             1   11[COMMON] PTR unsigned char 
  2087 ;;		 -> STR_13(6), STR_12(23), STR_11(6), STR_10(23), 
  2088 ;;		 -> STR_9(6), STR_8(2), STR_7(15), STR_6(6), 
  2089 ;;		 -> STR_5(2), STR_4(15), STR_3(17), STR_2(17), 
  2090 ;;		 -> STR_1(18), 
  2091 ;;  i               2    9[COMMON] unsigned int 
  2092 ;; Return value:  Size  Location     Type
  2093 ;;                  1    wreg      void 
  2094 ;; Registers used:
  2095 ;;		wreg, fsr0l, fsr0h, status,2, status,0, pclath, cstack
  2096 ;; Tracked objects:
  2097 ;;		On entry : 0/0
  2098 ;;		On exit  : 0/0
  2099 ;;		Unchanged: 0/0
  2100 ;; Data sizes:     COMMON   BANK0   BANK1   BANK3   BANK2
  2101 ;;      Params:         0       0       0       0       0
  2102 ;;      Locals:         3       0       0       0       0
  2103 ;;      Temps:          0       0       0       0       0
  2104 ;;      Totals:         3       0       0       0       0
  2105 ;;Total ram usage:        3 bytes
  2106 ;; Hardware stack levels used:    1
  2107 ;; Hardware stack levels required when called:    3
  2108 ;; This function calls:
  2109 ;;		_lcd_data
  2110 ;; This function is called by:
  2111 ;;		_main
  2112 ;; This function uses a non-reentrant model
  2113 ;;
  2114                           
  2115                           
  2116                           ;psect for function _lcd_puts
  2117  0A1F                     _lcd_puts:	
  2118                           
  2119                           ;incstack = 0
  2120                           ; Regs used in _lcd_puts: [wreg-fsr0h+status,2+status,0+pclath+cstack]
  2121                           ;lcd_puts@str stored from wreg
  2122  0A1F  00FB               	movwf	lcd_puts@str
  2123                           
  2124                           ;supporting c files/lcd.c: 95: void lcd_puts(char *str);supporting c files/lcd.c: 96: {;
      +                          supporting c files/lcd.c: 97:   unsigned int i=0;
  2125  0A20  01F9               	clrf	lcd_puts@i
  2126  0A21  01FA               	clrf	lcd_puts@i+1
  2127  0A22                     l2023:	
  2128                           ;supporting c files/lcd.c: 98:  for(;str[i]!=0;i++)
  2129                           
  2130  0A22  0879               	movf	lcd_puts@i,w
  2131  0A23  077B               	addwf	lcd_puts@str,w
  2132  0A24  0084               	movwf	4
  2133  0A25  120A  158A  2000  120A  158A  	fcall	stringdir
  2134  0A2A  3A00               	xorlw	0
  2135  0A2B  1903               	btfsc	3,2
  2136  0A2C  0008               	return
  2137                           
  2138                           ;supporting c files/lcd.c: 99:   lcd_data(str[i]);
  2139  0A2D  0879               	movf	lcd_puts@i,w
  2140  0A2E  077B               	addwf	lcd_puts@str,w
  2141  0A2F  0084               	movwf	4
  2142  0A30  120A  158A  2000  120A  158A  	fcall	stringdir
  2143  0A35  120A  158A  21A7  120A  158A  	fcall	_lcd_data
  2144  0A3A  3001               	movlw	1
  2145  0A3B  07F9               	addwf	lcd_puts@i,f
  2146  0A3C  1803               	skipnc
  2147  0A3D  0AFA               	incf	lcd_puts@i+1,f
  2148  0A3E  3000               	movlw	0
  2149  0A3F  07FA               	addwf	lcd_puts@i+1,f
  2150  0A40  2A22               	goto	l2023
  2151  0A41                     __end_of_lcd_puts:	
  2152                           
  2153                           	psect	text5
  2154  0BFC                     __ptext5:	
  2155 ;; *************** function _lcd_init *****************
  2156 ;; Defined at:
  2157 ;;		line 72 in file "supporting c files/lcd.c"
  2158 ;; Parameters:    Size  Location     Type
  2159 ;;		None
  2160 ;; Auto vars:     Size  Location     Type
  2161 ;;		None
  2162 ;; Return value:  Size  Location     Type
  2163 ;;                  1    wreg      void 
  2164 ;; Registers used:
  2165 ;;		wreg, status,2, status,0, pclath, cstack
  2166 ;; Tracked objects:
  2167 ;;		On entry : 0/0
  2168 ;;		On exit  : 0/0
  2169 ;;		Unchanged: 0/0
  2170 ;; Data sizes:     COMMON   BANK0   BANK1   BANK3   BANK2
  2171 ;;      Params:         0       0       0       0       0
  2172 ;;      Locals:         0       0       0       0       0
  2173 ;;      Temps:          0       0       0       0       0
  2174 ;;      Totals:         0       0       0       0       0
  2175 ;;Total ram usage:        0 bytes
  2176 ;; Hardware stack levels used:    1
  2177 ;; Hardware stack levels required when called:    2
  2178 ;; This function calls:
  2179 ;;		_delay
  2180 ;;		_lcd_com
  2181 ;;		_lcd_init_write
  2182 ;; This function is called by:
  2183 ;;		_main
  2184 ;; This function uses a non-reentrant model
  2185 ;;
  2186                           
  2187                           
  2188                           ;psect for function _lcd_init
  2189  0BFC                     _lcd_init:	
  2190                           
  2191                           ;supporting c files/lcd.c: 74:  delay(300);
  2192                           
  2193                           ;incstack = 0
  2194                           ; Regs used in _lcd_init: [wreg+status,2+status,0+pclath+cstack]
  2195  0BFC  302C               	movlw	44
  2196  0BFD  00F0               	movwf	delay@j
  2197  0BFE  3001               	movlw	1
  2198  0BFF  00F1               	movwf	delay@j+1
  2199  0C00  120A  158A  21B6  120A  158A  	fcall	_delay
  2200                           
  2201                           ;supporting c files/lcd.c: 75:  lcd_init_write(0x30);
  2202  0C05  3030               	movlw	48
  2203  0C06  120A  158A  21C9  120A  158A  	fcall	_lcd_init_write
  2204                           
  2205                           ;supporting c files/lcd.c: 76:  delay(300);
  2206  0C0B  302C               	movlw	44
  2207  0C0C  00F0               	movwf	delay@j
  2208  0C0D  3001               	movlw	1
  2209  0C0E  00F1               	movwf	delay@j+1
  2210  0C0F  120A  158A  21B6  120A  158A  	fcall	_delay
  2211                           
  2212                           ;supporting c files/lcd.c: 77:  lcd_init_write(0x30);
  2213  0C14  3030               	movlw	48
  2214  0C15  120A  158A  21C9  120A  158A  	fcall	_lcd_init_write
  2215                           
  2216                           ;supporting c files/lcd.c: 78:  delay(300);
  2217  0C1A  302C               	movlw	44
  2218  0C1B  00F0               	movwf	delay@j
  2219  0C1C  3001               	movlw	1
  2220  0C1D  00F1               	movwf	delay@j+1
  2221  0C1E  120A  158A  21B6  120A  158A  	fcall	_delay
  2222                           
  2223                           ;supporting c files/lcd.c: 79:  lcd_init_write(0x30);
  2224  0C23  3030               	movlw	48
  2225  0C24  120A  158A  21C9  120A  158A  	fcall	_lcd_init_write
  2226                           
  2227                           ;supporting c files/lcd.c: 80:  delay(300);
  2228  0C29  302C               	movlw	44
  2229  0C2A  00F0               	movwf	delay@j
  2230  0C2B  3001               	movlw	1
  2231  0C2C  00F1               	movwf	delay@j+1
  2232  0C2D  120A  158A  21B6  120A  158A  	fcall	_delay
  2233                           
  2234                           ;supporting c files/lcd.c: 81:  lcd_init_write(0x20);
  2235  0C32  3020               	movlw	32
  2236  0C33  120A  158A  21C9  120A  158A  	fcall	_lcd_init_write
  2237                           
  2238                           ;supporting c files/lcd.c: 82:  delay(300);
  2239  0C38  302C               	movlw	44
  2240  0C39  00F0               	movwf	delay@j
  2241  0C3A  3001               	movlw	1
  2242  0C3B  00F1               	movwf	delay@j+1
  2243  0C3C  120A  158A  21B6  120A  158A  	fcall	_delay
  2244                           
  2245                           ;supporting c files/lcd.c: 83:  lcd_com(0xC);
  2246  0C41  300C               	movlw	12
  2247  0C42  120A  158A  233E  120A  158A  	fcall	_lcd_com
  2248                           
  2249                           ;supporting c files/lcd.c: 85:  delay(300);
  2250  0C47  302C               	movlw	44
  2251  0C48  00F0               	movwf	delay@j
  2252  0C49  3001               	movlw	1
  2253  0C4A  00F1               	movwf	delay@j+1
  2254  0C4B  120A  158A  21B6  120A  158A  	fcall	_delay
  2255                           
  2256                           ;supporting c files/lcd.c: 86:  lcd_com(4);
  2257  0C50  3004               	movlw	4
  2258  0C51  120A  158A  233E  120A  158A  	fcall	_lcd_com
  2259                           
  2260                           ;supporting c files/lcd.c: 87:  delay(300);
  2261  0C56  302C               	movlw	44
  2262  0C57  00F0               	movwf	delay@j
  2263  0C58  3001               	movlw	1
  2264  0C59  00F1               	movwf	delay@j+1
  2265  0C5A  120A  158A  21B6  120A  158A  	fcall	_delay
  2266                           
  2267                           ;supporting c files/lcd.c: 88:  lcd_com(0x85);
  2268  0C5F  3085               	movlw	133
  2269  0C60  120A  158A  233E  120A  158A  	fcall	_lcd_com
  2270                           
  2271                           ;supporting c files/lcd.c: 89:  delay(300);
  2272  0C65  302C               	movlw	44
  2273  0C66  00F0               	movwf	delay@j
  2274  0C67  3001               	movlw	1
  2275  0C68  00F1               	movwf	delay@j+1
  2276  0C69  120A  158A  21B6  120A  158A  	fcall	_delay
  2277                           
  2278                           ;supporting c files/lcd.c: 90:  lcd_com(6);
  2279  0C6E  3006               	movlw	6
  2280  0C6F  120A  158A  233E  120A  158A  	fcall	_lcd_com
  2281                           
  2282                           ;supporting c files/lcd.c: 91:  delay(300);
  2283  0C74  302C               	movlw	44
  2284  0C75  00F0               	movwf	delay@j
  2285  0C76  3001               	movlw	1
  2286  0C77  00F1               	movwf	delay@j+1
  2287  0C78  120A  158A  21B6  120A  158A  	fcall	_delay
  2288                           
  2289                           ;supporting c files/lcd.c: 92:  lcd_com(1);
  2290  0C7D  3001               	movlw	1
  2291  0C7E  120A  158A  233E  120A  158A  	fcall	_lcd_com
  2292                           
  2293                           ;supporting c files/lcd.c: 93:  delay(300);
  2294  0C83  302C               	movlw	44
  2295  0C84  00F0               	movwf	delay@j
  2296  0C85  3001               	movlw	1
  2297  0C86  00F1               	movwf	delay@j+1
  2298  0C87  120A  158A  21B6   	fcall	_delay
  2299  0C8A  0008               	return
  2300  0C8B                     __end_of_lcd_init:	
  2301                           
  2302                           	psect	text6
  2303  09C9                     __ptext6:	
  2304 ;; *************** function _lcd_init_write *****************
  2305 ;; Defined at:
  2306 ;;		line 28 in file "supporting c files/lcd.c"
  2307 ;; Parameters:    Size  Location     Type
  2308 ;;  a               1    wreg     unsigned char 
  2309 ;; Auto vars:     Size  Location     Type
  2310 ;;  a               1    4[COMMON] unsigned char 
  2311 ;; Return value:  Size  Location     Type
  2312 ;;                  1    wreg      void 
  2313 ;; Registers used:
  2314 ;;		wreg, status,2, status,0, pclath, cstack
  2315 ;; Tracked objects:
  2316 ;;		On entry : 0/0
  2317 ;;		On exit  : 0/0
  2318 ;;		Unchanged: 0/0
  2319 ;; Data sizes:     COMMON   BANK0   BANK1   BANK3   BANK2
  2320 ;;      Params:         0       0       0       0       0
  2321 ;;      Locals:         1       0       0       0       0
  2322 ;;      Temps:          0       0       0       0       0
  2323 ;;      Totals:         1       0       0       0       0
  2324 ;;Total ram usage:        1 bytes
  2325 ;; Hardware stack levels used:    1
  2326 ;; Hardware stack levels required when called:    1
  2327 ;; This function calls:
  2328 ;;		_delay
  2329 ;; This function is called by:
  2330 ;;		_lcd_init
  2331 ;; This function uses a non-reentrant model
  2332 ;;
  2333                           
  2334                           
  2335                           ;psect for function _lcd_init_write
  2336  09C9                     _lcd_init_write:	
  2337                           
  2338                           ;incstack = 0
  2339                           ; Regs used in _lcd_init_write: [wreg+status,2+status,0+pclath+cstack]
  2340                           ;lcd_init_write@a stored from wreg
  2341  09C9  00F4               	movwf	lcd_init_write@a
  2342                           
  2343                           ;supporting c files/lcd.c: 28: void lcd_init_write(unsigned char a);supporting c files/l
      +                          cd.c: 29: {;supporting c files/lcd.c: 30:  PORTBbits.RB0=0;
  2344  09CA  1283               	bcf	3,5	;RP0=0, select bank0
  2345  09CB  1303               	bcf	3,6	;RP1=0, select bank0
  2346  09CC  1006               	bcf	6,0	;volatile
  2347                           
  2348                           ;supporting c files/lcd.c: 31:  PORTBbits.RB1=0;
  2349  09CD  1086               	bcf	6,1	;volatile
  2350                           
  2351                           ;supporting c files/lcd.c: 32:  PORTB=a;
  2352  09CE  0874               	movf	lcd_init_write@a,w
  2353  09CF  0086               	movwf	6	;volatile
  2354                           
  2355                           ;supporting c files/lcd.c: 33:  PORTBbits.RB2=1;
  2356  09D0  1506               	bsf	6,2	;volatile
  2357                           
  2358                           ;supporting c files/lcd.c: 34:  delay(300);
  2359  09D1  302C               	movlw	44
  2360  09D2  00F0               	movwf	delay@j
  2361  09D3  3001               	movlw	1
  2362  09D4  00F1               	movwf	delay@j+1
  2363  09D5  120A  158A  21B6   	fcall	_delay
  2364                           
  2365                           ;supporting c files/lcd.c: 35:  PORTBbits.RB2=0;
  2366  09D8  1283               	bcf	3,5	;RP0=0, select bank0
  2367  09D9  1303               	bcf	3,6	;RP1=0, select bank0
  2368  09DA  1106               	bcf	6,2	;volatile
  2369  09DB  0008               	return
  2370  09DC                     __end_of_lcd_init_write:	
  2371                           
  2372                           	psect	text7
  2373  0035                     __ptext7:	
  2374 ;; *************** function _lcd_bcd *****************
  2375 ;; Defined at:
  2376 ;;		line 125 in file "supporting c files/lcd.c"
  2377 ;; Parameters:    Size  Location     Type
  2378 ;;  uc_digit        1    wreg     unsigned char 
  2379 ;;  ui_number       2   37[BANK0 ] unsigned int 
  2380 ;; Auto vars:     Size  Location     Type
  2381 ;;  uc_digit        1    0[COMMON] unsigned char 
  2382 ;;  ui_decimal     10   39[BANK0 ] unsigned int [5]
  2383 ;; Return value:  Size  Location     Type
  2384 ;;                  1    wreg      void 
  2385 ;; Registers used:
  2386 ;;		wreg, fsr0l, fsr0h, status,2, status,0, btemp+1, pclath, cstack
  2387 ;; Tracked objects:
  2388 ;;		On entry : 0/0
  2389 ;;		On exit  : 0/0
  2390 ;;		Unchanged: 0/0
  2391 ;; Data sizes:     COMMON   BANK0   BANK1   BANK3   BANK2
  2392 ;;      Params:         0       2       0       0       0
  2393 ;;      Locals:         0      10       0       0       0
  2394 ;;      Temps:          0       0       0       0       0
  2395 ;;      Totals:         0      12       0       0       0
  2396 ;;Total ram usage:       12 bytes
  2397 ;; Hardware stack levels used:    1
  2398 ;; Hardware stack levels required when called:    3
  2399 ;; This function calls:
  2400 ;;		___lwdiv
  2401 ;;		___lwmod
  2402 ;;		_lcd_data
  2403 ;; This function is called by:
  2404 ;;		_main
  2405 ;; This function uses a non-reentrant model
  2406 ;;
  2407                           
  2408                           
  2409                           ;psect for function _lcd_bcd
  2410  0035                     _lcd_bcd:	
  2411                           
  2412                           ;supporting c files/lcd.c: 125: void lcd_bcd(unsigned char uc_digit, unsigned int ui_num
      +                          ber);supporting c files/lcd.c: 126: {;supporting c files/lcd.c: 130:  unsigned int ui_de
      +                          cimal[5] ={ 0 };
  2413                           
  2414                           ;incstack = 0
  2415                           ; Regs used in _lcd_bcd: [wreg-fsr0h+status,2+status,0+btemp+1+pclath+cstack]
  2416  0035  3047               	movlw	lcd_bcd@ui_decimal& (0+255)
  2417  0036  0084               	movwf	4
  2418  0037  300A               	movlw	10
  2419  0038  00FF               	movwf	127
  2420  0039                     u2410:	
  2421  0039  1383               	bcf	3,7	;select IRP bank0
  2422  003A  0180               	clrf	0
  2423  003B  0A84               	incf	4,f
  2424  003C  0BFF               	decfsz	127,f
  2425  003D  2839               	goto	u2410
  2426                           
  2427                           ;supporting c files/lcd.c: 132:   ui_decimal[4] = ui_number/10000;
  2428  003E  3010               	movlw	16
  2429  003F  00F0               	movwf	___lwdiv@divisor
  2430  0040  3027               	movlw	39
  2431  0041  00F1               	movwf	___lwdiv@divisor+1
  2432  0042  1283               	bcf	3,5	;RP0=0, select bank0
  2433  0043  1303               	bcf	3,6	;RP1=0, select bank0
  2434  0044  0846               	movf	lcd_bcd@ui_number+1,w
  2435  0045  00F3               	movwf	___lwdiv@dividend+1
  2436  0046  0845               	movf	lcd_bcd@ui_number,w
  2437  0047  00F2               	movwf	___lwdiv@dividend
  2438  0048  120A  158A  2302  120A  118A  	fcall	___lwdiv
  2439  004D  0871               	movf	?___lwdiv+1,w
  2440  004E  1283               	bcf	3,5	;RP0=0, select bank0
  2441  004F  1303               	bcf	3,6	;RP1=0, select bank0
  2442  0050  00D0               	movwf	lcd_bcd@ui_decimal+9
  2443  0051  0870               	movf	?___lwdiv,w
  2444  0052  00CF               	movwf	lcd_bcd@ui_decimal+8
  2445                           
  2446                           ;supporting c files/lcd.c: 133:   ui_decimal[3] = ui_number%10000;
  2447  0053  3010               	movlw	16
  2448  0054  00F0               	movwf	___lwmod@divisor
  2449  0055  3027               	movlw	39
  2450  0056  00F1               	movwf	___lwmod@divisor+1
  2451  0057  0846               	movf	lcd_bcd@ui_number+1,w
  2452  0058  00F3               	movwf	___lwmod@dividend+1
  2453  0059  0845               	movf	lcd_bcd@ui_number,w
  2454  005A  00F2               	movwf	___lwmod@dividend
  2455  005B  120A  158A  2295  120A  118A  	fcall	___lwmod
  2456  0060  0871               	movf	?___lwmod+1,w
  2457  0061  1283               	bcf	3,5	;RP0=0, select bank0
  2458  0062  1303               	bcf	3,6	;RP1=0, select bank0
  2459  0063  00CE               	movwf	lcd_bcd@ui_decimal+7
  2460  0064  0870               	movf	?___lwmod,w
  2461  0065  00CD               	movwf	lcd_bcd@ui_decimal+6
  2462                           
  2463                           ;supporting c files/lcd.c: 134:   ui_decimal[2] = ui_decimal[3]%1000;
  2464  0066  30E8               	movlw	232
  2465  0067  00F0               	movwf	___lwmod@divisor
  2466  0068  3003               	movlw	3
  2467  0069  00F1               	movwf	___lwmod@divisor+1
  2468  006A  084E               	movf	lcd_bcd@ui_decimal+7,w
  2469  006B  00F3               	movwf	___lwmod@dividend+1
  2470  006C  084D               	movf	lcd_bcd@ui_decimal+6,w
  2471  006D  00F2               	movwf	___lwmod@dividend
  2472  006E  120A  158A  2295  120A  118A  	fcall	___lwmod
  2473  0073  0871               	movf	?___lwmod+1,w
  2474  0074  1283               	bcf	3,5	;RP0=0, select bank0
  2475  0075  1303               	bcf	3,6	;RP1=0, select bank0
  2476  0076  00CC               	movwf	lcd_bcd@ui_decimal+5
  2477  0077  0870               	movf	?___lwmod,w
  2478  0078  00CB               	movwf	lcd_bcd@ui_decimal+4
  2479                           
  2480                           ;supporting c files/lcd.c: 135:   ui_decimal[3] = ui_decimal[3]/1000;
  2481  0079  30E8               	movlw	232
  2482  007A  00F0               	movwf	___lwdiv@divisor
  2483  007B  3003               	movlw	3
  2484  007C  00F1               	movwf	___lwdiv@divisor+1
  2485  007D  084E               	movf	lcd_bcd@ui_decimal+7,w
  2486  007E  00F3               	movwf	___lwdiv@dividend+1
  2487  007F  084D               	movf	lcd_bcd@ui_decimal+6,w
  2488  0080  00F2               	movwf	___lwdiv@dividend
  2489  0081  120A  158A  2302  120A  118A  	fcall	___lwdiv
  2490  0086  0871               	movf	?___lwdiv+1,w
  2491  0087  1283               	bcf	3,5	;RP0=0, select bank0
  2492  0088  1303               	bcf	3,6	;RP1=0, select bank0
  2493  0089  00CE               	movwf	lcd_bcd@ui_decimal+7
  2494  008A  0870               	movf	?___lwdiv,w
  2495  008B  00CD               	movwf	lcd_bcd@ui_decimal+6
  2496                           
  2497                           ;supporting c files/lcd.c: 136:   ui_decimal[1] = ui_decimal[2]%100;
  2498  008C  3064               	movlw	100
  2499  008D  00F0               	movwf	___lwmod@divisor
  2500  008E  3000               	movlw	0
  2501  008F  00F1               	movwf	___lwmod@divisor+1
  2502  0090  084C               	movf	lcd_bcd@ui_decimal+5,w
  2503  0091  00F3               	movwf	___lwmod@dividend+1
  2504  0092  084B               	movf	lcd_bcd@ui_decimal+4,w
  2505  0093  00F2               	movwf	___lwmod@dividend
  2506  0094  120A  158A  2295  120A  118A  	fcall	___lwmod
  2507  0099  0871               	movf	?___lwmod+1,w
  2508  009A  1283               	bcf	3,5	;RP0=0, select bank0
  2509  009B  1303               	bcf	3,6	;RP1=0, select bank0
  2510  009C  00CA               	movwf	lcd_bcd@ui_decimal+3
  2511  009D  0870               	movf	?___lwmod,w
  2512  009E  00C9               	movwf	lcd_bcd@ui_decimal+2
  2513                           
  2514                           ;supporting c files/lcd.c: 137:   ui_decimal[2] = ui_decimal[2]/100;
  2515  009F  3064               	movlw	100
  2516  00A0  00F0               	movwf	___lwdiv@divisor
  2517  00A1  3000               	movlw	0
  2518  00A2  00F1               	movwf	___lwdiv@divisor+1
  2519  00A3  084C               	movf	lcd_bcd@ui_decimal+5,w
  2520  00A4  00F3               	movwf	___lwdiv@dividend+1
  2521  00A5  084B               	movf	lcd_bcd@ui_decimal+4,w
  2522  00A6  00F2               	movwf	___lwdiv@dividend
  2523  00A7  120A  158A  2302  120A  118A  	fcall	___lwdiv
  2524  00AC  0871               	movf	?___lwdiv+1,w
  2525  00AD  1283               	bcf	3,5	;RP0=0, select bank0
  2526  00AE  1303               	bcf	3,6	;RP1=0, select bank0
  2527  00AF  00CC               	movwf	lcd_bcd@ui_decimal+5
  2528  00B0  0870               	movf	?___lwdiv,w
  2529  00B1  00CB               	movwf	lcd_bcd@ui_decimal+4
  2530                           
  2531                           ;supporting c files/lcd.c: 138:   ui_decimal[0] = ui_decimal[1]%10;
  2532  00B2  300A               	movlw	10
  2533  00B3  00F0               	movwf	___lwmod@divisor
  2534  00B4  3000               	movlw	0
  2535  00B5  00F1               	movwf	___lwmod@divisor+1
  2536  00B6  084A               	movf	lcd_bcd@ui_decimal+3,w
  2537  00B7  00F3               	movwf	___lwmod@dividend+1
  2538  00B8  0849               	movf	lcd_bcd@ui_decimal+2,w
  2539  00B9  00F2               	movwf	___lwmod@dividend
  2540  00BA  120A  158A  2295  120A  118A  	fcall	___lwmod
  2541  00BF  0871               	movf	?___lwmod+1,w
  2542  00C0  1283               	bcf	3,5	;RP0=0, select bank0
  2543  00C1  1303               	bcf	3,6	;RP1=0, select bank0
  2544  00C2  00C8               	movwf	lcd_bcd@ui_decimal+1
  2545  00C3  0870               	movf	?___lwmod,w
  2546  00C4  00C7               	movwf	lcd_bcd@ui_decimal
  2547                           
  2548                           ;supporting c files/lcd.c: 139:   ui_decimal[1] = ui_decimal[1]/10;
  2549  00C5  300A               	movlw	10
  2550  00C6  00F0               	movwf	___lwdiv@divisor
  2551  00C7  3000               	movlw	0
  2552  00C8  00F1               	movwf	___lwdiv@divisor+1
  2553  00C9  084A               	movf	lcd_bcd@ui_decimal+3,w
  2554  00CA  00F3               	movwf	___lwdiv@dividend+1
  2555  00CB  0849               	movf	lcd_bcd@ui_decimal+2,w
  2556  00CC  00F2               	movwf	___lwdiv@dividend
  2557  00CD  120A  158A  2302  120A  118A  	fcall	___lwdiv
  2558  00D2  0871               	movf	?___lwdiv+1,w
  2559  00D3  1283               	bcf	3,5	;RP0=0, select bank0
  2560  00D4  1303               	bcf	3,6	;RP1=0, select bank0
  2561  00D5  00CA               	movwf	lcd_bcd@ui_decimal+3
  2562  00D6  0870               	movf	?___lwdiv,w
  2563  00D7  00C9               	movwf	lcd_bcd@ui_decimal+2
  2564                           
  2565                           ;supporting c files/lcd.c: 142:    if (ui_decimal[4]==0){
  2566  00D8  084F               	movf	lcd_bcd@ui_decimal+8,w
  2567  00D9  0450               	iorwf	lcd_bcd@ui_decimal+9,w
  2568  00DA  1D03               	btfss	3,2
  2569  00DB  2925               	goto	l2115
  2570                           
  2571                           ;supporting c files/lcd.c: 143:     if (ui_decimal[3]==0){
  2572  00DC  084D               	movf	lcd_bcd@ui_decimal+6,w
  2573  00DD  044E               	iorwf	lcd_bcd@ui_decimal+7,w
  2574  00DE  1D03               	btfss	3,2
  2575  00DF  28FE               	goto	l2113
  2576                           
  2577                           ;supporting c files/lcd.c: 146:      lcd_data(ui_decimal[2] + 0x30);
  2578  00E0  084B               	movf	lcd_bcd@ui_decimal+4,w
  2579  00E1  3E30               	addlw	48
  2580  00E2  120A  158A  21A7  120A  118A  	fcall	_lcd_data
  2581                           
  2582                           ;supporting c files/lcd.c: 147:      lcd_data('.');
  2583  00E7  302E               	movlw	46
  2584  00E8  120A  158A  21A7  120A  118A  	fcall	_lcd_data
  2585                           
  2586                           ;supporting c files/lcd.c: 148:      lcd_data(ui_decimal[1] + 0x30);
  2587  00ED  1283               	bcf	3,5	;RP0=0, select bank0
  2588  00EE  1303               	bcf	3,6	;RP1=0, select bank0
  2589  00EF  0849               	movf	lcd_bcd@ui_decimal+2,w
  2590  00F0  3E30               	addlw	48
  2591  00F1  120A  158A  21A7  120A  118A  	fcall	_lcd_data
  2592                           
  2593                           ;supporting c files/lcd.c: 149:      lcd_data(ui_decimal[0] + 0x30);
  2594  00F6  1283               	bcf	3,5	;RP0=0, select bank0
  2595  00F7  1303               	bcf	3,6	;RP1=0, select bank0
  2596  00F8  0847               	movf	lcd_bcd@ui_decimal,w
  2597  00F9  3E30               	addlw	48
  2598  00FA  120A  158A  21A7   	fcall	_lcd_data
  2599                           
  2600                           ;supporting c files/lcd.c: 150:     }
  2601  00FD  0008               	return
  2602  00FE                     l2113:	
  2603                           
  2604                           ;supporting c files/lcd.c: 153:      lcd_data(ui_decimal[3] + 0x30);
  2605  00FE  084D               	movf	lcd_bcd@ui_decimal+6,w
  2606  00FF  3E30               	addlw	48
  2607  0100  120A  158A  21A7  120A  118A  	fcall	_lcd_data
  2608                           
  2609                           ;supporting c files/lcd.c: 154:      lcd_data(ui_decimal[2] + 0x30);
  2610  0105  1283               	bcf	3,5	;RP0=0, select bank0
  2611  0106  1303               	bcf	3,6	;RP1=0, select bank0
  2612  0107  084B               	movf	lcd_bcd@ui_decimal+4,w
  2613  0108  3E30               	addlw	48
  2614  0109  120A  158A  21A7  120A  118A  	fcall	_lcd_data
  2615                           
  2616                           ;supporting c files/lcd.c: 155:      lcd_data('.');
  2617  010E  302E               	movlw	46
  2618  010F  120A  158A  21A7  120A  118A  	fcall	_lcd_data
  2619                           
  2620                           ;supporting c files/lcd.c: 156:      lcd_data(ui_decimal[1] + 0x30);
  2621  0114  1283               	bcf	3,5	;RP0=0, select bank0
  2622  0115  1303               	bcf	3,6	;RP1=0, select bank0
  2623  0116  0849               	movf	lcd_bcd@ui_decimal+2,w
  2624  0117  3E30               	addlw	48
  2625  0118  120A  158A  21A7  120A  118A  	fcall	_lcd_data
  2626                           
  2627                           ;supporting c files/lcd.c: 157:      lcd_data(ui_decimal[0] + 0x30);
  2628  011D  1283               	bcf	3,5	;RP0=0, select bank0
  2629  011E  1303               	bcf	3,6	;RP1=0, select bank0
  2630  011F  0847               	movf	lcd_bcd@ui_decimal,w
  2631  0120  3E30               	addlw	48
  2632  0121  120A  158A  21A7   	fcall	_lcd_data
  2633  0124  0008               	return
  2634  0125                     l2115:	
  2635                           
  2636                           ;supporting c files/lcd.c: 161:     lcd_data(ui_decimal[4] + 0x30);
  2637  0125  084F               	movf	lcd_bcd@ui_decimal+8,w
  2638  0126  3E30               	addlw	48
  2639  0127  120A  158A  21A7  120A  118A  	fcall	_lcd_data
  2640                           
  2641                           ;supporting c files/lcd.c: 162:     lcd_data(ui_decimal[3] + 0x30);
  2642  012C  1283               	bcf	3,5	;RP0=0, select bank0
  2643  012D  1303               	bcf	3,6	;RP1=0, select bank0
  2644  012E  084D               	movf	lcd_bcd@ui_decimal+6,w
  2645  012F  3E30               	addlw	48
  2646  0130  120A  158A  21A7  120A  118A  	fcall	_lcd_data
  2647                           
  2648                           ;supporting c files/lcd.c: 163:     lcd_data(ui_decimal[2] + 0x30);
  2649  0135  1283               	bcf	3,5	;RP0=0, select bank0
  2650  0136  1303               	bcf	3,6	;RP1=0, select bank0
  2651  0137  084B               	movf	lcd_bcd@ui_decimal+4,w
  2652  0138  3E30               	addlw	48
  2653  0139  120A  158A  21A7  120A  118A  	fcall	_lcd_data
  2654                           
  2655                           ;supporting c files/lcd.c: 164:     lcd_data('.');
  2656  013E  302E               	movlw	46
  2657  013F  120A  158A  21A7  120A  118A  	fcall	_lcd_data
  2658                           
  2659                           ;supporting c files/lcd.c: 165:     lcd_data(ui_decimal[1] + 0x30);
  2660  0144  1283               	bcf	3,5	;RP0=0, select bank0
  2661  0145  1303               	bcf	3,6	;RP1=0, select bank0
  2662  0146  0849               	movf	lcd_bcd@ui_decimal+2,w
  2663  0147  3E30               	addlw	48
  2664  0148  120A  158A  21A7  120A  118A  	fcall	_lcd_data
  2665                           
  2666                           ;supporting c files/lcd.c: 166:     lcd_data(ui_decimal[0] + 0x30);
  2667  014D  1283               	bcf	3,5	;RP0=0, select bank0
  2668  014E  1303               	bcf	3,6	;RP1=0, select bank0
  2669  014F  0847               	movf	lcd_bcd@ui_decimal,w
  2670  0150  3E30               	addlw	48
  2671  0151  120A  158A  21A7   	fcall	_lcd_data
  2672  0154  0008               	return
  2673  0155                     __end_of_lcd_bcd:	
  2674                           
  2675                           	psect	text8
  2676  09A7                     __ptext8:	
  2677 ;; *************** function _lcd_data *****************
  2678 ;; Defined at:
  2679 ;;		line 66 in file "supporting c files/lcd.c"
  2680 ;; Parameters:    Size  Location     Type
  2681 ;;  a               1    wreg     unsigned char 
  2682 ;; Auto vars:     Size  Location     Type
  2683 ;;  a               1    8[COMMON] unsigned char 
  2684 ;; Return value:  Size  Location     Type
  2685 ;;                  1    wreg      void 
  2686 ;; Registers used:
  2687 ;;		wreg, status,2, status,0, pclath, cstack
  2688 ;; Tracked objects:
  2689 ;;		On entry : 0/0
  2690 ;;		On exit  : 0/0
  2691 ;;		Unchanged: 0/0
  2692 ;; Data sizes:     COMMON   BANK0   BANK1   BANK3   BANK2
  2693 ;;      Params:         0       0       0       0       0
  2694 ;;      Locals:         1       0       0       0       0
  2695 ;;      Temps:          0       0       0       0       0
  2696 ;;      Totals:         1       0       0       0       0
  2697 ;;Total ram usage:        1 bytes
  2698 ;; Hardware stack levels used:    1
  2699 ;; Hardware stack levels required when called:    2
  2700 ;; This function calls:
  2701 ;;		_lcd_com
  2702 ;; This function is called by:
  2703 ;;		_main
  2704 ;;		_lcd_puts
  2705 ;;		_lcd_bcd
  2706 ;;		_hex2lcd
  2707 ;;		_LCD_ScrollMessage
  2708 ;; This function uses a non-reentrant model
  2709 ;;
  2710                           
  2711                           
  2712                           ;psect for function _lcd_data
  2713  09A7                     _lcd_data:	
  2714                           
  2715                           ;incstack = 0
  2716                           ; Regs used in _lcd_data: [wreg+status,2+status,0+pclath+cstack]
  2717                           ;lcd_data@a stored from wreg
  2718  09A7  00F8               	movwf	lcd_data@a
  2719                           
  2720                           ;supporting c files/lcd.c: 66: void lcd_data(unsigned char a);supporting c files/lcd.c: 
      +                          67: {;supporting c files/lcd.c: 68:  status=1;
  2721  09A8  3001               	movlw	1
  2722  09A9  1683               	bsf	3,5	;RP0=1, select bank1
  2723  09AA  1303               	bcf	3,6	;RP1=0, select bank1
  2724  09AB  00AA               	movwf	_status^(0+128)
  2725  09AC  3000               	movlw	0
  2726  09AD  00AB               	movwf	(_status^(0+128)+1)
  2727                           
  2728                           ;supporting c files/lcd.c: 69:  PORTBbits.RB0=1;
  2729  09AE  1283               	bcf	3,5	;RP0=0, select bank0
  2730  09AF  1303               	bcf	3,6	;RP1=0, select bank0
  2731  09B0  1406               	bsf	6,0	;volatile
  2732                           
  2733                           ;supporting c files/lcd.c: 70:  lcd_com(a);
  2734  09B1  0878               	movf	lcd_data@a,w
  2735  09B2  120A  158A  233E   	fcall	_lcd_com
  2736  09B5  0008               	return
  2737  09B6                     __end_of_lcd_data:	
  2738                           
  2739                           	psect	text9
  2740  0B3E                     __ptext9:	
  2741 ;; *************** function _lcd_com *****************
  2742 ;; Defined at:
  2743 ;;		line 39 in file "supporting c files/lcd.c"
  2744 ;; Parameters:    Size  Location     Type
  2745 ;;  a               1    wreg     unsigned char 
  2746 ;; Auto vars:     Size  Location     Type
  2747 ;;  a               1    6[COMMON] unsigned char 
  2748 ;;  temp            1    7[COMMON] unsigned char 
  2749 ;; Return value:  Size  Location     Type
  2750 ;;                  1    wreg      void 
  2751 ;; Registers used:
  2752 ;;		wreg, status,2, status,0, pclath, cstack
  2753 ;; Tracked objects:
  2754 ;;		On entry : 0/0
  2755 ;;		On exit  : 0/0
  2756 ;;		Unchanged: 0/0
  2757 ;; Data sizes:     COMMON   BANK0   BANK1   BANK3   BANK2
  2758 ;;      Params:         0       0       0       0       0
  2759 ;;      Locals:         2       0       0       0       0
  2760 ;;      Temps:          2       0       0       0       0
  2761 ;;      Totals:         4       0       0       0       0
  2762 ;;Total ram usage:        4 bytes
  2763 ;; Hardware stack levels used:    1
  2764 ;; Hardware stack levels required when called:    1
  2765 ;; This function calls:
  2766 ;;		_delay
  2767 ;; This function is called by:
  2768 ;;		_main
  2769 ;;		_lcd_data
  2770 ;;		_lcd_init
  2771 ;;		_LCD_ScrollMessage
  2772 ;; This function uses a non-reentrant model
  2773 ;;
  2774                           
  2775                           
  2776                           ;psect for function _lcd_com
  2777  0B3E                     _lcd_com:	
  2778                           
  2779                           ;incstack = 0
  2780                           ; Regs used in _lcd_com: [wreg+status,2+status,0+pclath+cstack]
  2781                           ;lcd_com@a stored from wreg
  2782  0B3E  00F6               	movwf	lcd_com@a
  2783                           
  2784                           ;supporting c files/lcd.c: 39: void lcd_com(unsigned char a);supporting c files/lcd.c: 4
      +                          0: {;supporting c files/lcd.c: 41:  unsigned char temp;;supporting c files/lcd.c: 42:  i
      +                          f(status)
  2785  0B3F  1683               	bsf	3,5	;RP0=1, select bank1
  2786  0B40  1303               	bcf	3,6	;RP1=0, select bank1
  2787  0B41  082A               	movf	_status^(0+128),w
  2788  0B42  042B               	iorwf	(_status+1)^(0+128),w
  2789  0B43  1903               	btfsc	3,2
  2790  0B44  2B48               	goto	l125
  2791                           
  2792                           ;supporting c files/lcd.c: 43:  {;supporting c files/lcd.c: 44:   status=0;
  2793  0B45  01AA               	clrf	_status^(0+128)
  2794  0B46  01AB               	clrf	(_status+1)^(0+128)
  2795                           
  2796                           ;supporting c files/lcd.c: 45:   goto next;
  2797  0B47  2B4B               	goto	l126
  2798  0B48                     l125:	
  2799                           ;supporting c files/lcd.c: 46:  }
  2800                           
  2801                           
  2802                           ;supporting c files/lcd.c: 47:  PORTBbits.RB0=0;
  2803  0B48  1283               	bcf	3,5	;RP0=0, select bank0
  2804  0B49  1303               	bcf	3,6	;RP1=0, select bank0
  2805  0B4A  1006               	bcf	6,0	;volatile
  2806  0B4B                     l126:	
  2807                           ;supporting c files/lcd.c: 48:  next:
  2808                           
  2809                           
  2810                           ;supporting c files/lcd.c: 49:  PORTBbits.RB1=0;
  2811  0B4B  1283               	bcf	3,5	;RP0=0, select bank0
  2812  0B4C  1086               	bcf	6,1	;volatile
  2813                           
  2814                           ;supporting c files/lcd.c: 50:  temp=a;
  2815  0B4D  0876               	movf	lcd_com@a,w
  2816  0B4E  00F4               	movwf	??_lcd_com
  2817  0B4F  0874               	movf	??_lcd_com,w
  2818  0B50  00F7               	movwf	lcd_com@temp
  2819                           
  2820                           ;supporting c files/lcd.c: 51:  temp&=0xf0;
  2821  0B51  30F0               	movlw	240
  2822  0B52  00F4               	movwf	??_lcd_com
  2823  0B53  0874               	movf	??_lcd_com,w
  2824  0B54  05F7               	andwf	lcd_com@temp,f
  2825                           
  2826                           ;supporting c files/lcd.c: 52:  PORTB&=0x0f;
  2827  0B55  300F               	movlw	15
  2828  0B56  00F4               	movwf	??_lcd_com
  2829  0B57  0874               	movf	??_lcd_com,w
  2830  0B58  0586               	andwf	6,f	;volatile
  2831                           
  2832                           ;supporting c files/lcd.c: 53:  PORTB|=temp;
  2833  0B59  0877               	movf	lcd_com@temp,w	;volatile
  2834  0B5A  00F4               	movwf	??_lcd_com
  2835  0B5B  0874               	movf	??_lcd_com,w
  2836  0B5C  0486               	iorwf	6,f	;volatile
  2837                           
  2838                           ;supporting c files/lcd.c: 54:  PORTBbits.RB2=1;
  2839  0B5D  1506               	bsf	6,2	;volatile
  2840                           
  2841                           ;supporting c files/lcd.c: 55:  delay(300);
  2842  0B5E  302C               	movlw	44
  2843  0B5F  00F0               	movwf	delay@j
  2844  0B60  3001               	movlw	1
  2845  0B61  00F1               	movwf	delay@j+1
  2846  0B62  120A  158A  21B6  120A  158A  	fcall	_delay
  2847                           
  2848                           ;supporting c files/lcd.c: 56:  PORTBbits.RB2=0;
  2849  0B67  1283               	bcf	3,5	;RP0=0, select bank0
  2850  0B68  1303               	bcf	3,6	;RP1=0, select bank0
  2851  0B69  1106               	bcf	6,2	;volatile
  2852                           
  2853                           ;supporting c files/lcd.c: 57:  temp=a<<4;
  2854  0B6A  0876               	movf	lcd_com@a,w
  2855  0B6B  00F4               	movwf	??_lcd_com
  2856  0B6C  3003               	movlw	3
  2857  0B6D                     u1705:	
  2858  0B6D  1003               	clrc
  2859  0B6E  0DF4               	rlf	??_lcd_com,f
  2860  0B6F  3EFF               	addlw	-1
  2861  0B70  1D03               	skipz
  2862  0B71  2B6D               	goto	u1705
  2863  0B72  1003               	clrc
  2864  0B73  0D74               	rlf	??_lcd_com,w
  2865  0B74  00F5               	movwf	??_lcd_com+1
  2866  0B75  0875               	movf	??_lcd_com+1,w
  2867  0B76  00F7               	movwf	lcd_com@temp
  2868                           
  2869                           ;supporting c files/lcd.c: 58:  temp&=0xf0;
  2870  0B77  30F0               	movlw	240
  2871  0B78  00F4               	movwf	??_lcd_com
  2872  0B79  0874               	movf	??_lcd_com,w
  2873  0B7A  05F7               	andwf	lcd_com@temp,f
  2874                           
  2875                           ;supporting c files/lcd.c: 59:  PORTB&=0x0f;
  2876  0B7B  300F               	movlw	15
  2877  0B7C  00F4               	movwf	??_lcd_com
  2878  0B7D  0874               	movf	??_lcd_com,w
  2879  0B7E  0586               	andwf	6,f	;volatile
  2880                           
  2881                           ;supporting c files/lcd.c: 60:  PORTB|=temp;
  2882  0B7F  0877               	movf	lcd_com@temp,w	;volatile
  2883  0B80  00F4               	movwf	??_lcd_com
  2884  0B81  0874               	movf	??_lcd_com,w
  2885  0B82  0486               	iorwf	6,f	;volatile
  2886                           
  2887                           ;supporting c files/lcd.c: 61:  PORTBbits.RB2=1;
  2888  0B83  1506               	bsf	6,2	;volatile
  2889                           
  2890                           ;supporting c files/lcd.c: 62:  delay(300);
  2891  0B84  302C               	movlw	44
  2892  0B85  00F0               	movwf	delay@j
  2893  0B86  3001               	movlw	1
  2894  0B87  00F1               	movwf	delay@j+1
  2895  0B88  120A  158A  21B6   	fcall	_delay
  2896                           
  2897                           ;supporting c files/lcd.c: 63:  PORTBbits.RB2=0;
  2898  0B8B  1283               	bcf	3,5	;RP0=0, select bank0
  2899  0B8C  1303               	bcf	3,6	;RP1=0, select bank0
  2900  0B8D  1106               	bcf	6,2	;volatile
  2901  0B8E  0008               	return
  2902  0B8F                     __end_of_lcd_com:	
  2903                           
  2904                           	psect	text10
  2905  09B6                     __ptext10:	
  2906 ;; *************** function _delay *****************
  2907 ;; Defined at:
  2908 ;;		line 22 in file "supporting c files/lcd.c"
  2909 ;; Parameters:    Size  Location     Type
  2910 ;;  j               2    0[COMMON] unsigned int 
  2911 ;; Auto vars:     Size  Location     Type
  2912 ;;  i               2    2[COMMON] unsigned int 
  2913 ;; Return value:  Size  Location     Type
  2914 ;;                  1    wreg      void 
  2915 ;; Registers used:
  2916 ;;		wreg, status,2
  2917 ;; Tracked objects:
  2918 ;;		On entry : 0/0
  2919 ;;		On exit  : 0/0
  2920 ;;		Unchanged: 0/0
  2921 ;; Data sizes:     COMMON   BANK0   BANK1   BANK3   BANK2
  2922 ;;      Params:         2       0       0       0       0
  2923 ;;      Locals:         2       0       0       0       0
  2924 ;;      Temps:          0       0       0       0       0
  2925 ;;      Totals:         4       0       0       0       0
  2926 ;;Total ram usage:        4 bytes
  2927 ;; Hardware stack levels used:    1
  2928 ;; This function calls:
  2929 ;;		Nothing
  2930 ;; This function is called by:
  2931 ;;		_lcd_init_write
  2932 ;;		_lcd_com
  2933 ;;		_lcd_init
  2934 ;;		_LCD_ScrollMessage
  2935 ;; This function uses a non-reentrant model
  2936 ;;
  2937                           
  2938                           
  2939                           ;psect for function _delay
  2940  09B6                     _delay:	
  2941                           
  2942                           ;supporting c files/lcd.c: 22: void delay(unsigned int j);supporting c files/lcd.c: 23: 
      +                          {;supporting c files/lcd.c: 24:  unsigned int i=0;
  2943                           
  2944                           ;incstack = 0
  2945                           ; Regs used in _delay: [wreg+status,2]
  2946  09B6  01F2               	clrf	delay@i
  2947  09B7  01F3               	clrf	delay@i+1
  2948                           
  2949                           ;supporting c files/lcd.c: 25:  for(i=0;i<j;i++);
  2950  09B8  01F2               	clrf	delay@i
  2951  09B9  01F3               	clrf	delay@i+1
  2952  09BA                     l116:	
  2953  09BA  0871               	movf	delay@j+1,w
  2954  09BB  0273               	subwf	delay@i+1,w
  2955  09BC  1D03               	skipz
  2956  09BD  29C0               	goto	u1685
  2957  09BE  0870               	movf	delay@j,w
  2958  09BF  0272               	subwf	delay@i,w
  2959  09C0                     u1685:	
  2960  09C0  1803               	btfsc	3,0
  2961  09C1  0008               	return
  2962  09C2  3001               	movlw	1
  2963  09C3  07F2               	addwf	delay@i,f
  2964  09C4  1803               	skipnc
  2965  09C5  0AF3               	incf	delay@i+1,f
  2966  09C6  3000               	movlw	0
  2967  09C7  07F3               	addwf	delay@i+1,f
  2968  09C8  29BA               	goto	l116
  2969  09C9                     __end_of_delay:	
  2970                           
  2971                           	psect	text11
  2972  0A95                     __ptext11:	
  2973 ;; *************** function ___lwmod *****************
  2974 ;; Defined at:
  2975 ;;		line 5 in file "C:\Program Files (x86)\Microchip\xc8\v2.05\pic\sources\c90\common\lwmod.c"
  2976 ;; Parameters:    Size  Location     Type
  2977 ;;  divisor         2    0[COMMON] unsigned int 
  2978 ;;  dividend        2    2[COMMON] unsigned int 
  2979 ;; Auto vars:     Size  Location     Type
  2980 ;;  counter         1    5[COMMON] unsigned char 
  2981 ;; Return value:  Size  Location     Type
  2982 ;;                  2    0[COMMON] unsigned int 
  2983 ;; Registers used:
  2984 ;;		wreg, status,2, status,0
  2985 ;; Tracked objects:
  2986 ;;		On entry : 0/0
  2987 ;;		On exit  : 0/0
  2988 ;;		Unchanged: 0/0
  2989 ;; Data sizes:     COMMON   BANK0   BANK1   BANK3   BANK2
  2990 ;;      Params:         4       0       0       0       0
  2991 ;;      Locals:         1       0       0       0       0
  2992 ;;      Temps:          1       0       0       0       0
  2993 ;;      Totals:         6       0       0       0       0
  2994 ;;Total ram usage:        6 bytes
  2995 ;; Hardware stack levels used:    1
  2996 ;; This function calls:
  2997 ;;		Nothing
  2998 ;; This function is called by:
  2999 ;;		_lcd_bcd
  3000 ;; This function uses a non-reentrant model
  3001 ;;
  3002                           
  3003                           
  3004                           ;psect for function ___lwmod
  3005  0A95                     ___lwmod:	
  3006                           
  3007                           ;incstack = 0
  3008                           ; Regs used in ___lwmod: [wreg+status,2+status,0]
  3009  0A95  0870               	movf	___lwmod@divisor,w
  3010  0A96  0471               	iorwf	___lwmod@divisor+1,w
  3011  0A97  1903               	btfsc	3,2
  3012  0A98  2AC2               	goto	l1803
  3013  0A99  01F5               	clrf	___lwmod@counter
  3014  0A9A  0AF5               	incf	___lwmod@counter,f
  3015  0A9B                     l1793:	
  3016  0A9B  1BF1               	btfsc	___lwmod@divisor+1,7
  3017  0A9C  2AA9               	goto	l1795
  3018  0A9D  3001               	movlw	1
  3019  0A9E                     u1795:	
  3020  0A9E  1003               	clrc
  3021  0A9F  0DF0               	rlf	___lwmod@divisor,f
  3022  0AA0  0DF1               	rlf	___lwmod@divisor+1,f
  3023  0AA1  3EFF               	addlw	-1
  3024  0AA2  1D03               	skipz
  3025  0AA3  2A9E               	goto	u1795
  3026  0AA4  3001               	movlw	1
  3027  0AA5  00F4               	movwf	??___lwmod
  3028  0AA6  0874               	movf	??___lwmod,w
  3029  0AA7  07F5               	addwf	___lwmod@counter,f
  3030  0AA8  2A9B               	goto	l1793
  3031  0AA9                     l1795:	
  3032  0AA9  0871               	movf	___lwmod@divisor+1,w
  3033  0AAA  0273               	subwf	___lwmod@dividend+1,w
  3034  0AAB  1D03               	skipz
  3035  0AAC  2AAF               	goto	u1815
  3036  0AAD  0870               	movf	___lwmod@divisor,w
  3037  0AAE  0272               	subwf	___lwmod@dividend,w
  3038  0AAF                     u1815:	
  3039  0AAF  1C03               	skipc
  3040  0AB0  2AB7               	goto	l1799
  3041  0AB1  0870               	movf	___lwmod@divisor,w
  3042  0AB2  02F2               	subwf	___lwmod@dividend,f
  3043  0AB3  0871               	movf	___lwmod@divisor+1,w
  3044  0AB4  1C03               	skipc
  3045  0AB5  03F3               	decf	___lwmod@dividend+1,f
  3046  0AB6  02F3               	subwf	___lwmod@dividend+1,f
  3047  0AB7                     l1799:	
  3048  0AB7  3001               	movlw	1
  3049  0AB8                     u1825:	
  3050  0AB8  1003               	clrc
  3051  0AB9  0CF1               	rrf	___lwmod@divisor+1,f
  3052  0ABA  0CF0               	rrf	___lwmod@divisor,f
  3053  0ABB  3EFF               	addlw	-1
  3054  0ABC  1D03               	skipz
  3055  0ABD  2AB8               	goto	u1825
  3056  0ABE  3001               	movlw	1
  3057  0ABF  02F5               	subwf	___lwmod@counter,f
  3058  0AC0  1D03               	btfss	3,2
  3059  0AC1  2AA9               	goto	l1795
  3060  0AC2                     l1803:	
  3061  0AC2  0873               	movf	___lwmod@dividend+1,w
  3062  0AC3  00F1               	movwf	?___lwmod+1
  3063  0AC4  0872               	movf	___lwmod@dividend,w
  3064  0AC5  00F0               	movwf	?___lwmod
  3065  0AC6  0008               	return
  3066  0AC7                     __end_of___lwmod:	
  3067                           
  3068                           	psect	text12
  3069  0B02                     __ptext12:	
  3070 ;; *************** function ___lwdiv *****************
  3071 ;; Defined at:
  3072 ;;		line 5 in file "C:\Program Files (x86)\Microchip\xc8\v2.05\pic\sources\c90\common\lwdiv.c"
  3073 ;; Parameters:    Size  Location     Type
  3074 ;;  divisor         2    0[COMMON] unsigned int 
  3075 ;;  dividend        2    2[COMMON] unsigned int 
  3076 ;; Auto vars:     Size  Location     Type
  3077 ;;  quotient        2    5[COMMON] unsigned int 
  3078 ;;  counter         1    7[COMMON] unsigned char 
  3079 ;; Return value:  Size  Location     Type
  3080 ;;                  2    0[COMMON] unsigned int 
  3081 ;; Registers used:
  3082 ;;		wreg, status,2, status,0
  3083 ;; Tracked objects:
  3084 ;;		On entry : 0/0
  3085 ;;		On exit  : 0/0
  3086 ;;		Unchanged: 0/0
  3087 ;; Data sizes:     COMMON   BANK0   BANK1   BANK3   BANK2
  3088 ;;      Params:         4       0       0       0       0
  3089 ;;      Locals:         3       0       0       0       0
  3090 ;;      Temps:          1       0       0       0       0
  3091 ;;      Totals:         8       0       0       0       0
  3092 ;;Total ram usage:        8 bytes
  3093 ;; Hardware stack levels used:    1
  3094 ;; This function calls:
  3095 ;;		Nothing
  3096 ;; This function is called by:
  3097 ;;		_lcd_bcd
  3098 ;; This function uses a non-reentrant model
  3099 ;;
  3100                           
  3101                           
  3102                           ;psect for function ___lwdiv
  3103  0B02                     ___lwdiv:	
  3104                           
  3105                           ;incstack = 0
  3106                           ; Regs used in ___lwdiv: [wreg+status,2+status,0]
  3107  0B02  01F5               	clrf	___lwdiv@quotient
  3108  0B03  01F6               	clrf	___lwdiv@quotient+1
  3109  0B04  0870               	movf	___lwdiv@divisor,w
  3110  0B05  0471               	iorwf	___lwdiv@divisor+1,w
  3111  0B06  1903               	btfsc	3,2
  3112  0B07  2B39               	goto	l1781
  3113  0B08  01F7               	clrf	___lwdiv@counter
  3114  0B09  0AF7               	incf	___lwdiv@counter,f
  3115  0B0A                     l1769:	
  3116  0B0A  1BF1               	btfsc	___lwdiv@divisor+1,7
  3117  0B0B  2B18               	goto	l1771
  3118  0B0C  3001               	movlw	1
  3119  0B0D                     u1725:	
  3120  0B0D  1003               	clrc
  3121  0B0E  0DF0               	rlf	___lwdiv@divisor,f
  3122  0B0F  0DF1               	rlf	___lwdiv@divisor+1,f
  3123  0B10  3EFF               	addlw	-1
  3124  0B11  1D03               	skipz
  3125  0B12  2B0D               	goto	u1725
  3126  0B13  3001               	movlw	1
  3127  0B14  00F4               	movwf	??___lwdiv
  3128  0B15  0874               	movf	??___lwdiv,w
  3129  0B16  07F7               	addwf	___lwdiv@counter,f
  3130  0B17  2B0A               	goto	l1769
  3131  0B18                     l1771:	
  3132  0B18  3001               	movlw	1
  3133  0B19                     u1745:	
  3134  0B19  1003               	clrc
  3135  0B1A  0DF5               	rlf	___lwdiv@quotient,f
  3136  0B1B  0DF6               	rlf	___lwdiv@quotient+1,f
  3137  0B1C  3EFF               	addlw	-1
  3138  0B1D  1D03               	skipz
  3139  0B1E  2B19               	goto	u1745
  3140  0B1F  0871               	movf	___lwdiv@divisor+1,w
  3141  0B20  0273               	subwf	___lwdiv@dividend+1,w
  3142  0B21  1D03               	skipz
  3143  0B22  2B25               	goto	u1755
  3144  0B23  0870               	movf	___lwdiv@divisor,w
  3145  0B24  0272               	subwf	___lwdiv@dividend,w
  3146  0B25                     u1755:	
  3147  0B25  1C03               	skipc
  3148  0B26  2B2E               	goto	l1777
  3149  0B27  0870               	movf	___lwdiv@divisor,w
  3150  0B28  02F2               	subwf	___lwdiv@dividend,f
  3151  0B29  0871               	movf	___lwdiv@divisor+1,w
  3152  0B2A  1C03               	skipc
  3153  0B2B  03F3               	decf	___lwdiv@dividend+1,f
  3154  0B2C  02F3               	subwf	___lwdiv@dividend+1,f
  3155  0B2D  1475               	bsf	___lwdiv@quotient,0
  3156  0B2E                     l1777:	
  3157  0B2E  3001               	movlw	1
  3158  0B2F                     u1765:	
  3159  0B2F  1003               	clrc
  3160  0B30  0CF1               	rrf	___lwdiv@divisor+1,f
  3161  0B31  0CF0               	rrf	___lwdiv@divisor,f
  3162  0B32  3EFF               	addlw	-1
  3163  0B33  1D03               	skipz
  3164  0B34  2B2F               	goto	u1765
  3165  0B35  3001               	movlw	1
  3166  0B36  02F7               	subwf	___lwdiv@counter,f
  3167  0B37  1D03               	btfss	3,2
  3168  0B38  2B18               	goto	l1771
  3169  0B39                     l1781:	
  3170  0B39  0876               	movf	___lwdiv@quotient+1,w
  3171  0B3A  00F1               	movwf	?___lwdiv+1
  3172  0B3B  0875               	movf	___lwdiv@quotient,w
  3173  0B3C  00F0               	movwf	?___lwdiv
  3174  0B3D  0008               	return
  3175  0B3E                     __end_of___lwdiv:	
  3176                           
  3177                           	psect	text13
  3178  0D1E                     __ptext13:	
  3179 ;; *************** function ___xxtofl *****************
  3180 ;; Defined at:
  3181 ;;		line 10 in file "C:\Program Files (x86)\Microchip\xc8\v2.05\pic\sources\c90\common\xxtofl.c"
  3182 ;; Parameters:    Size  Location     Type
  3183 ;;  sign            1    wreg     unsigned char 
  3184 ;;  val             4    0[COMMON] long 
  3185 ;; Auto vars:     Size  Location     Type
  3186 ;;  sign            1    8[COMMON] unsigned char 
  3187 ;;  arg             4   10[COMMON] unsigned long 
  3188 ;;  exp             1    9[COMMON] unsigned char 
  3189 ;; Return value:  Size  Location     Type
  3190 ;;                  4    0[COMMON] unsigned char 
  3191 ;; Registers used:
  3192 ;;		wreg, status,2, status,0
  3193 ;; Tracked objects:
  3194 ;;		On entry : 0/0
  3195 ;;		On exit  : 0/0
  3196 ;;		Unchanged: 0/0
  3197 ;; Data sizes:     COMMON   BANK0   BANK1   BANK3   BANK2
  3198 ;;      Params:         4       0       0       0       0
  3199 ;;      Locals:         6       0       0       0       0
  3200 ;;      Temps:          4       0       0       0       0
  3201 ;;      Totals:        14       0       0       0       0
  3202 ;;Total ram usage:       14 bytes
  3203 ;; Hardware stack levels used:    1
  3204 ;; This function calls:
  3205 ;;		Nothing
  3206 ;; This function is called by:
  3207 ;;		_main
  3208 ;; This function uses a non-reentrant model
  3209 ;;
  3210                           
  3211                           
  3212                           ;psect for function ___xxtofl
  3213  0D1E                     ___xxtofl:	
  3214                           
  3215                           ;incstack = 0
  3216                           ; Regs used in ___xxtofl: [wreg+status,2+status,0]
  3217                           ;___xxtofl@sign stored from wreg
  3218  0D1E  00F8               	movwf	___xxtofl@sign
  3219  0D1F  0878               	movf	___xxtofl@sign,w
  3220  0D20  1D03               	btfss	3,2
  3221  0D21  1FF3               	btfss	___xxtofl@val+3,7
  3222  0D22  2D33               	goto	l2339
  3223  0D23  0970               	comf	___xxtofl@val,w
  3224  0D24  00FA               	movwf	___xxtofl@arg
  3225  0D25  0971               	comf	___xxtofl@val+1,w
  3226  0D26  00FB               	movwf	___xxtofl@arg+1
  3227  0D27  0972               	comf	___xxtofl@val+2,w
  3228  0D28  00FC               	movwf	___xxtofl@arg+2
  3229  0D29  0973               	comf	___xxtofl@val+3,w
  3230  0D2A  00FD               	movwf	___xxtofl@arg+3
  3231  0D2B  0AFA               	incf	___xxtofl@arg,f
  3232  0D2C  1903               	skipnz
  3233  0D2D  0AFB               	incf	___xxtofl@arg+1,f
  3234  0D2E  1903               	skipnz
  3235  0D2F  0AFC               	incf	___xxtofl@arg+2,f
  3236  0D30  1903               	skipnz
  3237  0D31  0AFD               	incf	___xxtofl@arg+3,f
  3238  0D32  2D3B               	goto	l684
  3239  0D33                     l2339:	
  3240  0D33  0873               	movf	___xxtofl@val+3,w
  3241  0D34  00FD               	movwf	___xxtofl@arg+3
  3242  0D35  0872               	movf	___xxtofl@val+2,w
  3243  0D36  00FC               	movwf	___xxtofl@arg+2
  3244  0D37  0871               	movf	___xxtofl@val+1,w
  3245  0D38  00FB               	movwf	___xxtofl@arg+1
  3246  0D39  0870               	movf	___xxtofl@val,w
  3247  0D3A  00FA               	movwf	___xxtofl@arg
  3248  0D3B                     l684:	
  3249  0D3B  0873               	movf	___xxtofl@val+3,w
  3250  0D3C  0472               	iorwf	___xxtofl@val+2,w
  3251  0D3D  0471               	iorwf	___xxtofl@val+1,w
  3252  0D3E  0470               	iorwf	___xxtofl@val,w
  3253  0D3F  1D03               	skipz
  3254  0D40  2D4A               	goto	l2345
  3255  0D41  3000               	movlw	0
  3256  0D42  00F3               	movwf	?___xxtofl+3
  3257  0D43  3000               	movlw	0
  3258  0D44  00F2               	movwf	?___xxtofl+2
  3259  0D45  3000               	movlw	0
  3260  0D46  00F1               	movwf	?___xxtofl+1
  3261  0D47  3000               	movlw	0
  3262  0D48  00F0               	movwf	?___xxtofl
  3263  0D49  0008               	return
  3264  0D4A                     l2345:	
  3265  0D4A  3096               	movlw	150
  3266  0D4B  00F4               	movwf	??___xxtofl
  3267  0D4C  0874               	movf	??___xxtofl,w
  3268  0D4D  00F9               	movwf	___xxtofl@exp
  3269  0D4E                     l2349:	
  3270  0D4E  30FE               	movlw	254
  3271  0D4F  057D               	andwf	___xxtofl@arg+3,w
  3272  0D50  1903               	btfsc	3,2
  3273  0D51  2D7B               	goto	l690
  3274  0D52  3001               	movlw	1
  3275  0D53  00F4               	movwf	??___xxtofl
  3276  0D54  0874               	movf	??___xxtofl,w
  3277  0D55  07F9               	addwf	___xxtofl@exp,f
  3278  0D56  3001               	movlw	1
  3279  0D57                     u3055:	
  3280  0D57  1003               	clrc
  3281  0D58  0CFD               	rrf	___xxtofl@arg+3,f
  3282  0D59  0CFC               	rrf	___xxtofl@arg+2,f
  3283  0D5A  0CFB               	rrf	___xxtofl@arg+1,f
  3284  0D5B  0CFA               	rrf	___xxtofl@arg,f
  3285  0D5C  3EFF               	addlw	-1
  3286  0D5D  1D03               	skipz
  3287  0D5E  2D57               	goto	u3055
  3288  0D5F  2D4E               	goto	l2349
  3289  0D60                     l2351:	
  3290  0D60  3001               	movlw	1
  3291  0D61  00F4               	movwf	??___xxtofl
  3292  0D62  0874               	movf	??___xxtofl,w
  3293  0D63  07F9               	addwf	___xxtofl@exp,f
  3294  0D64  3001               	movlw	1
  3295  0D65  07FA               	addwf	___xxtofl@arg,f
  3296  0D66  3000               	movlw	0
  3297  0D67  1803               	skipnc
  3298  0D68  3001               	movlw	1
  3299  0D69  07FB               	addwf	___xxtofl@arg+1,f
  3300  0D6A  3000               	movlw	0
  3301  0D6B  1803               	skipnc
  3302  0D6C  3001               	movlw	1
  3303  0D6D  07FC               	addwf	___xxtofl@arg+2,f
  3304  0D6E  3000               	movlw	0
  3305  0D6F  1803               	skipnc
  3306  0D70  3001               	movlw	1
  3307  0D71  07FD               	addwf	___xxtofl@arg+3,f
  3308  0D72  3001               	movlw	1
  3309  0D73                     u3075:	
  3310  0D73  1003               	clrc
  3311  0D74  0CFD               	rrf	___xxtofl@arg+3,f
  3312  0D75  0CFC               	rrf	___xxtofl@arg+2,f
  3313  0D76  0CFB               	rrf	___xxtofl@arg+1,f
  3314  0D77  0CFA               	rrf	___xxtofl@arg,f
  3315  0D78  3EFF               	addlw	-1
  3316  0D79  1D03               	skipz
  3317  0D7A  2D73               	goto	u3075
  3318  0D7B                     l690:	
  3319  0D7B  30FF               	movlw	255
  3320  0D7C  057D               	andwf	___xxtofl@arg+3,w
  3321  0D7D  1903               	btfsc	3,2
  3322  0D7E  2D8F               	goto	l2359
  3323  0D7F  2D60               	goto	l2351
  3324  0D80                     l2361:	
  3325  0D80  3002               	movlw	2
  3326  0D81  0279               	subwf	___xxtofl@exp,w
  3327  0D82  1C03               	btfss	3,0
  3328  0D83  2D91               	goto	l697
  3329  0D84  3001               	movlw	1
  3330  0D85  02F9               	subwf	___xxtofl@exp,f
  3331  0D86  3001               	movlw	1
  3332  0D87  00F4               	movwf	??___xxtofl
  3333  0D88                     u3095:	
  3334  0D88  1003               	clrc
  3335  0D89  0DFA               	rlf	___xxtofl@arg,f
  3336  0D8A  0DFB               	rlf	___xxtofl@arg+1,f
  3337  0D8B  0DFC               	rlf	___xxtofl@arg+2,f
  3338  0D8C  0DFD               	rlf	___xxtofl@arg+3,f
  3339  0D8D  0BF4               	decfsz	??___xxtofl,f
  3340  0D8E  2D88               	goto	u3095
  3341  0D8F                     l2359:	
  3342  0D8F  1FFC               	btfss	___xxtofl@arg+2,7
  3343  0D90  2D80               	goto	l2361
  3344  0D91                     l697:	
  3345  0D91  1879               	btfsc	___xxtofl@exp,0
  3346  0D92  2D9B               	goto	l698
  3347  0D93  30FF               	movlw	255
  3348  0D94  05FA               	andwf	___xxtofl@arg,f
  3349  0D95  30FF               	movlw	255
  3350  0D96  05FB               	andwf	___xxtofl@arg+1,f
  3351  0D97  307F               	movlw	127
  3352  0D98  05FC               	andwf	___xxtofl@arg+2,f
  3353  0D99  30FF               	movlw	255
  3354  0D9A  05FD               	andwf	___xxtofl@arg+3,f
  3355  0D9B                     l698:	
  3356  0D9B  1003               	clrc
  3357  0D9C  0CF9               	rrf	___xxtofl@exp,f
  3358  0D9D  0879               	movf	___xxtofl@exp,w
  3359  0D9E  00F4               	movwf	??___xxtofl
  3360  0D9F  01F5               	clrf	??___xxtofl+1
  3361  0DA0  01F6               	clrf	??___xxtofl+2
  3362  0DA1  01F7               	clrf	??___xxtofl+3
  3363  0DA2  3018               	movlw	24
  3364  0DA3                     u3135:	
  3365  0DA3  1003               	clrc
  3366  0DA4  0DF4               	rlf	??___xxtofl,f
  3367  0DA5  0DF5               	rlf	??___xxtofl+1,f
  3368  0DA6  0DF6               	rlf	??___xxtofl+2,f
  3369  0DA7  0DF7               	rlf	??___xxtofl+3,f
  3370  0DA8  3EFF               	addlw	-1
  3371  0DA9  1D03               	skipz
  3372  0DAA  2DA3               	goto	u3135
  3373  0DAB  0874               	movf	??___xxtofl,w
  3374  0DAC  04FA               	iorwf	___xxtofl@arg,f
  3375  0DAD  0875               	movf	??___xxtofl+1,w
  3376  0DAE  04FB               	iorwf	___xxtofl@arg+1,f
  3377  0DAF  0876               	movf	??___xxtofl+2,w
  3378  0DB0  04FC               	iorwf	___xxtofl@arg+2,f
  3379  0DB1  0877               	movf	??___xxtofl+3,w
  3380  0DB2  04FD               	iorwf	___xxtofl@arg+3,f
  3381  0DB3  0878               	movf	___xxtofl@sign,w
  3382  0DB4  1D03               	btfss	3,2
  3383  0DB5  1FF3               	btfss	___xxtofl@val+3,7
  3384  0DB6  2DB8               	goto	l2373
  3385  0DB7  17FD               	bsf	___xxtofl@arg+3,7
  3386  0DB8                     l2373:	
  3387  0DB8  087D               	movf	___xxtofl@arg+3,w
  3388  0DB9  00F3               	movwf	?___xxtofl+3
  3389  0DBA  087C               	movf	___xxtofl@arg+2,w
  3390  0DBB  00F2               	movwf	?___xxtofl+2
  3391  0DBC  087B               	movf	___xxtofl@arg+1,w
  3392  0DBD  00F1               	movwf	?___xxtofl+1
  3393  0DBE  087A               	movf	___xxtofl@arg,w
  3394  0DBF  00F0               	movwf	?___xxtofl
  3395  0DC0  0008               	return
  3396  0DC1                     __end_of___xxtofl:	
  3397                           
  3398                           	psect	text14
  3399  09DC                     __ptext14:	
  3400 ;; *************** function ___wmul *****************
  3401 ;; Defined at:
  3402 ;;		line 15 in file "C:\Program Files (x86)\Microchip\xc8\v2.05\pic\sources\c90\common\Umul16.c"
  3403 ;; Parameters:    Size  Location     Type
  3404 ;;  multiplier      2    0[COMMON] unsigned int 
  3405 ;;  multiplicand    2    2[COMMON] unsigned int 
  3406 ;; Auto vars:     Size  Location     Type
  3407 ;;  product         2    4[COMMON] unsigned int 
  3408 ;; Return value:  Size  Location     Type
  3409 ;;                  2    0[COMMON] unsigned int 
  3410 ;; Registers used:
  3411 ;;		wreg, status,2, status,0
  3412 ;; Tracked objects:
  3413 ;;		On entry : 0/0
  3414 ;;		On exit  : 0/0
  3415 ;;		Unchanged: 0/0
  3416 ;; Data sizes:     COMMON   BANK0   BANK1   BANK3   BANK2
  3417 ;;      Params:         4       0       0       0       0
  3418 ;;      Locals:         2       0       0       0       0
  3419 ;;      Temps:          0       0       0       0       0
  3420 ;;      Totals:         6       0       0       0       0
  3421 ;;Total ram usage:        6 bytes
  3422 ;; Hardware stack levels used:    1
  3423 ;; This function calls:
  3424 ;;		Nothing
  3425 ;; This function is called by:
  3426 ;;		_main
  3427 ;; This function uses a non-reentrant model
  3428 ;;
  3429                           
  3430                           
  3431                           ;psect for function ___wmul
  3432  09DC                     ___wmul:	
  3433                           
  3434                           ;incstack = 0
  3435                           ; Regs used in ___wmul: [wreg+status,2+status,0]
  3436  09DC  01F4               	clrf	___wmul@product
  3437  09DD  01F5               	clrf	___wmul@product+1
  3438  09DE                     l2119:	
  3439  09DE  1C70               	btfss	___wmul@multiplier,0
  3440  09DF  29E6               	goto	l257
  3441  09E0  0872               	movf	___wmul@multiplicand,w
  3442  09E1  07F4               	addwf	___wmul@product,f
  3443  09E2  1803               	skipnc
  3444  09E3  0AF5               	incf	___wmul@product+1,f
  3445  09E4  0873               	movf	___wmul@multiplicand+1,w
  3446  09E5  07F5               	addwf	___wmul@product+1,f
  3447  09E6                     l257:	
  3448  09E6  3001               	movlw	1
  3449  09E7                     u2455:	
  3450  09E7  1003               	clrc
  3451  09E8  0DF2               	rlf	___wmul@multiplicand,f
  3452  09E9  0DF3               	rlf	___wmul@multiplicand+1,f
  3453  09EA  3EFF               	addlw	-1
  3454  09EB  1D03               	skipz
  3455  09EC  29E7               	goto	u2455
  3456  09ED  3001               	movlw	1
  3457  09EE                     u2465:	
  3458  09EE  1003               	clrc
  3459  09EF  0CF1               	rrf	___wmul@multiplier+1,f
  3460  09F0  0CF0               	rrf	___wmul@multiplier,f
  3461  09F1  3EFF               	addlw	-1
  3462  09F2  1D03               	skipz
  3463  09F3  29EE               	goto	u2465
  3464  09F4  0870               	movf	___wmul@multiplier,w
  3465  09F5  0471               	iorwf	___wmul@multiplier+1,w
  3466  09F6  1D03               	btfss	3,2
  3467  09F7  29DE               	goto	l2119
  3468  09F8  0875               	movf	___wmul@product+1,w
  3469  09F9  00F1               	movwf	?___wmul+1
  3470  09FA  0874               	movf	___wmul@product,w
  3471  09FB  00F0               	movwf	?___wmul
  3472  09FC  0008               	return
  3473  09FD                     __end_of___wmul:	
  3474                           
  3475                           	psect	text15
  3476  0B8F                     __ptext15:	
  3477 ;; *************** function ___fltol *****************
  3478 ;; Defined at:
  3479 ;;		line 43 in file "C:\Program Files (x86)\Microchip\xc8\v2.05\pic\sources\c90\common\fltol.c"
  3480 ;; Parameters:    Size  Location     Type
  3481 ;;  f1              4   26[BANK0 ] unsigned int 
  3482 ;; Auto vars:     Size  Location     Type
  3483 ;;  exp1            1   36[BANK0 ] unsigned char 
  3484 ;;  sign1           1   35[BANK0 ] unsigned char 
  3485 ;; Return value:  Size  Location     Type
  3486 ;;                  4   26[BANK0 ] long 
  3487 ;; Registers used:
  3488 ;;		wreg, status,2, status,0
  3489 ;; Tracked objects:
  3490 ;;		On entry : 0/0
  3491 ;;		On exit  : 0/0
  3492 ;;		Unchanged: 0/0
  3493 ;; Data sizes:     COMMON   BANK0   BANK1   BANK3   BANK2
  3494 ;;      Params:         0       4       0       0       0
  3495 ;;      Locals:         0       2       0       0       0
  3496 ;;      Temps:          0       5       0       0       0
  3497 ;;      Totals:         0      11       0       0       0
  3498 ;;Total ram usage:       11 bytes
  3499 ;; Hardware stack levels used:    1
  3500 ;; This function calls:
  3501 ;;		Nothing
  3502 ;; This function is called by:
  3503 ;;		_main
  3504 ;; This function uses a non-reentrant model
  3505 ;;
  3506                           
  3507                           
  3508                           ;psect for function ___fltol
  3509  0B8F                     ___fltol:	
  3510                           
  3511                           ;incstack = 0
  3512                           ; Regs used in ___fltol: [wreg+status,2+status,0]
  3513  0B8F  1003               	clrc
  3514  0B90  1283               	bcf	3,5	;RP0=0, select bank0
  3515  0B91  1303               	bcf	3,6	;RP1=0, select bank0
  3516  0B92  0D3C               	rlf	___fltol@f1+2,w
  3517  0B93  0D3D               	rlf	___fltol@f1+3,w
  3518  0B94  00BE               	movwf	??___fltol
  3519  0B95  083E               	movf	??___fltol,w
  3520  0B96  00C4               	movwf	___fltol@exp1
  3521  0B97  0844               	movf	___fltol@exp1,w
  3522  0B98  1D03               	btfss	3,2
  3523  0B99  2BA3               	goto	l2157
  3524  0B9A                     l2153:	
  3525  0B9A  3000               	movlw	0
  3526  0B9B  00BD               	movwf	?___fltol+3
  3527  0B9C  3000               	movlw	0
  3528  0B9D  00BC               	movwf	?___fltol+2
  3529  0B9E  3000               	movlw	0
  3530  0B9F  00BB               	movwf	?___fltol+1
  3531  0BA0  3000               	movlw	0
  3532  0BA1  00BA               	movwf	?___fltol
  3533  0BA2  0008               	return
  3534  0BA3                     l2157:	
  3535  0BA3  083A               	movf	___fltol@f1,w
  3536  0BA4  00BE               	movwf	??___fltol
  3537  0BA5  083B               	movf	___fltol@f1+1,w
  3538  0BA6  00BF               	movwf	??___fltol+1
  3539  0BA7  083C               	movf	___fltol@f1+2,w
  3540  0BA8  00C0               	movwf	??___fltol+2
  3541  0BA9  083D               	movf	___fltol@f1+3,w
  3542  0BAA  00C1               	movwf	??___fltol+3
  3543  0BAB  301F               	movlw	31
  3544  0BAC                     u2565:	
  3545  0BAC  1003               	clrc
  3546  0BAD  0CC1               	rrf	??___fltol+3,f
  3547  0BAE  0CC0               	rrf	??___fltol+2,f
  3548  0BAF  0CBF               	rrf	??___fltol+1,f
  3549  0BB0  0CBE               	rrf	??___fltol,f
  3550  0BB1  3EFF               	addlw	-1
  3551  0BB2  1D03               	skipz
  3552  0BB3  2BAC               	goto	u2565
  3553  0BB4  083E               	movf	??___fltol,w
  3554  0BB5  00C2               	movwf	??___fltol+4
  3555  0BB6  0842               	movf	??___fltol+4,w
  3556  0BB7  00C3               	movwf	___fltol@sign1
  3557  0BB8  17BC               	bsf	___fltol@f1+2,7
  3558  0BB9  30FF               	movlw	255
  3559  0BBA  05BA               	andwf	___fltol@f1,f
  3560  0BBB  30FF               	movlw	255
  3561  0BBC  05BB               	andwf	___fltol@f1+1,f
  3562  0BBD  30FF               	movlw	255
  3563  0BBE  05BC               	andwf	___fltol@f1+2,f
  3564  0BBF  3000               	movlw	0
  3565  0BC0  05BD               	andwf	___fltol@f1+3,f
  3566  0BC1  3096               	movlw	150
  3567  0BC2  02C4               	subwf	___fltol@exp1,f
  3568  0BC3  1FC4               	btfss	___fltol@exp1,7
  3569  0BC4  2BDA               	goto	l2175
  3570  0BC5  0844               	movf	___fltol@exp1,w
  3571  0BC6  3A80               	xorlw	128
  3572  0BC7  3E97               	addlw	151
  3573  0BC8  1C03               	btfss	3,0
  3574  0BC9  2B9A               	goto	l2153
  3575  0BCA                     l2173:	
  3576  0BCA  3001               	movlw	1
  3577  0BCB                     u2595:	
  3578  0BCB  1003               	clrc
  3579  0BCC  0CBD               	rrf	___fltol@f1+3,f
  3580  0BCD  0CBC               	rrf	___fltol@f1+2,f
  3581  0BCE  0CBB               	rrf	___fltol@f1+1,f
  3582  0BCF  0CBA               	rrf	___fltol@f1,f
  3583  0BD0  3EFF               	addlw	-1
  3584  0BD1  1D03               	skipz
  3585  0BD2  2BCB               	goto	u2595
  3586  0BD3  3001               	movlw	1
  3587  0BD4  00BE               	movwf	??___fltol
  3588  0BD5  083E               	movf	??___fltol,w
  3589  0BD6  07C4               	addwf	___fltol@exp1,f
  3590  0BD7  1903               	btfsc	3,2
  3591  0BD8  2BED               	goto	l2183
  3592  0BD9  2BCA               	goto	l2173
  3593  0BDA                     l2175:	
  3594  0BDA  3020               	movlw	32
  3595  0BDB  0244               	subwf	___fltol@exp1,w
  3596  0BDC  1803               	btfsc	3,0
  3597  0BDD  2B9A               	goto	l2153
  3598  0BDE                     l450:	
  3599  0BDE  0844               	movf	___fltol@exp1,w
  3600  0BDF  1903               	btfsc	3,2
  3601  0BE0  2BED               	goto	l2183
  3602  0BE1  3001               	movlw	1
  3603  0BE2  00BE               	movwf	??___fltol
  3604  0BE3                     u2625:	
  3605  0BE3  1003               	clrc
  3606  0BE4  0DBA               	rlf	___fltol@f1,f
  3607  0BE5  0DBB               	rlf	___fltol@f1+1,f
  3608  0BE6  0DBC               	rlf	___fltol@f1+2,f
  3609  0BE7  0DBD               	rlf	___fltol@f1+3,f
  3610  0BE8  0BBE               	decfsz	??___fltol,f
  3611  0BE9  2BE3               	goto	u2625
  3612  0BEA  3001               	movlw	1
  3613  0BEB  02C4               	subwf	___fltol@exp1,f
  3614  0BEC  2BDE               	goto	l450
  3615  0BED                     l2183:	
  3616  0BED  0843               	movf	___fltol@sign1,w
  3617  0BEE  1903               	btfsc	3,2
  3618  0BEF  0008               	return
  3619  0BF0  09BA               	comf	___fltol@f1,f
  3620  0BF1  09BB               	comf	___fltol@f1+1,f
  3621  0BF2  09BC               	comf	___fltol@f1+2,f
  3622  0BF3  09BD               	comf	___fltol@f1+3,f
  3623  0BF4  0ABA               	incf	___fltol@f1,f
  3624  0BF5  1903               	skipnz
  3625  0BF6  0ABB               	incf	___fltol@f1+1,f
  3626  0BF7  1903               	skipnz
  3627  0BF8  0ABC               	incf	___fltol@f1+2,f
  3628  0BF9  1903               	skipnz
  3629  0BFA  0ABD               	incf	___fltol@f1+3,f
  3630  0BFB  0008               	return
  3631  0BFC                     __end_of___fltol:	
  3632                           
  3633                           	psect	text16
  3634  09FD                     __ptext16:	
  3635 ;; *************** function ___flsub *****************
  3636 ;; Defined at:
  3637 ;;		line 242 in file "C:\Program Files (x86)\Microchip\xc8\v2.05\pic\sources\c90\common\sprcadd.c"
  3638 ;; Parameters:    Size  Location     Type
  3639 ;;  a               4    8[BANK0 ] long 
  3640 ;;  b               4   12[BANK0 ] long 
  3641 ;; Auto vars:     Size  Location     Type
  3642 ;;		None
  3643 ;; Return value:  Size  Location     Type
  3644 ;;                  4    8[BANK0 ] long 
  3645 ;; Registers used:
  3646 ;;		wreg, status,2, status,0, btemp+1, pclath, cstack
  3647 ;; Tracked objects:
  3648 ;;		On entry : 0/0
  3649 ;;		On exit  : 0/0
  3650 ;;		Unchanged: 0/0
  3651 ;; Data sizes:     COMMON   BANK0   BANK1   BANK3   BANK2
  3652 ;;      Params:         0       8       0       0       0
  3653 ;;      Locals:         0       0       0       0       0
  3654 ;;      Temps:          0       0       0       0       0
  3655 ;;      Totals:         0       8       0       0       0
  3656 ;;Total ram usage:        8 bytes
  3657 ;; Hardware stack levels used:    1
  3658 ;; Hardware stack levels required when called:    1
  3659 ;; This function calls:
  3660 ;;		___fladd
  3661 ;; This function is called by:
  3662 ;;		_main
  3663 ;; This function uses a non-reentrant model
  3664 ;;
  3665                           
  3666                           
  3667                           ;psect for function ___flsub
  3668  09FD                     ___flsub:	
  3669                           
  3670                           ;incstack = 0
  3671                           ; Regs used in ___flsub: [wreg+status,2+status,0+btemp+1+pclath+cstack]
  3672  09FD  3080               	movlw	128
  3673  09FE  1283               	bcf	3,5	;RP0=0, select bank0
  3674  09FF  1303               	bcf	3,6	;RP1=0, select bank0
  3675  0A00  06AB               	xorwf	___flsub@a+3,f
  3676  0A01  082F               	movf	___flsub@b+3,w
  3677  0A02  00F3               	movwf	___fladd@b+3
  3678  0A03  082E               	movf	___flsub@b+2,w
  3679  0A04  00F2               	movwf	___fladd@b+2
  3680  0A05  082D               	movf	___flsub@b+1,w
  3681  0A06  00F1               	movwf	___fladd@b+1
  3682  0A07  082C               	movf	___flsub@b,w
  3683  0A08  00F0               	movwf	___fladd@b
  3684  0A09  082B               	movf	___flsub@a+3,w
  3685  0A0A  00F7               	movwf	___fladd@a+3
  3686  0A0B  082A               	movf	___flsub@a+2,w
  3687  0A0C  00F6               	movwf	___fladd@a+2
  3688  0A0D  0829               	movf	___flsub@a+1,w
  3689  0A0E  00F5               	movwf	___fladd@a+1
  3690  0A0F  0828               	movf	___flsub@a,w
  3691  0A10  00F4               	movwf	___fladd@a
  3692  0A11  120A  158A  25C1   	fcall	___fladd
  3693  0A14  0873               	movf	?___fladd+3,w
  3694  0A15  1283               	bcf	3,5	;RP0=0, select bank0
  3695  0A16  1303               	bcf	3,6	;RP1=0, select bank0
  3696  0A17  00AB               	movwf	?___flsub+3
  3697  0A18  0872               	movf	?___fladd+2,w
  3698  0A19  00AA               	movwf	?___flsub+2
  3699  0A1A  0871               	movf	?___fladd+1,w
  3700  0A1B  00A9               	movwf	?___flsub+1
  3701  0A1C  0870               	movf	?___fladd,w
  3702  0A1D  00A8               	movwf	?___flsub
  3703  0A1E  0008               	return
  3704  0A1F                     __end_of___flsub:	
  3705                           
  3706                           	psect	text17
  3707  0DC1                     __ptext17:	
  3708 ;; *************** function ___fladd *****************
  3709 ;; Defined at:
  3710 ;;		line 10 in file "C:\Program Files (x86)\Microchip\xc8\v2.05\pic\sources\c90\common\sprcadd.c"
  3711 ;; Parameters:    Size  Location     Type
  3712 ;;  b               4    0[COMMON] long 
  3713 ;;  a               4    4[COMMON] long 
  3714 ;; Auto vars:     Size  Location     Type
  3715 ;;  grs             1   11[COMMON] unsigned char 
  3716 ;;  bexp            1   10[COMMON] unsigned char 
  3717 ;;  aexp            1    9[COMMON] unsigned char 
  3718 ;;  signs           1    8[COMMON] unsigned char 
  3719 ;; Return value:  Size  Location     Type
  3720 ;;                  4    0[COMMON] unsigned char 
  3721 ;; Registers used:
  3722 ;;		wreg, status,2, status,0, btemp+1
  3723 ;; Tracked objects:
  3724 ;;		On entry : 0/0
  3725 ;;		On exit  : 0/0
  3726 ;;		Unchanged: 0/0
  3727 ;; Data sizes:     COMMON   BANK0   BANK1   BANK3   BANK2
  3728 ;;      Params:         8       0       0       0       0
  3729 ;;      Locals:         4       0       0       0       0
  3730 ;;      Temps:          0       8       0       0       0
  3731 ;;      Totals:        12       8       0       0       0
  3732 ;;Total ram usage:       20 bytes
  3733 ;; Hardware stack levels used:    1
  3734 ;; This function calls:
  3735 ;;		Nothing
  3736 ;; This function is called by:
  3737 ;;		___flsub
  3738 ;; This function uses a non-reentrant model
  3739 ;;
  3740                           
  3741                           
  3742                           ;psect for function ___fladd
  3743  0DC1                     ___fladd:	
  3744                           
  3745                           ;incstack = 0
  3746                           ; Regs used in ___fladd: [wreg+status,2+status,0+btemp+1]
  3747  0DC1  0873               	movf	___fladd@b+3,w
  3748  0DC2  3980               	andlw	128
  3749  0DC3  1283               	bcf	3,5	;RP0=0, select bank0
  3750  0DC4  1303               	bcf	3,6	;RP1=0, select bank0
  3751  0DC5  00A0               	movwf	??___fladd
  3752  0DC6  0820               	movf	??___fladd,w
  3753  0DC7  00F8               	movwf	___fladd@signs
  3754  0DC8  0873               	movf	___fladd@b+3,w
  3755  0DC9  00A0               	movwf	??___fladd
  3756  0DCA  0720               	addwf	??___fladd,w
  3757  0DCB  00A1               	movwf	??___fladd+1
  3758  0DCC  0821               	movf	??___fladd+1,w
  3759  0DCD  00FA               	movwf	___fladd@bexp
  3760  0DCE  1BF2               	btfsc	___fladd@b+2,7
  3761  0DCF  147A               	bsf	___fladd@bexp,0
  3762  0DD0  087A               	movf	___fladd@bexp,w
  3763  0DD1  1903               	btfsc	3,2
  3764  0DD2  2DE1               	goto	l1825
  3765  0DD3  0A7A               	incf	___fladd@bexp,w
  3766  0DD4  1D03               	btfss	3,2
  3767  0DD5  2DDE               	goto	l1821
  3768  0DD6  3000               	movlw	0
  3769  0DD7  00F3               	movwf	___fladd@b+3
  3770  0DD8  3000               	movlw	0
  3771  0DD9  00F2               	movwf	___fladd@b+2
  3772  0DDA  3000               	movlw	0
  3773  0DDB  00F1               	movwf	___fladd@b+1
  3774  0DDC  3000               	movlw	0
  3775  0DDD  00F0               	movwf	___fladd@b
  3776  0DDE                     l1821:	
  3777  0DDE  17F2               	bsf	___fladd@b+2,7
  3778  0DDF  01F3               	clrf	___fladd@b+3
  3779  0DE0  2DE9               	goto	l1827
  3780  0DE1                     l1825:	
  3781  0DE1  3000               	movlw	0
  3782  0DE2  00F3               	movwf	___fladd@b+3
  3783  0DE3  3000               	movlw	0
  3784  0DE4  00F2               	movwf	___fladd@b+2
  3785  0DE5  3000               	movlw	0
  3786  0DE6  00F1               	movwf	___fladd@b+1
  3787  0DE7  3000               	movlw	0
  3788  0DE8  00F0               	movwf	___fladd@b
  3789  0DE9                     l1827:	
  3790  0DE9  0877               	movf	___fladd@a+3,w
  3791  0DEA  3980               	andlw	128
  3792  0DEB  00A0               	movwf	??___fladd
  3793  0DEC  0820               	movf	??___fladd,w
  3794  0DED  00F9               	movwf	___fladd@aexp
  3795  0DEE  0879               	movf	___fladd@aexp,w
  3796  0DEF  0678               	xorwf	___fladd@signs,w
  3797  0DF0  1D03               	btfss	3,2
  3798  0DF1  1778               	bsf	___fladd@signs,6
  3799  0DF2  0877               	movf	___fladd@a+3,w
  3800  0DF3  00A0               	movwf	??___fladd
  3801  0DF4  0720               	addwf	??___fladd,w
  3802  0DF5  00A1               	movwf	??___fladd+1
  3803  0DF6  0821               	movf	??___fladd+1,w
  3804  0DF7  00F9               	movwf	___fladd@aexp
  3805  0DF8  1BF6               	btfsc	___fladd@a+2,7
  3806  0DF9  1479               	bsf	___fladd@aexp,0
  3807  0DFA  0879               	movf	___fladd@aexp,w
  3808  0DFB  1903               	btfsc	3,2
  3809  0DFC  2E0B               	goto	l1849
  3810  0DFD  0A79               	incf	___fladd@aexp,w
  3811  0DFE  1D03               	btfss	3,2
  3812  0DFF  2E08               	goto	l1845
  3813  0E00  3000               	movlw	0
  3814  0E01  00F7               	movwf	___fladd@a+3
  3815  0E02  3000               	movlw	0
  3816  0E03  00F6               	movwf	___fladd@a+2
  3817  0E04  3000               	movlw	0
  3818  0E05  00F5               	movwf	___fladd@a+1
  3819  0E06  3000               	movlw	0
  3820  0E07  00F4               	movwf	___fladd@a
  3821  0E08                     l1845:	
  3822  0E08  17F6               	bsf	___fladd@a+2,7
  3823  0E09  01F7               	clrf	___fladd@a+3
  3824  0E0A  2E13               	goto	l550
  3825  0E0B                     l1849:	
  3826  0E0B  3000               	movlw	0
  3827  0E0C  00F7               	movwf	___fladd@a+3
  3828  0E0D  3000               	movlw	0
  3829  0E0E  00F6               	movwf	___fladd@a+2
  3830  0E0F  3000               	movlw	0
  3831  0E10  00F5               	movwf	___fladd@a+1
  3832  0E11  3000               	movlw	0
  3833  0E12  00F4               	movwf	___fladd@a
  3834  0E13                     l550:	
  3835  0E13  087A               	movf	___fladd@bexp,w
  3836  0E14  0279               	subwf	___fladd@aexp,w
  3837  0E15  1803               	skipnc
  3838  0E16  2E59               	goto	l1885
  3839  0E17  1F78               	btfss	___fladd@signs,6
  3840  0E18  2E1D               	goto	l1855
  3841  0E19  3080               	movlw	128
  3842  0E1A  00A0               	movwf	??___fladd
  3843  0E1B  0820               	movf	??___fladd,w
  3844  0E1C  06F8               	xorwf	___fladd@signs,f
  3845  0E1D                     l1855:	
  3846  0E1D  087A               	movf	___fladd@bexp,w
  3847  0E1E  00A0               	movwf	??___fladd
  3848  0E1F  0820               	movf	??___fladd,w
  3849  0E20  00FB               	movwf	___fladd@grs
  3850  0E21  0879               	movf	___fladd@aexp,w
  3851  0E22  00A0               	movwf	??___fladd
  3852  0E23  0820               	movf	??___fladd,w
  3853  0E24  00FA               	movwf	___fladd@bexp
  3854  0E25  087B               	movf	___fladd@grs,w
  3855  0E26  00A0               	movwf	??___fladd
  3856  0E27  0820               	movf	??___fladd,w
  3857  0E28  00F9               	movwf	___fladd@aexp
  3858  0E29  0870               	movf	___fladd@b,w
  3859  0E2A  00A0               	movwf	??___fladd
  3860  0E2B  0820               	movf	??___fladd,w
  3861  0E2C  00FB               	movwf	___fladd@grs
  3862  0E2D  0874               	movf	___fladd@a,w
  3863  0E2E  00A0               	movwf	??___fladd
  3864  0E2F  0820               	movf	??___fladd,w
  3865  0E30  00F0               	movwf	___fladd@b
  3866  0E31  087B               	movf	___fladd@grs,w
  3867  0E32  00A0               	movwf	??___fladd
  3868  0E33  0820               	movf	??___fladd,w
  3869  0E34  00F4               	movwf	___fladd@a
  3870  0E35  0871               	movf	___fladd@b+1,w
  3871  0E36  00A0               	movwf	??___fladd
  3872  0E37  0820               	movf	??___fladd,w
  3873  0E38  00FB               	movwf	___fladd@grs
  3874  0E39  0875               	movf	___fladd@a+1,w
  3875  0E3A  00A0               	movwf	??___fladd
  3876  0E3B  0820               	movf	??___fladd,w
  3877  0E3C  00F1               	movwf	___fladd@b+1
  3878  0E3D  087B               	movf	___fladd@grs,w
  3879  0E3E  00A0               	movwf	??___fladd
  3880  0E3F  0820               	movf	??___fladd,w
  3881  0E40  00F5               	movwf	___fladd@a+1
  3882  0E41  0872               	movf	___fladd@b+2,w
  3883  0E42  00A0               	movwf	??___fladd
  3884  0E43  0820               	movf	??___fladd,w
  3885  0E44  00FB               	movwf	___fladd@grs
  3886  0E45  0876               	movf	___fladd@a+2,w
  3887  0E46  00A0               	movwf	??___fladd
  3888  0E47  0820               	movf	??___fladd,w
  3889  0E48  00F2               	movwf	___fladd@b+2
  3890  0E49  087B               	movf	___fladd@grs,w
  3891  0E4A  00A0               	movwf	??___fladd
  3892  0E4B  0820               	movf	??___fladd,w
  3893  0E4C  00F6               	movwf	___fladd@a+2
  3894  0E4D  0873               	movf	___fladd@b+3,w
  3895  0E4E  00A0               	movwf	??___fladd
  3896  0E4F  0820               	movf	??___fladd,w
  3897  0E50  00FB               	movwf	___fladd@grs
  3898  0E51  0877               	movf	___fladd@a+3,w
  3899  0E52  00A0               	movwf	??___fladd
  3900  0E53  0820               	movf	??___fladd,w
  3901  0E54  00F3               	movwf	___fladd@b+3
  3902  0E55  087B               	movf	___fladd@grs,w
  3903  0E56  00A0               	movwf	??___fladd
  3904  0E57  0820               	movf	??___fladd,w
  3905  0E58  00F7               	movwf	___fladd@a+3
  3906  0E59                     l1885:	
  3907  0E59  01FB               	clrf	___fladd@grs
  3908  0E5A  0879               	movf	___fladd@aexp,w
  3909  0E5B  00A0               	movwf	??___fladd
  3910  0E5C  01A1               	clrf	??___fladd+1
  3911  0E5D  0821               	movf	??___fladd+1,w
  3912  0E5E  00A3               	movwf	??___fladd+3
  3913  0E5F  087A               	movf	___fladd@bexp,w
  3914  0E60  0220               	subwf	??___fladd,w
  3915  0E61  00A2               	movwf	??___fladd+2
  3916  0E62  1C03               	skipc
  3917  0E63  03A3               	decf	??___fladd+3,f
  3918  0E64  0823               	movf	??___fladd+3,w
  3919  0E65  3A80               	xorlw	128
  3920  0E66  00FF               	movwf	127
  3921  0E67  3080               	movlw	128
  3922  0E68  027F               	subwf	127,w
  3923  0E69  1D03               	skipz
  3924  0E6A  2E6D               	goto	u1935
  3925  0E6B  301A               	movlw	26
  3926  0E6C  0222               	subwf	??___fladd+2,w
  3927  0E6D                     u1935:	
  3928  0E6D  1C03               	skipc
  3929  0E6E  2EAA               	goto	l1903
  3930  0E6F  0873               	movf	___fladd@b+3,w
  3931  0E70  0472               	iorwf	___fladd@b+2,w
  3932  0E71  0471               	iorwf	___fladd@b+1,w
  3933  0E72  0470               	iorwf	___fladd@b,w
  3934  0E73  1903               	btfsc	3,2
  3935  0E74  2E77               	goto	u1940
  3936  0E75  3001               	movlw	1
  3937  0E76  2E78               	goto	u1950
  3938  0E77                     u1940:	
  3939  0E77  3000               	movlw	0
  3940  0E78                     u1950:	
  3941  0E78  1283               	bcf	3,5	;RP0=0, select bank0
  3942  0E79  1303               	bcf	3,6	;RP1=0, select bank0
  3943  0E7A  00A0               	movwf	??___fladd
  3944  0E7B  0820               	movf	??___fladd,w
  3945  0E7C  00FB               	movwf	___fladd@grs
  3946  0E7D  3000               	movlw	0
  3947  0E7E  00F3               	movwf	___fladd@b+3
  3948  0E7F  3000               	movlw	0
  3949  0E80  00F2               	movwf	___fladd@b+2
  3950  0E81  3000               	movlw	0
  3951  0E82  00F1               	movwf	___fladd@b+1
  3952  0E83  3000               	movlw	0
  3953  0E84  00F0               	movwf	___fladd@b
  3954  0E85  0879               	movf	___fladd@aexp,w
  3955  0E86  00A0               	movwf	??___fladd
  3956  0E87  0820               	movf	??___fladd,w
  3957  0E88  00FA               	movwf	___fladd@bexp
  3958  0E89  2EAE               	goto	l554
  3959  0E8A                     l556:	
  3960  0E8A  1C7B               	btfss	___fladd@grs,0
  3961  0E8B  2E97               	goto	l1893
  3962  0E8C  087B               	movf	___fladd@grs,w
  3963  0E8D  1283               	bcf	3,5	;RP0=0, select bank0
  3964  0E8E  1303               	bcf	3,6	;RP1=0, select bank0
  3965  0E8F  00A0               	movwf	??___fladd
  3966  0E90  1003               	clrc
  3967  0E91  0C20               	rrf	??___fladd,w
  3968  0E92  3801               	iorlw	1
  3969  0E93  00A1               	movwf	??___fladd+1
  3970  0E94  0821               	movf	??___fladd+1,w
  3971  0E95  00FB               	movwf	___fladd@grs
  3972  0E96  2E99               	goto	l1895
  3973  0E97                     l1893:	
  3974  0E97  1003               	clrc
  3975  0E98  0CFB               	rrf	___fladd@grs,f
  3976  0E99                     l1895:	
  3977  0E99  1870               	btfsc	___fladd@b,0
  3978  0E9A  17FB               	bsf	___fladd@grs,7
  3979  0E9B  3001               	movlw	1
  3980  0E9C  1283               	bcf	3,5	;RP0=0, select bank0
  3981  0E9D  1303               	bcf	3,6	;RP1=0, select bank0
  3982  0E9E  00A0               	movwf	??___fladd
  3983  0E9F                     u1985:	
  3984  0E9F  0D73               	rlf	___fladd@b+3,w
  3985  0EA0  0CF3               	rrf	___fladd@b+3,f
  3986  0EA1  0CF2               	rrf	___fladd@b+2,f
  3987  0EA2  0CF1               	rrf	___fladd@b+1,f
  3988  0EA3  0CF0               	rrf	___fladd@b,f
  3989  0EA4  0BA0               	decfsz	??___fladd& (0+127),f
  3990  0EA5  2E9F               	goto	u1985
  3991  0EA6  3001               	movlw	1
  3992  0EA7  00A0               	movwf	??___fladd
  3993  0EA8  0820               	movf	??___fladd,w
  3994  0EA9  07FA               	addwf	___fladd@bexp,f
  3995  0EAA                     l1903:	
  3996  0EAA  0879               	movf	___fladd@aexp,w
  3997  0EAB  027A               	subwf	___fladd@bexp,w
  3998  0EAC  1C03               	skipc
  3999  0EAD  2E8A               	goto	l556
  4000  0EAE                     l554:	
  4001  0EAE  1B78               	btfsc	___fladd@signs,6
  4002  0EAF  2EF3               	goto	l1929
  4003  0EB0  087A               	movf	___fladd@bexp,w
  4004  0EB1  1D03               	btfss	3,2
  4005  0EB2  2EBC               	goto	l1911
  4006  0EB3  3000               	movlw	0
  4007  0EB4  00F3               	movwf	?___fladd+3
  4008  0EB5  3000               	movlw	0
  4009  0EB6  00F2               	movwf	?___fladd+2
  4010  0EB7  3000               	movlw	0
  4011  0EB8  00F1               	movwf	?___fladd+1
  4012  0EB9  3000               	movlw	0
  4013  0EBA  00F0               	movwf	?___fladd
  4014  0EBB  0008               	return
  4015  0EBC                     l1911:	
  4016  0EBC  0874               	movf	___fladd@a,w
  4017  0EBD  07F0               	addwf	___fladd@b,f
  4018  0EBE  0875               	movf	___fladd@a+1,w
  4019  0EBF  1103               	clrz
  4020  0EC0  1803               	skipnc
  4021  0EC1  3E01               	addlw	1
  4022  0EC2  1D03               	btfss	3,2
  4023  0EC3  07F1               	addwf	___fladd@b+1,f
  4024  0EC4  0876               	movf	___fladd@a+2,w
  4025  0EC5  1103               	clrz
  4026  0EC6  1803               	skipnc
  4027  0EC7  3E01               	addlw	1
  4028  0EC8  1D03               	btfss	3,2
  4029  0EC9  07F2               	addwf	___fladd@b+2,f
  4030  0ECA  0877               	movf	___fladd@a+3,w
  4031  0ECB  1103               	clrz
  4032  0ECC  1803               	skipnc
  4033  0ECD  3E01               	addlw	1
  4034  0ECE  1D03               	btfss	3,2
  4035  0ECF  07F3               	addwf	___fladd@b+3,f
  4036  0ED0  1C73               	btfss	___fladd@b+3,0
  4037  0ED1  2F99               	goto	l1963
  4038  0ED2  1C7B               	btfss	___fladd@grs,0
  4039  0ED3  2EDF               	goto	l1919
  4040  0ED4  087B               	movf	___fladd@grs,w
  4041  0ED5  1283               	bcf	3,5	;RP0=0, select bank0
  4042  0ED6  1303               	bcf	3,6	;RP1=0, select bank0
  4043  0ED7  00A0               	movwf	??___fladd
  4044  0ED8  1003               	clrc
  4045  0ED9  0C20               	rrf	??___fladd,w
  4046  0EDA  3801               	iorlw	1
  4047  0EDB  00A1               	movwf	??___fladd+1
  4048  0EDC  0821               	movf	??___fladd+1,w
  4049  0EDD  00FB               	movwf	___fladd@grs
  4050  0EDE  2EE1               	goto	l1921
  4051  0EDF                     l1919:	
  4052  0EDF  1003               	clrc
  4053  0EE0  0CFB               	rrf	___fladd@grs,f
  4054  0EE1                     l1921:	
  4055  0EE1  1870               	btfsc	___fladd@b,0
  4056  0EE2  17FB               	bsf	___fladd@grs,7
  4057  0EE3  3001               	movlw	1
  4058  0EE4  1283               	bcf	3,5	;RP0=0, select bank0
  4059  0EE5  1303               	bcf	3,6	;RP1=0, select bank0
  4060  0EE6  00A0               	movwf	??___fladd
  4061  0EE7                     u2065:	
  4062  0EE7  0D73               	rlf	___fladd@b+3,w
  4063  0EE8  0CF3               	rrf	___fladd@b+3,f
  4064  0EE9  0CF2               	rrf	___fladd@b+2,f
  4065  0EEA  0CF1               	rrf	___fladd@b+1,f
  4066  0EEB  0CF0               	rrf	___fladd@b,f
  4067  0EEC  0BA0               	decfsz	??___fladd& (0+127),f
  4068  0EED  2EE7               	goto	u2065
  4069  0EEE  3001               	movlw	1
  4070  0EEF  00A0               	movwf	??___fladd
  4071  0EF0  0820               	movf	??___fladd,w
  4072  0EF1  07FA               	addwf	___fladd@bexp,f
  4073  0EF2  2F99               	goto	l1963
  4074  0EF3                     l1929:	
  4075  0EF3  0873               	movf	___fladd@b+3,w
  4076  0EF4  3A80               	xorlw	128
  4077  0EF5  00FF               	movwf	127
  4078  0EF6  0877               	movf	___fladd@a+3,w
  4079  0EF7  3A80               	xorlw	128
  4080  0EF8  027F               	subwf	127,w
  4081  0EF9  1D03               	skipz
  4082  0EFA  2F05               	goto	u2073
  4083  0EFB  0876               	movf	___fladd@a+2,w
  4084  0EFC  0272               	subwf	___fladd@b+2,w
  4085  0EFD  1D03               	skipz
  4086  0EFE  2F05               	goto	u2073
  4087  0EFF  0875               	movf	___fladd@a+1,w
  4088  0F00  0271               	subwf	___fladd@b+1,w
  4089  0F01  1D03               	skipz
  4090  0F02  2F05               	goto	u2073
  4091  0F03  0874               	movf	___fladd@a,w
  4092  0F04  0270               	subwf	___fladd@b,w
  4093  0F05                     u2073:	
  4094  0F05  1803               	skipnc
  4095  0F06  2F5F               	goto	l1939
  4096  0F07  30FF               	movlw	255
  4097  0F08  1283               	bcf	3,5	;RP0=0, select bank0
  4098  0F09  1303               	bcf	3,6	;RP1=0, select bank0
  4099  0F0A  00A0               	movwf	??___fladd
  4100  0F0B  30FF               	movlw	255
  4101  0F0C  00A1               	movwf	??___fladd+1
  4102  0F0D  30FF               	movlw	255
  4103  0F0E  00A2               	movwf	??___fladd+2
  4104  0F0F  30FF               	movlw	255
  4105  0F10  00A3               	movwf	??___fladd+3
  4106  0F11  0874               	movf	___fladd@a,w
  4107  0F12  00A4               	movwf	??___fladd+4
  4108  0F13  0875               	movf	___fladd@a+1,w
  4109  0F14  00A5               	movwf	??___fladd+5
  4110  0F15  0876               	movf	___fladd@a+2,w
  4111  0F16  00A6               	movwf	??___fladd+6
  4112  0F17  0877               	movf	___fladd@a+3,w
  4113  0F18  00A7               	movwf	??___fladd+7
  4114  0F19  0870               	movf	___fladd@b,w
  4115  0F1A  02A4               	subwf	??___fladd+4,f
  4116  0F1B  0871               	movf	___fladd@b+1,w
  4117  0F1C  1C03               	skipc
  4118  0F1D  0F71               	incfsz	___fladd@b+1,w
  4119  0F1E  2F20               	goto	u2081
  4120  0F1F  2F21               	goto	u2082
  4121  0F20                     u2081:	
  4122  0F20  02A5               	subwf	??___fladd+5,f
  4123  0F21                     u2082:	
  4124  0F21  0872               	movf	___fladd@b+2,w
  4125  0F22  1C03               	skipc
  4126  0F23  0F72               	incfsz	___fladd@b+2,w
  4127  0F24  2F26               	goto	u2083
  4128  0F25  2F27               	goto	u2084
  4129  0F26                     u2083:	
  4130  0F26  02A6               	subwf	??___fladd+6,f
  4131  0F27                     u2084:	
  4132  0F27  0873               	movf	___fladd@b+3,w
  4133  0F28  1C03               	skipc
  4134  0F29  0F73               	incfsz	___fladd@b+3,w
  4135  0F2A  2F2C               	goto	u2085
  4136  0F2B  2F2D               	goto	u2086
  4137  0F2C                     u2085:	
  4138  0F2C  02A7               	subwf	??___fladd+7,f
  4139  0F2D                     u2086:	
  4140  0F2D  0824               	movf	??___fladd+4,w
  4141  0F2E  07A0               	addwf	??___fladd,f
  4142  0F2F  0825               	movf	??___fladd+5,w
  4143  0F30  1803               	skipnc
  4144  0F31  0F25               	incfsz	??___fladd+5,w
  4145  0F32  2F34               	goto	u2090
  4146  0F33  2F35               	goto	u2091
  4147  0F34                     u2090:	
  4148  0F34  07A1               	addwf	??___fladd+1,f
  4149  0F35                     u2091:	
  4150  0F35  0826               	movf	??___fladd+6,w
  4151  0F36  1803               	skipnc
  4152  0F37  0F26               	incfsz	??___fladd+6,w
  4153  0F38  2F3A               	goto	u2092
  4154  0F39  2F3B               	goto	u2093
  4155  0F3A                     u2092:	
  4156  0F3A  07A2               	addwf	??___fladd+2,f
  4157  0F3B                     u2093:	
  4158  0F3B  0827               	movf	??___fladd+7,w
  4159  0F3C  1803               	skipnc
  4160  0F3D  0A27               	incf	??___fladd+7,w
  4161  0F3E  07A3               	addwf	??___fladd+3,f
  4162  0F3F  0823               	movf	??___fladd+3,w
  4163  0F40  00F3               	movwf	___fladd@b+3
  4164  0F41  0822               	movf	??___fladd+2,w
  4165  0F42  00F2               	movwf	___fladd@b+2
  4166  0F43  0821               	movf	??___fladd+1,w
  4167  0F44  00F1               	movwf	___fladd@b+1
  4168  0F45  0820               	movf	??___fladd,w
  4169  0F46  00F0               	movwf	___fladd@b
  4170  0F47  3080               	movlw	128
  4171  0F48  00A0               	movwf	??___fladd
  4172  0F49  0820               	movf	??___fladd,w
  4173  0F4A  06F8               	xorwf	___fladd@signs,f
  4174  0F4B  09FB               	comf	___fladd@grs,f
  4175  0F4C  0AFB               	incf	___fladd@grs,f
  4176  0F4D  087B               	movf	___fladd@grs,w
  4177  0F4E  1D03               	btfss	3,2
  4178  0F4F  2F6D               	goto	l571
  4179  0F50  3001               	movlw	1
  4180  0F51  07F0               	addwf	___fladd@b,f
  4181  0F52  3000               	movlw	0
  4182  0F53  1803               	skipnc
  4183  0F54  3001               	movlw	1
  4184  0F55  07F1               	addwf	___fladd@b+1,f
  4185  0F56  3000               	movlw	0
  4186  0F57  1803               	skipnc
  4187  0F58  3001               	movlw	1
  4188  0F59  07F2               	addwf	___fladd@b+2,f
  4189  0F5A  3000               	movlw	0
  4190  0F5B  1803               	skipnc
  4191  0F5C  3001               	movlw	1
  4192  0F5D  07F3               	addwf	___fladd@b+3,f
  4193  0F5E  2F6D               	goto	l571
  4194  0F5F                     l1939:	
  4195  0F5F  0874               	movf	___fladd@a,w
  4196  0F60  02F0               	subwf	___fladd@b,f
  4197  0F61  0875               	movf	___fladd@a+1,w
  4198  0F62  1C03               	skipc
  4199  0F63  0F75               	incfsz	___fladd@a+1,w
  4200  0F64  02F1               	subwf	___fladd@b+1,f
  4201  0F65  0876               	movf	___fladd@a+2,w
  4202  0F66  1C03               	skipc
  4203  0F67  0F76               	incfsz	___fladd@a+2,w
  4204  0F68  02F2               	subwf	___fladd@b+2,f
  4205  0F69  0877               	movf	___fladd@a+3,w
  4206  0F6A  1C03               	skipc
  4207  0F6B  0F77               	incfsz	___fladd@a+3,w
  4208  0F6C  02F3               	subwf	___fladd@b+3,f
  4209  0F6D                     l571:	
  4210  0F6D  0873               	movf	___fladd@b+3,w
  4211  0F6E  0472               	iorwf	___fladd@b+2,w
  4212  0F6F  0471               	iorwf	___fladd@b+1,w
  4213  0F70  0470               	iorwf	___fladd@b,w
  4214  0F71  1D03               	skipz
  4215  0F72  2F97               	goto	l1961
  4216  0F73  087B               	movf	___fladd@grs,w
  4217  0F74  1D03               	btfss	3,2
  4218  0F75  2F97               	goto	l1961
  4219  0F76  3000               	movlw	0
  4220  0F77  00F3               	movwf	?___fladd+3
  4221  0F78  3000               	movlw	0
  4222  0F79  00F2               	movwf	?___fladd+2
  4223  0F7A  3000               	movlw	0
  4224  0F7B  00F1               	movwf	?___fladd+1
  4225  0F7C  3000               	movlw	0
  4226  0F7D  00F0               	movwf	?___fladd
  4227  0F7E  0008               	return
  4228  0F7F                     l1947:	
  4229  0F7F  3001               	movlw	1
  4230  0F80  1283               	bcf	3,5	;RP0=0, select bank0
  4231  0F81  1303               	bcf	3,6	;RP1=0, select bank0
  4232  0F82  00A0               	movwf	??___fladd
  4233  0F83                     u2135:	
  4234  0F83  1003               	clrc
  4235  0F84  0DF0               	rlf	___fladd@b,f
  4236  0F85  0DF1               	rlf	___fladd@b+1,f
  4237  0F86  0DF2               	rlf	___fladd@b+2,f
  4238  0F87  0DF3               	rlf	___fladd@b+3,f
  4239  0F88  0BA0               	decfsz	??___fladd,f
  4240  0F89  2F83               	goto	u2135
  4241  0F8A  1BFB               	btfsc	___fladd@grs,7
  4242  0F8B  1470               	bsf	___fladd@b,0
  4243  0F8C  1C7B               	btfss	___fladd@grs,0
  4244  0F8D  2F90               	goto	l1955
  4245  0F8E  1403               	setc
  4246  0F8F  2F91               	goto	L1
  4247  0F90                     l1955:	
  4248  0F90  1003               	clrc
  4249  0F91                     L1:	
  4250  0F91  0DFB               	rlf	___fladd@grs,f
  4251  0F92  087A               	movf	___fladd@bexp,w
  4252  0F93  1903               	btfsc	3,2
  4253  0F94  2F97               	goto	l1961
  4254  0F95  3001               	movlw	1
  4255  0F96  02FA               	subwf	___fladd@bexp,f
  4256  0F97                     l1961:	
  4257  0F97  1FF2               	btfss	___fladd@b+2,7
  4258  0F98  2F7F               	goto	l1947
  4259  0F99                     l1963:	
  4260  0F99  01F9               	clrf	___fladd@aexp
  4261  0F9A  1FFB               	btfss	___fladd@grs,7
  4262  0F9B  2FA4               	goto	l1973
  4263  0F9C  087B               	movf	___fladd@grs,w
  4264  0F9D  397F               	andlw	127
  4265  0F9E  1903               	btfsc	3,2
  4266  0F9F  1870               	btfsc	___fladd@b,0
  4267  0FA0  2FA2               	goto	l1969
  4268  0FA1  2FA4               	goto	l1973
  4269  0FA2                     l1969:	
  4270  0FA2  01F9               	clrf	___fladd@aexp
  4271  0FA3  0AF9               	incf	___fladd@aexp,f
  4272  0FA4                     l1973:	
  4273  0FA4  0879               	movf	___fladd@aexp,w
  4274  0FA5  1903               	btfsc	3,2
  4275  0FA6  2FD9               	goto	l584
  4276  0FA7  3001               	movlw	1
  4277  0FA8  07F0               	addwf	___fladd@b,f
  4278  0FA9  3000               	movlw	0
  4279  0FAA  1803               	skipnc
  4280  0FAB  3001               	movlw	1
  4281  0FAC  07F1               	addwf	___fladd@b+1,f
  4282  0FAD  3000               	movlw	0
  4283  0FAE  1803               	skipnc
  4284  0FAF  3001               	movlw	1
  4285  0FB0  07F2               	addwf	___fladd@b+2,f
  4286  0FB1  3000               	movlw	0
  4287  0FB2  1803               	skipnc
  4288  0FB3  3001               	movlw	1
  4289  0FB4  07F3               	addwf	___fladd@b+3,f
  4290  0FB5  1C73               	btfss	___fladd@b+3,0
  4291  0FB6  2FD9               	goto	l584
  4292  0FB7  0870               	movf	___fladd@b,w
  4293  0FB8  1283               	bcf	3,5	;RP0=0, select bank0
  4294  0FB9  1303               	bcf	3,6	;RP1=0, select bank0
  4295  0FBA  00A0               	movwf	??___fladd
  4296  0FBB  0871               	movf	___fladd@b+1,w
  4297  0FBC  00A1               	movwf	??___fladd+1
  4298  0FBD  0872               	movf	___fladd@b+2,w
  4299  0FBE  00A2               	movwf	??___fladd+2
  4300  0FBF  0873               	movf	___fladd@b+3,w
  4301  0FC0  00A3               	movwf	??___fladd+3
  4302  0FC1  3001               	movlw	1
  4303  0FC2  00A4               	movwf	??___fladd+4
  4304  0FC3                     u2235:	
  4305  0FC3  0D23               	rlf	??___fladd+3,w
  4306  0FC4  0CA3               	rrf	??___fladd+3,f
  4307  0FC5  0CA2               	rrf	??___fladd+2,f
  4308  0FC6  0CA1               	rrf	??___fladd+1,f
  4309  0FC7  0CA0               	rrf	??___fladd,f
  4310  0FC8  0BA4               	decfsz	??___fladd+4,f
  4311  0FC9  2FC3               	goto	u2235
  4312  0FCA  0823               	movf	??___fladd+3,w
  4313  0FCB  00F3               	movwf	___fladd@b+3
  4314  0FCC  0822               	movf	??___fladd+2,w
  4315  0FCD  00F2               	movwf	___fladd@b+2
  4316  0FCE  0821               	movf	??___fladd+1,w
  4317  0FCF  00F1               	movwf	___fladd@b+1
  4318  0FD0  0820               	movf	??___fladd,w
  4319  0FD1  00F0               	movwf	___fladd@b
  4320  0FD2  0A7A               	incf	___fladd@bexp,w
  4321  0FD3  1903               	btfsc	3,2
  4322  0FD4  2FD9               	goto	l584
  4323  0FD5  3001               	movlw	1
  4324  0FD6  00A0               	movwf	??___fladd
  4325  0FD7  0820               	movf	??___fladd,w
  4326  0FD8  07FA               	addwf	___fladd@bexp,f
  4327  0FD9                     l584:	
  4328  0FD9  0A7A               	incf	___fladd@bexp,w
  4329  0FDA  1D03               	btfss	3,2
  4330  0FDB  087A               	movf	___fladd@bexp,w
  4331  0FDC  1D03               	btfss	3,2
  4332  0FDD  2FE9               	goto	l1991
  4333  0FDE  3000               	movlw	0
  4334  0FDF  00F3               	movwf	___fladd@b+3
  4335  0FE0  3000               	movlw	0
  4336  0FE1  00F2               	movwf	___fladd@b+2
  4337  0FE2  3000               	movlw	0
  4338  0FE3  00F1               	movwf	___fladd@b+1
  4339  0FE4  3000               	movlw	0
  4340  0FE5  00F0               	movwf	___fladd@b
  4341  0FE6  087A               	movf	___fladd@bexp,w
  4342  0FE7  1903               	btfsc	3,2
  4343  0FE8  01F8               	clrf	___fladd@signs
  4344  0FE9                     l1991:	
  4345  0FE9  1C7A               	btfss	___fladd@bexp,0
  4346  0FEA  2FED               	goto	l1995
  4347  0FEB  17F2               	bsf	___fladd@b+2,7
  4348  0FEC  2FF3               	goto	l592
  4349  0FED                     l1995:	
  4350  0FED  307F               	movlw	127
  4351  0FEE  1283               	bcf	3,5	;RP0=0, select bank0
  4352  0FEF  1303               	bcf	3,6	;RP1=0, select bank0
  4353  0FF0  00A0               	movwf	??___fladd
  4354  0FF1  0820               	movf	??___fladd,w
  4355  0FF2  05F2               	andwf	___fladd@b+2,f
  4356  0FF3                     l592:	
  4357  0FF3  087A               	movf	___fladd@bexp,w
  4358  0FF4  1283               	bcf	3,5	;RP0=0, select bank0
  4359  0FF5  1303               	bcf	3,6	;RP1=0, select bank0
  4360  0FF6  00A0               	movwf	??___fladd
  4361  0FF7  1003               	clrc
  4362  0FF8  0C20               	rrf	??___fladd,w
  4363  0FF9  00A1               	movwf	??___fladd+1
  4364  0FFA  0821               	movf	??___fladd+1,w
  4365  0FFB  00F3               	movwf	___fladd@b+3
  4366  0FFC  1FF8               	btfss	___fladd@signs,7
  4367  0FFD  0008               	return
  4368  0FFE  17F3               	bsf	___fladd@b+3,7
  4369  0FFF  0008               	return
  4370  1000                     __end_of___fladd:	
  4371                           
  4372                           	psect	text18
  4373  0155                     __ptext18:	
  4374 ;; *************** function ___flmul *****************
  4375 ;; Defined at:
  4376 ;;		line 8 in file "C:\Program Files (x86)\Microchip\xc8\v2.05\pic\sources\c90\common\sprcmul.c"
  4377 ;; Parameters:    Size  Location     Type
  4378 ;;  b               4    0[BANK0 ] unsigned char 
  4379 ;;  a               4    4[BANK0 ] unsigned char 
  4380 ;; Auto vars:     Size  Location     Type
  4381 ;;  prod            4   20[BANK0 ] struct .
  4382 ;;  grs             4   14[BANK0 ] unsigned long 
  4383 ;;  temp            2   24[BANK0 ] struct .
  4384 ;;  bexp            1   19[BANK0 ] unsigned char 
  4385 ;;  aexp            1   18[BANK0 ] unsigned char 
  4386 ;;  sign            1   13[BANK0 ] unsigned char 
  4387 ;; Return value:  Size  Location     Type
  4388 ;;                  4    0[BANK0 ] unsigned char 
  4389 ;; Registers used:
  4390 ;;		wreg, status,2, status,0, btemp+1, pclath, cstack
  4391 ;; Tracked objects:
  4392 ;;		On entry : 0/0
  4393 ;;		On exit  : 0/0
  4394 ;;		Unchanged: 0/0
  4395 ;; Data sizes:     COMMON   BANK0   BANK1   BANK3   BANK2
  4396 ;;      Params:         0       8       0       0       0
  4397 ;;      Locals:         0      13       0       0       0
  4398 ;;      Temps:          0       5       0       0       0
  4399 ;;      Totals:         0      26       0       0       0
  4400 ;;Total ram usage:       26 bytes
  4401 ;; Hardware stack levels used:    1
  4402 ;; Hardware stack levels required when called:    1
  4403 ;; This function calls:
  4404 ;;		__Umul8_16
  4405 ;; This function is called by:
  4406 ;;		_main
  4407 ;; This function uses a non-reentrant model
  4408 ;;
  4409                           
  4410                           
  4411                           ;psect for function ___flmul
  4412  0155                     ___flmul:	
  4413                           
  4414                           ;incstack = 0
  4415                           ; Regs used in ___flmul: [wreg+status,2+status,0+btemp+1+pclath+cstack]
  4416  0155  1283               	bcf	3,5	;RP0=0, select bank0
  4417  0156  1303               	bcf	3,6	;RP1=0, select bank0
  4418  0157  0823               	movf	___flmul@b+3,w
  4419  0158  3980               	andlw	128
  4420  0159  00A8               	movwf	??___flmul
  4421  015A  0828               	movf	??___flmul,w
  4422  015B  00AD               	movwf	___flmul@sign
  4423  015C  0823               	movf	___flmul@b+3,w
  4424  015D  00A8               	movwf	??___flmul
  4425  015E  0728               	addwf	??___flmul,w
  4426  015F  00A9               	movwf	??___flmul+1
  4427  0160  0829               	movf	??___flmul+1,w
  4428  0161  00B3               	movwf	___flmul@bexp
  4429  0162  1BA2               	btfsc	___flmul@b+2,7
  4430  0163  1433               	bsf	___flmul@bexp,0
  4431  0164  0833               	movf	___flmul@bexp,w
  4432  0165  1903               	btfsc	3,2
  4433  0166  2974               	goto	l2209
  4434  0167  0A33               	incf	___flmul@bexp,w
  4435  0168  1D03               	btfss	3,2
  4436  0169  2972               	goto	l2207
  4437  016A  3000               	movlw	0
  4438  016B  00A3               	movwf	___flmul@b+3
  4439  016C  3000               	movlw	0
  4440  016D  00A2               	movwf	___flmul@b+2
  4441  016E  3000               	movlw	0
  4442  016F  00A1               	movwf	___flmul@b+1
  4443  0170  3000               	movlw	0
  4444  0171  00A0               	movwf	___flmul@b
  4445  0172                     l2207:	
  4446  0172  17A2               	bsf	___flmul@b+2,7
  4447  0173  297C               	goto	l2211
  4448  0174                     l2209:	
  4449  0174  3000               	movlw	0
  4450  0175  00A3               	movwf	___flmul@b+3
  4451  0176  3000               	movlw	0
  4452  0177  00A2               	movwf	___flmul@b+2
  4453  0178  3000               	movlw	0
  4454  0179  00A1               	movwf	___flmul@b+1
  4455  017A  3000               	movlw	0
  4456  017B  00A0               	movwf	___flmul@b
  4457  017C                     l2211:	
  4458  017C  0827               	movf	___flmul@a+3,w
  4459  017D  3980               	andlw	128
  4460  017E  00A8               	movwf	??___flmul
  4461  017F  0828               	movf	??___flmul,w
  4462  0180  06AD               	xorwf	___flmul@sign,f
  4463  0181  0827               	movf	___flmul@a+3,w
  4464  0182  00A8               	movwf	??___flmul
  4465  0183  0728               	addwf	??___flmul,w
  4466  0184  00A9               	movwf	??___flmul+1
  4467  0185  0829               	movf	??___flmul+1,w
  4468  0186  00B2               	movwf	___flmul@aexp
  4469  0187  1BA6               	btfsc	___flmul@a+2,7
  4470  0188  1432               	bsf	___flmul@aexp,0
  4471  0189  0832               	movf	___flmul@aexp,w
  4472  018A  1903               	btfsc	3,2
  4473  018B  2999               	goto	l2227
  4474  018C  0A32               	incf	___flmul@aexp,w
  4475  018D  1D03               	btfss	3,2
  4476  018E  2997               	goto	l2225
  4477  018F  3000               	movlw	0
  4478  0190  00A7               	movwf	___flmul@a+3
  4479  0191  3000               	movlw	0
  4480  0192  00A6               	movwf	___flmul@a+2
  4481  0193  3000               	movlw	0
  4482  0194  00A5               	movwf	___flmul@a+1
  4483  0195  3000               	movlw	0
  4484  0196  00A4               	movwf	___flmul@a
  4485  0197                     l2225:	
  4486  0197  17A6               	bsf	___flmul@a+2,7
  4487  0198  29A1               	goto	l2229
  4488  0199                     l2227:	
  4489  0199  3000               	movlw	0
  4490  019A  00A7               	movwf	___flmul@a+3
  4491  019B  3000               	movlw	0
  4492  019C  00A6               	movwf	___flmul@a+2
  4493  019D  3000               	movlw	0
  4494  019E  00A5               	movwf	___flmul@a+1
  4495  019F  3000               	movlw	0
  4496  01A0  00A4               	movwf	___flmul@a
  4497  01A1                     l2229:	
  4498  01A1  0832               	movf	___flmul@aexp,w
  4499  01A2  1D03               	btfss	3,2
  4500  01A3  0833               	movf	___flmul@bexp,w
  4501  01A4  1D03               	btfss	3,2
  4502  01A5  29AF               	goto	l2237
  4503  01A6  3000               	movlw	0
  4504  01A7  00A3               	movwf	?___flmul+3
  4505  01A8  3000               	movlw	0
  4506  01A9  00A2               	movwf	?___flmul+2
  4507  01AA  3000               	movlw	0
  4508  01AB  00A1               	movwf	?___flmul+1
  4509  01AC  3000               	movlw	0
  4510  01AD  00A0               	movwf	?___flmul
  4511  01AE  0008               	return
  4512  01AF                     l2237:	
  4513  01AF  0820               	movf	___flmul@b,w
  4514  01B0  00A8               	movwf	??___flmul
  4515  01B1  0828               	movf	??___flmul,w
  4516  01B2  00F0               	movwf	__Umul8_16@multiplicand
  4517  01B3  0826               	movf	___flmul@a+2,w
  4518  01B4  120A  158A  2241  120A  118A  	fcall	__Umul8_16
  4519  01B9  0871               	movf	?__Umul8_16+1,w
  4520  01BA  1283               	bcf	3,5	;RP0=0, select bank0
  4521  01BB  1303               	bcf	3,6	;RP1=0, select bank0
  4522  01BC  00B9               	movwf	___flmul@temp+1
  4523  01BD  0870               	movf	?__Umul8_16,w
  4524  01BE  00B8               	movwf	___flmul@temp
  4525  01BF  0838               	movf	___flmul@temp,w
  4526  01C0  00A8               	movwf	??___flmul
  4527  01C1  01A9               	clrf	??___flmul+1
  4528  01C2  01AA               	clrf	??___flmul+2
  4529  01C3  01AB               	clrf	??___flmul+3
  4530  01C4  082B               	movf	??___flmul+3,w
  4531  01C5  00B1               	movwf	___flmul@grs+3
  4532  01C6  082A               	movf	??___flmul+2,w
  4533  01C7  00B0               	movwf	___flmul@grs+2
  4534  01C8  0829               	movf	??___flmul+1,w
  4535  01C9  00AF               	movwf	___flmul@grs+1
  4536  01CA  0828               	movf	??___flmul,w
  4537  01CB  00AE               	movwf	___flmul@grs
  4538  01CC  0839               	movf	___flmul@temp+1,w
  4539  01CD  00A8               	movwf	??___flmul
  4540  01CE  01A9               	clrf	??___flmul+1
  4541  01CF  01AA               	clrf	??___flmul+2
  4542  01D0  01AB               	clrf	??___flmul+3
  4543  01D1  082B               	movf	??___flmul+3,w
  4544  01D2  00B7               	movwf	___flmul@prod+3
  4545  01D3  082A               	movf	??___flmul+2,w
  4546  01D4  00B6               	movwf	___flmul@prod+2
  4547  01D5  0829               	movf	??___flmul+1,w
  4548  01D6  00B5               	movwf	___flmul@prod+1
  4549  01D7  0828               	movf	??___flmul,w
  4550  01D8  00B4               	movwf	___flmul@prod
  4551  01D9  0821               	movf	___flmul@b+1,w
  4552  01DA  00A8               	movwf	??___flmul
  4553  01DB  0828               	movf	??___flmul,w
  4554  01DC  00F0               	movwf	__Umul8_16@multiplicand
  4555  01DD  0825               	movf	___flmul@a+1,w
  4556  01DE  120A  158A  2241  120A  118A  	fcall	__Umul8_16
  4557  01E3  0871               	movf	?__Umul8_16+1,w
  4558  01E4  1283               	bcf	3,5	;RP0=0, select bank0
  4559  01E5  1303               	bcf	3,6	;RP1=0, select bank0
  4560  01E6  00B9               	movwf	___flmul@temp+1
  4561  01E7  0870               	movf	?__Umul8_16,w
  4562  01E8  00B8               	movwf	___flmul@temp
  4563  01E9  0838               	movf	___flmul@temp,w
  4564  01EA  00A8               	movwf	??___flmul
  4565  01EB  01A9               	clrf	??___flmul+1
  4566  01EC  01AA               	clrf	??___flmul+2
  4567  01ED  01AB               	clrf	??___flmul+3
  4568  01EE  0828               	movf	??___flmul,w
  4569  01EF  07AE               	addwf	___flmul@grs,f
  4570  01F0  0829               	movf	??___flmul+1,w
  4571  01F1  1103               	clrz
  4572  01F2  1803               	skipnc
  4573  01F3  3E01               	addlw	1
  4574  01F4  1D03               	btfss	3,2
  4575  01F5  07AF               	addwf	___flmul@grs+1,f
  4576  01F6  082A               	movf	??___flmul+2,w
  4577  01F7  1103               	clrz
  4578  01F8  1803               	skipnc
  4579  01F9  3E01               	addlw	1
  4580  01FA  1D03               	btfss	3,2
  4581  01FB  07B0               	addwf	___flmul@grs+2,f
  4582  01FC  082B               	movf	??___flmul+3,w
  4583  01FD  1103               	clrz
  4584  01FE  1803               	skipnc
  4585  01FF  3E01               	addlw	1
  4586  0200  1D03               	btfss	3,2
  4587  0201  07B1               	addwf	___flmul@grs+3,f
  4588  0202  0839               	movf	___flmul@temp+1,w
  4589  0203  00A8               	movwf	??___flmul
  4590  0204  01A9               	clrf	??___flmul+1
  4591  0205  01AA               	clrf	??___flmul+2
  4592  0206  01AB               	clrf	??___flmul+3
  4593  0207  0828               	movf	??___flmul,w
  4594  0208  07B4               	addwf	___flmul@prod,f
  4595  0209  0829               	movf	??___flmul+1,w
  4596  020A  1103               	clrz
  4597  020B  1803               	skipnc
  4598  020C  3E01               	addlw	1
  4599  020D  1D03               	btfss	3,2
  4600  020E  07B5               	addwf	___flmul@prod+1,f
  4601  020F  082A               	movf	??___flmul+2,w
  4602  0210  1103               	clrz
  4603  0211  1803               	skipnc
  4604  0212  3E01               	addlw	1
  4605  0213  1D03               	btfss	3,2
  4606  0214  07B6               	addwf	___flmul@prod+2,f
  4607  0215  082B               	movf	??___flmul+3,w
  4608  0216  1103               	clrz
  4609  0217  1803               	skipnc
  4610  0218  3E01               	addlw	1
  4611  0219  1D03               	btfss	3,2
  4612  021A  07B7               	addwf	___flmul@prod+3,f
  4613  021B  0822               	movf	___flmul@b+2,w
  4614  021C  00A8               	movwf	??___flmul
  4615  021D  0828               	movf	??___flmul,w
  4616  021E  00F0               	movwf	__Umul8_16@multiplicand
  4617  021F  0824               	movf	___flmul@a,w
  4618  0220  120A  158A  2241  120A  118A  	fcall	__Umul8_16
  4619  0225  0871               	movf	?__Umul8_16+1,w
  4620  0226  1283               	bcf	3,5	;RP0=0, select bank0
  4621  0227  1303               	bcf	3,6	;RP1=0, select bank0
  4622  0228  00B9               	movwf	___flmul@temp+1
  4623  0229  0870               	movf	?__Umul8_16,w
  4624  022A  00B8               	movwf	___flmul@temp
  4625  022B  0838               	movf	___flmul@temp,w
  4626  022C  00A8               	movwf	??___flmul
  4627  022D  01A9               	clrf	??___flmul+1
  4628  022E  01AA               	clrf	??___flmul+2
  4629  022F  01AB               	clrf	??___flmul+3
  4630  0230  0828               	movf	??___flmul,w
  4631  0231  07AE               	addwf	___flmul@grs,f
  4632  0232  0829               	movf	??___flmul+1,w
  4633  0233  1103               	clrz
  4634  0234  1803               	skipnc
  4635  0235  3E01               	addlw	1
  4636  0236  1D03               	btfss	3,2
  4637  0237  07AF               	addwf	___flmul@grs+1,f
  4638  0238  082A               	movf	??___flmul+2,w
  4639  0239  1103               	clrz
  4640  023A  1803               	skipnc
  4641  023B  3E01               	addlw	1
  4642  023C  1D03               	btfss	3,2
  4643  023D  07B0               	addwf	___flmul@grs+2,f
  4644  023E  082B               	movf	??___flmul+3,w
  4645  023F  1103               	clrz
  4646  0240  1803               	skipnc
  4647  0241  3E01               	addlw	1
  4648  0242  1D03               	btfss	3,2
  4649  0243  07B1               	addwf	___flmul@grs+3,f
  4650  0244  0839               	movf	___flmul@temp+1,w
  4651  0245  00A8               	movwf	??___flmul
  4652  0246  01A9               	clrf	??___flmul+1
  4653  0247  01AA               	clrf	??___flmul+2
  4654  0248  01AB               	clrf	??___flmul+3
  4655  0249  0828               	movf	??___flmul,w
  4656  024A  07B4               	addwf	___flmul@prod,f
  4657  024B  0829               	movf	??___flmul+1,w
  4658  024C  1103               	clrz
  4659  024D  1803               	skipnc
  4660  024E  3E01               	addlw	1
  4661  024F  1D03               	btfss	3,2
  4662  0250  07B5               	addwf	___flmul@prod+1,f
  4663  0251  082A               	movf	??___flmul+2,w
  4664  0252  1103               	clrz
  4665  0253  1803               	skipnc
  4666  0254  3E01               	addlw	1
  4667  0255  1D03               	btfss	3,2
  4668  0256  07B6               	addwf	___flmul@prod+2,f
  4669  0257  082B               	movf	??___flmul+3,w
  4670  0258  1103               	clrz
  4671  0259  1803               	skipnc
  4672  025A  3E01               	addlw	1
  4673  025B  1D03               	btfss	3,2
  4674  025C  07B7               	addwf	___flmul@prod+3,f
  4675  025D  3008               	movlw	8
  4676  025E  00A8               	movwf	??___flmul
  4677  025F                     u2775:	
  4678  025F  1003               	clrc
  4679  0260  0DAE               	rlf	___flmul@grs,f
  4680  0261  0DAF               	rlf	___flmul@grs+1,f
  4681  0262  0DB0               	rlf	___flmul@grs+2,f
  4682  0263  0DB1               	rlf	___flmul@grs+3,f
  4683  0264  0BA8               	decfsz	??___flmul,f
  4684  0265  2A5F               	goto	u2775
  4685  0266  0821               	movf	___flmul@b+1,w
  4686  0267  00A8               	movwf	??___flmul
  4687  0268  0828               	movf	??___flmul,w
  4688  0269  00F0               	movwf	__Umul8_16@multiplicand
  4689  026A  0824               	movf	___flmul@a,w
  4690  026B  120A  158A  2241  120A  118A  	fcall	__Umul8_16
  4691  0270  0871               	movf	?__Umul8_16+1,w
  4692  0271  1283               	bcf	3,5	;RP0=0, select bank0
  4693  0272  1303               	bcf	3,6	;RP1=0, select bank0
  4694  0273  00B9               	movwf	___flmul@temp+1
  4695  0274  0870               	movf	?__Umul8_16,w
  4696  0275  00B8               	movwf	___flmul@temp
  4697  0276  0838               	movf	___flmul@temp,w
  4698  0277  00A8               	movwf	??___flmul
  4699  0278  0839               	movf	___flmul@temp+1,w
  4700  0279  00A9               	movwf	??___flmul+1
  4701  027A  01AA               	clrf	??___flmul+2
  4702  027B  01AB               	clrf	??___flmul+3
  4703  027C  0828               	movf	??___flmul,w
  4704  027D  07AE               	addwf	___flmul@grs,f
  4705  027E  0829               	movf	??___flmul+1,w
  4706  027F  1103               	clrz
  4707  0280  1803               	skipnc
  4708  0281  3E01               	addlw	1
  4709  0282  1D03               	btfss	3,2
  4710  0283  07AF               	addwf	___flmul@grs+1,f
  4711  0284  082A               	movf	??___flmul+2,w
  4712  0285  1103               	clrz
  4713  0286  1803               	skipnc
  4714  0287  3E01               	addlw	1
  4715  0288  1D03               	btfss	3,2
  4716  0289  07B0               	addwf	___flmul@grs+2,f
  4717  028A  082B               	movf	??___flmul+3,w
  4718  028B  1103               	clrz
  4719  028C  1803               	skipnc
  4720  028D  3E01               	addlw	1
  4721  028E  1D03               	btfss	3,2
  4722  028F  07B1               	addwf	___flmul@grs+3,f
  4723  0290  0820               	movf	___flmul@b,w
  4724  0291  00A8               	movwf	??___flmul
  4725  0292  0828               	movf	??___flmul,w
  4726  0293  00F0               	movwf	__Umul8_16@multiplicand
  4727  0294  0825               	movf	___flmul@a+1,w
  4728  0295  120A  158A  2241  120A  118A  	fcall	__Umul8_16
  4729  029A  0871               	movf	?__Umul8_16+1,w
  4730  029B  1283               	bcf	3,5	;RP0=0, select bank0
  4731  029C  1303               	bcf	3,6	;RP1=0, select bank0
  4732  029D  00B9               	movwf	___flmul@temp+1
  4733  029E  0870               	movf	?__Umul8_16,w
  4734  029F  00B8               	movwf	___flmul@temp
  4735  02A0  0838               	movf	___flmul@temp,w
  4736  02A1  00A8               	movwf	??___flmul
  4737  02A2  0839               	movf	___flmul@temp+1,w
  4738  02A3  00A9               	movwf	??___flmul+1
  4739  02A4  01AA               	clrf	??___flmul+2
  4740  02A5  01AB               	clrf	??___flmul+3
  4741  02A6  0828               	movf	??___flmul,w
  4742  02A7  07AE               	addwf	___flmul@grs,f
  4743  02A8  0829               	movf	??___flmul+1,w
  4744  02A9  1103               	clrz
  4745  02AA  1803               	skipnc
  4746  02AB  3E01               	addlw	1
  4747  02AC  1D03               	btfss	3,2
  4748  02AD  07AF               	addwf	___flmul@grs+1,f
  4749  02AE  082A               	movf	??___flmul+2,w
  4750  02AF  1103               	clrz
  4751  02B0  1803               	skipnc
  4752  02B1  3E01               	addlw	1
  4753  02B2  1D03               	btfss	3,2
  4754  02B3  07B0               	addwf	___flmul@grs+2,f
  4755  02B4  082B               	movf	??___flmul+3,w
  4756  02B5  1103               	clrz
  4757  02B6  1803               	skipnc
  4758  02B7  3E01               	addlw	1
  4759  02B8  1D03               	btfss	3,2
  4760  02B9  07B1               	addwf	___flmul@grs+3,f
  4761  02BA  3008               	movlw	8
  4762  02BB  00A8               	movwf	??___flmul
  4763  02BC                     u2805:	
  4764  02BC  1003               	clrc
  4765  02BD  0DAE               	rlf	___flmul@grs,f
  4766  02BE  0DAF               	rlf	___flmul@grs+1,f
  4767  02BF  0DB0               	rlf	___flmul@grs+2,f
  4768  02C0  0DB1               	rlf	___flmul@grs+3,f
  4769  02C1  0BA8               	decfsz	??___flmul,f
  4770  02C2  2ABC               	goto	u2805
  4771  02C3  0820               	movf	___flmul@b,w
  4772  02C4  00A8               	movwf	??___flmul
  4773  02C5  0828               	movf	??___flmul,w
  4774  02C6  00F0               	movwf	__Umul8_16@multiplicand
  4775  02C7  0824               	movf	___flmul@a,w
  4776  02C8  120A  158A  2241  120A  118A  	fcall	__Umul8_16
  4777  02CD  0871               	movf	?__Umul8_16+1,w
  4778  02CE  1283               	bcf	3,5	;RP0=0, select bank0
  4779  02CF  1303               	bcf	3,6	;RP1=0, select bank0
  4780  02D0  00B9               	movwf	___flmul@temp+1
  4781  02D1  0870               	movf	?__Umul8_16,w
  4782  02D2  00B8               	movwf	___flmul@temp
  4783  02D3  0838               	movf	___flmul@temp,w
  4784  02D4  00A8               	movwf	??___flmul
  4785  02D5  0839               	movf	___flmul@temp+1,w
  4786  02D6  00A9               	movwf	??___flmul+1
  4787  02D7  01AA               	clrf	??___flmul+2
  4788  02D8  01AB               	clrf	??___flmul+3
  4789  02D9  0828               	movf	??___flmul,w
  4790  02DA  07AE               	addwf	___flmul@grs,f
  4791  02DB  0829               	movf	??___flmul+1,w
  4792  02DC  1103               	clrz
  4793  02DD  1803               	skipnc
  4794  02DE  3E01               	addlw	1
  4795  02DF  1D03               	btfss	3,2
  4796  02E0  07AF               	addwf	___flmul@grs+1,f
  4797  02E1  082A               	movf	??___flmul+2,w
  4798  02E2  1103               	clrz
  4799  02E3  1803               	skipnc
  4800  02E4  3E01               	addlw	1
  4801  02E5  1D03               	btfss	3,2
  4802  02E6  07B0               	addwf	___flmul@grs+2,f
  4803  02E7  082B               	movf	??___flmul+3,w
  4804  02E8  1103               	clrz
  4805  02E9  1803               	skipnc
  4806  02EA  3E01               	addlw	1
  4807  02EB  1D03               	btfss	3,2
  4808  02EC  07B1               	addwf	___flmul@grs+3,f
  4809  02ED  0821               	movf	___flmul@b+1,w
  4810  02EE  00A8               	movwf	??___flmul
  4811  02EF  0828               	movf	??___flmul,w
  4812  02F0  00F0               	movwf	__Umul8_16@multiplicand
  4813  02F1  0826               	movf	___flmul@a+2,w
  4814  02F2  120A  158A  2241  120A  118A  	fcall	__Umul8_16
  4815  02F7  0871               	movf	?__Umul8_16+1,w
  4816  02F8  1283               	bcf	3,5	;RP0=0, select bank0
  4817  02F9  1303               	bcf	3,6	;RP1=0, select bank0
  4818  02FA  00B9               	movwf	___flmul@temp+1
  4819  02FB  0870               	movf	?__Umul8_16,w
  4820  02FC  00B8               	movwf	___flmul@temp
  4821  02FD  0838               	movf	___flmul@temp,w
  4822  02FE  00A8               	movwf	??___flmul
  4823  02FF  0839               	movf	___flmul@temp+1,w
  4824  0300  00A9               	movwf	??___flmul+1
  4825  0301  01AA               	clrf	??___flmul+2
  4826  0302  01AB               	clrf	??___flmul+3
  4827  0303  0828               	movf	??___flmul,w
  4828  0304  07B4               	addwf	___flmul@prod,f
  4829  0305  0829               	movf	??___flmul+1,w
  4830  0306  1103               	clrz
  4831  0307  1803               	skipnc
  4832  0308  3E01               	addlw	1
  4833  0309  1D03               	btfss	3,2
  4834  030A  07B5               	addwf	___flmul@prod+1,f
  4835  030B  082A               	movf	??___flmul+2,w
  4836  030C  1103               	clrz
  4837  030D  1803               	skipnc
  4838  030E  3E01               	addlw	1
  4839  030F  1D03               	btfss	3,2
  4840  0310  07B6               	addwf	___flmul@prod+2,f
  4841  0311  082B               	movf	??___flmul+3,w
  4842  0312  1103               	clrz
  4843  0313  1803               	skipnc
  4844  0314  3E01               	addlw	1
  4845  0315  1D03               	btfss	3,2
  4846  0316  07B7               	addwf	___flmul@prod+3,f
  4847  0317  0822               	movf	___flmul@b+2,w
  4848  0318  00A8               	movwf	??___flmul
  4849  0319  0828               	movf	??___flmul,w
  4850  031A  00F0               	movwf	__Umul8_16@multiplicand
  4851  031B  0825               	movf	___flmul@a+1,w
  4852  031C  120A  158A  2241  120A  118A  	fcall	__Umul8_16
  4853  0321  0871               	movf	?__Umul8_16+1,w
  4854  0322  1283               	bcf	3,5	;RP0=0, select bank0
  4855  0323  1303               	bcf	3,6	;RP1=0, select bank0
  4856  0324  00B9               	movwf	___flmul@temp+1
  4857  0325  0870               	movf	?__Umul8_16,w
  4858  0326  00B8               	movwf	___flmul@temp
  4859  0327  0838               	movf	___flmul@temp,w
  4860  0328  00A8               	movwf	??___flmul
  4861  0329  0839               	movf	___flmul@temp+1,w
  4862  032A  00A9               	movwf	??___flmul+1
  4863  032B  01AA               	clrf	??___flmul+2
  4864  032C  01AB               	clrf	??___flmul+3
  4865  032D  0828               	movf	??___flmul,w
  4866  032E  07B4               	addwf	___flmul@prod,f
  4867  032F  0829               	movf	??___flmul+1,w
  4868  0330  1103               	clrz
  4869  0331  1803               	skipnc
  4870  0332  3E01               	addlw	1
  4871  0333  1D03               	btfss	3,2
  4872  0334  07B5               	addwf	___flmul@prod+1,f
  4873  0335  082A               	movf	??___flmul+2,w
  4874  0336  1103               	clrz
  4875  0337  1803               	skipnc
  4876  0338  3E01               	addlw	1
  4877  0339  1D03               	btfss	3,2
  4878  033A  07B6               	addwf	___flmul@prod+2,f
  4879  033B  082B               	movf	??___flmul+3,w
  4880  033C  1103               	clrz
  4881  033D  1803               	skipnc
  4882  033E  3E01               	addlw	1
  4883  033F  1D03               	btfss	3,2
  4884  0340  07B7               	addwf	___flmul@prod+3,f
  4885  0341  0822               	movf	___flmul@b+2,w
  4886  0342  00A8               	movwf	??___flmul
  4887  0343  0828               	movf	??___flmul,w
  4888  0344  00F0               	movwf	__Umul8_16@multiplicand
  4889  0345  0826               	movf	___flmul@a+2,w
  4890  0346  120A  158A  2241  120A  118A  	fcall	__Umul8_16
  4891  034B  0871               	movf	?__Umul8_16+1,w
  4892  034C  1283               	bcf	3,5	;RP0=0, select bank0
  4893  034D  1303               	bcf	3,6	;RP1=0, select bank0
  4894  034E  00B9               	movwf	___flmul@temp+1
  4895  034F  0870               	movf	?__Umul8_16,w
  4896  0350  00B8               	movwf	___flmul@temp
  4897  0351  0838               	movf	___flmul@temp,w
  4898  0352  00A8               	movwf	??___flmul
  4899  0353  0839               	movf	___flmul@temp+1,w
  4900  0354  00A9               	movwf	??___flmul+1
  4901  0355  01AA               	clrf	??___flmul+2
  4902  0356  01AB               	clrf	??___flmul+3
  4903  0357  3008               	movlw	8
  4904  0358                     u2845:	
  4905  0358  1003               	clrc
  4906  0359  0DA8               	rlf	??___flmul,f
  4907  035A  0DA9               	rlf	??___flmul+1,f
  4908  035B  0DAA               	rlf	??___flmul+2,f
  4909  035C  0DAB               	rlf	??___flmul+3,f
  4910  035D  3EFF               	addlw	-1
  4911  035E  1D03               	skipz
  4912  035F  2B58               	goto	u2845
  4913  0360  0828               	movf	??___flmul,w
  4914  0361  07B4               	addwf	___flmul@prod,f
  4915  0362  0829               	movf	??___flmul+1,w
  4916  0363  1103               	clrz
  4917  0364  1803               	skipnc
  4918  0365  3E01               	addlw	1
  4919  0366  1D03               	btfss	3,2
  4920  0367  07B5               	addwf	___flmul@prod+1,f
  4921  0368  082A               	movf	??___flmul+2,w
  4922  0369  1103               	clrz
  4923  036A  1803               	skipnc
  4924  036B  3E01               	addlw	1
  4925  036C  1D03               	btfss	3,2
  4926  036D  07B6               	addwf	___flmul@prod+2,f
  4927  036E  082B               	movf	??___flmul+3,w
  4928  036F  1103               	clrz
  4929  0370  1803               	skipnc
  4930  0371  3E01               	addlw	1
  4931  0372  1D03               	btfss	3,2
  4932  0373  07B7               	addwf	___flmul@prod+3,f
  4933  0374  082E               	movf	___flmul@grs,w
  4934  0375  00A8               	movwf	??___flmul
  4935  0376  082F               	movf	___flmul@grs+1,w
  4936  0377  00A9               	movwf	??___flmul+1
  4937  0378  0830               	movf	___flmul@grs+2,w
  4938  0379  00AA               	movwf	??___flmul+2
  4939  037A  0831               	movf	___flmul@grs+3,w
  4940  037B  00AB               	movwf	??___flmul+3
  4941  037C  3018               	movlw	24
  4942  037D                     u2865:	
  4943  037D  1003               	clrc
  4944  037E  0CAB               	rrf	??___flmul+3,f
  4945  037F  0CAA               	rrf	??___flmul+2,f
  4946  0380  0CA9               	rrf	??___flmul+1,f
  4947  0381  0CA8               	rrf	??___flmul,f
  4948  0382  3EFF               	addlw	-1
  4949  0383  1D03               	skipz
  4950  0384  2B7D               	goto	u2865
  4951  0385  0828               	movf	??___flmul,w
  4952  0386  07B4               	addwf	___flmul@prod,f
  4953  0387  0829               	movf	??___flmul+1,w
  4954  0388  1103               	clrz
  4955  0389  1803               	skipnc
  4956  038A  3E01               	addlw	1
  4957  038B  1D03               	btfss	3,2
  4958  038C  07B5               	addwf	___flmul@prod+1,f
  4959  038D  082A               	movf	??___flmul+2,w
  4960  038E  1103               	clrz
  4961  038F  1803               	skipnc
  4962  0390  3E01               	addlw	1
  4963  0391  1D03               	btfss	3,2
  4964  0392  07B6               	addwf	___flmul@prod+2,f
  4965  0393  082B               	movf	??___flmul+3,w
  4966  0394  1103               	clrz
  4967  0395  1803               	skipnc
  4968  0396  3E01               	addlw	1
  4969  0397  1D03               	btfss	3,2
  4970  0398  07B7               	addwf	___flmul@prod+3,f
  4971  0399  3008               	movlw	8
  4972  039A  00A8               	movwf	??___flmul
  4973  039B                     u2885:	
  4974  039B  1003               	clrc
  4975  039C  0DAE               	rlf	___flmul@grs,f
  4976  039D  0DAF               	rlf	___flmul@grs+1,f
  4977  039E  0DB0               	rlf	___flmul@grs+2,f
  4978  039F  0DB1               	rlf	___flmul@grs+3,f
  4979  03A0  0BA8               	decfsz	??___flmul,f
  4980  03A1  2B9B               	goto	u2885
  4981  03A2  0833               	movf	___flmul@bexp,w
  4982  03A3  0732               	addwf	___flmul@aexp,w
  4983  03A4  00A8               	movwf	??___flmul
  4984  03A5  01A9               	clrf	??___flmul+1
  4985  03A6  0DA9               	rlf	??___flmul+1,f
  4986  03A7  0828               	movf	??___flmul,w
  4987  03A8  3E82               	addlw	130
  4988  03A9  00B8               	movwf	___flmul@temp
  4989  03AA  0829               	movf	??___flmul+1,w
  4990  03AB  1803               	skipnc
  4991  03AC  3E01               	addlw	1
  4992  03AD  3EFF               	addlw	255
  4993  03AE  00B9               	movwf	___flmul@temp+1
  4994  03AF                     l2289:	
  4995  03AF  1BB6               	btfsc	___flmul@prod+2,7
  4996  03B0  2BCC               	goto	l2291
  4997  03B1  3001               	movlw	1
  4998  03B2  00A8               	movwf	??___flmul
  4999  03B3                     u2895:	
  5000  03B3  1003               	clrc
  5001  03B4  0DB4               	rlf	___flmul@prod,f
  5002  03B5  0DB5               	rlf	___flmul@prod+1,f
  5003  03B6  0DB6               	rlf	___flmul@prod+2,f
  5004  03B7  0DB7               	rlf	___flmul@prod+3,f
  5005  03B8  0BA8               	decfsz	??___flmul,f
  5006  03B9  2BB3               	goto	u2895
  5007  03BA  1BB1               	btfsc	___flmul@grs+3,7
  5008  03BB  1434               	bsf	___flmul@prod,0
  5009  03BC  3001               	movlw	1
  5010  03BD  00A8               	movwf	??___flmul
  5011  03BE                     u2915:	
  5012  03BE  1003               	clrc
  5013  03BF  0DAE               	rlf	___flmul@grs,f
  5014  03C0  0DAF               	rlf	___flmul@grs+1,f
  5015  03C1  0DB0               	rlf	___flmul@grs+2,f
  5016  03C2  0DB1               	rlf	___flmul@grs+3,f
  5017  03C3  0BA8               	decfsz	??___flmul,f
  5018  03C4  2BBE               	goto	u2915
  5019  03C5  30FF               	movlw	255
  5020  03C6  07B8               	addwf	___flmul@temp,f
  5021  03C7  1803               	skipnc
  5022  03C8  0AB9               	incf	___flmul@temp+1,f
  5023  03C9  30FF               	movlw	255
  5024  03CA  07B9               	addwf	___flmul@temp+1,f
  5025  03CB  2BAF               	goto	l2289
  5026  03CC                     l2291:	
  5027  03CC  01B2               	clrf	___flmul@aexp
  5028  03CD  1FB1               	btfss	___flmul@grs+3,7
  5029  03CE  2BE5               	goto	l2301
  5030  03CF  30FF               	movlw	255
  5031  03D0  052E               	andwf	___flmul@grs,w
  5032  03D1  00A8               	movwf	??___flmul
  5033  03D2  30FF               	movlw	255
  5034  03D3  052F               	andwf	___flmul@grs+1,w
  5035  03D4  00A9               	movwf	??___flmul+1
  5036  03D5  30FF               	movlw	255
  5037  03D6  0530               	andwf	___flmul@grs+2,w
  5038  03D7  00AA               	movwf	??___flmul+2
  5039  03D8  307F               	movlw	127
  5040  03D9  0531               	andwf	___flmul@grs+3,w
  5041  03DA  00AB               	movwf	??___flmul+3
  5042  03DB  082B               	movf	??___flmul+3,w
  5043  03DC  042A               	iorwf	??___flmul+2,w
  5044  03DD  0429               	iorwf	??___flmul+1,w
  5045  03DE  0428               	iorwf	??___flmul,w
  5046  03DF  1903               	skipnz
  5047  03E0  1834               	btfsc	___flmul@prod,0
  5048  03E1  2BE3               	goto	l2297
  5049  03E2  2BE5               	goto	l2301
  5050  03E3                     l2297:	
  5051  03E3  01B2               	clrf	___flmul@aexp
  5052  03E4  0AB2               	incf	___flmul@aexp,f
  5053  03E5                     l2301:	
  5054  03E5  0832               	movf	___flmul@aexp,w
  5055  03E6  1903               	btfsc	3,2
  5056  03E7  2C17               	goto	l2311
  5057  03E8  3001               	movlw	1
  5058  03E9  07B4               	addwf	___flmul@prod,f
  5059  03EA  3000               	movlw	0
  5060  03EB  1803               	skipnc
  5061  03EC  3001               	movlw	1
  5062  03ED  07B5               	addwf	___flmul@prod+1,f
  5063  03EE  3000               	movlw	0
  5064  03EF  1803               	skipnc
  5065  03F0  3001               	movlw	1
  5066  03F1  07B6               	addwf	___flmul@prod+2,f
  5067  03F2  3000               	movlw	0
  5068  03F3  1803               	skipnc
  5069  03F4  3001               	movlw	1
  5070  03F5  07B7               	addwf	___flmul@prod+3,f
  5071  03F6  1C37               	btfss	___flmul@prod+3,0
  5072  03F7  2C17               	goto	l2311
  5073  03F8  0834               	movf	___flmul@prod,w
  5074  03F9  00A8               	movwf	??___flmul
  5075  03FA  0835               	movf	___flmul@prod+1,w
  5076  03FB  00A9               	movwf	??___flmul+1
  5077  03FC  0836               	movf	___flmul@prod+2,w
  5078  03FD  00AA               	movwf	??___flmul+2
  5079  03FE  0837               	movf	___flmul@prod+3,w
  5080  03FF  00AB               	movwf	??___flmul+3
  5081  0400  3001               	movlw	1
  5082  0401  00AC               	movwf	??___flmul+4
  5083  0402                     u2985:	
  5084  0402  0D2B               	rlf	??___flmul+3,w
  5085  0403  0CAB               	rrf	??___flmul+3,f
  5086  0404  0CAA               	rrf	??___flmul+2,f
  5087  0405  0CA9               	rrf	??___flmul+1,f
  5088  0406  0CA8               	rrf	??___flmul,f
  5089  0407  0BAC               	decfsz	??___flmul+4,f
  5090  0408  2C02               	goto	u2985
  5091  0409  082B               	movf	??___flmul+3,w
  5092  040A  00B7               	movwf	___flmul@prod+3
  5093  040B  082A               	movf	??___flmul+2,w
  5094  040C  00B6               	movwf	___flmul@prod+2
  5095  040D  0829               	movf	??___flmul+1,w
  5096  040E  00B5               	movwf	___flmul@prod+1
  5097  040F  0828               	movf	??___flmul,w
  5098  0410  00B4               	movwf	___flmul@prod
  5099  0411  3001               	movlw	1
  5100  0412  07B8               	addwf	___flmul@temp,f
  5101  0413  1803               	skipnc
  5102  0414  0AB9               	incf	___flmul@temp+1,f
  5103  0415  3000               	movlw	0
  5104  0416  07B9               	addwf	___flmul@temp+1,f
  5105  0417                     l2311:	
  5106  0417  0839               	movf	___flmul@temp+1,w
  5107  0418  3A80               	xorlw	128
  5108  0419  00FF               	movwf	127
  5109  041A  3080               	movlw	128
  5110  041B  027F               	subwf	127,w
  5111  041C  1D03               	skipz
  5112  041D  2C20               	goto	u2995
  5113  041E  30FF               	movlw	255
  5114  041F  0238               	subwf	___flmul@temp,w
  5115  0420                     u2995:	
  5116  0420  1C03               	skipc
  5117  0421  2C2D               	goto	l2315
  5118  0422  307F               	movlw	127
  5119  0423  1283               	bcf	3,5	;RP0=0, select bank0
  5120  0424  1303               	bcf	3,6	;RP1=0, select bank0
  5121  0425  00B7               	movwf	___flmul@prod+3
  5122  0426  3080               	movlw	128
  5123  0427  00B6               	movwf	___flmul@prod+2
  5124  0428  3000               	movlw	0
  5125  0429  00B5               	movwf	___flmul@prod+1
  5126  042A  3000               	movlw	0
  5127  042B  00B4               	movwf	___flmul@prod
  5128  042C  2C5D               	goto	l658
  5129  042D                     l2315:	
  5130  042D  1283               	bcf	3,5	;RP0=0, select bank0
  5131  042E  1303               	bcf	3,6	;RP1=0, select bank0
  5132  042F  0839               	movf	___flmul@temp+1,w
  5133  0430  3A80               	xorlw	128
  5134  0431  00FF               	movwf	127
  5135  0432  3080               	movlw	128
  5136  0433  027F               	subwf	127,w
  5137  0434  1D03               	skipz
  5138  0435  2C38               	goto	u3005
  5139  0436  3001               	movlw	1
  5140  0437  0238               	subwf	___flmul@temp,w
  5141  0438                     u3005:	
  5142  0438  1803               	skipnc
  5143  0439  2C46               	goto	l2321
  5144  043A  3000               	movlw	0
  5145  043B  1283               	bcf	3,5	;RP0=0, select bank0
  5146  043C  1303               	bcf	3,6	;RP1=0, select bank0
  5147  043D  00B7               	movwf	___flmul@prod+3
  5148  043E  3000               	movlw	0
  5149  043F  00B6               	movwf	___flmul@prod+2
  5150  0440  3000               	movlw	0
  5151  0441  00B5               	movwf	___flmul@prod+1
  5152  0442  3000               	movlw	0
  5153  0443  00B4               	movwf	___flmul@prod
  5154  0444  01AD               	clrf	___flmul@sign
  5155  0445  2C5D               	goto	l658
  5156  0446                     l2321:	
  5157  0446  1283               	bcf	3,5	;RP0=0, select bank0
  5158  0447  1303               	bcf	3,6	;RP1=0, select bank0
  5159  0448  0838               	movf	___flmul@temp,w
  5160  0449  00A8               	movwf	??___flmul
  5161  044A  0828               	movf	??___flmul,w
  5162  044B  00B3               	movwf	___flmul@bexp
  5163  044C  30FF               	movlw	255
  5164  044D  05B4               	andwf	___flmul@prod,f
  5165  044E  30FF               	movlw	255
  5166  044F  05B5               	andwf	___flmul@prod+1,f
  5167  0450  307F               	movlw	127
  5168  0451  05B6               	andwf	___flmul@prod+2,f
  5169  0452  3000               	movlw	0
  5170  0453  05B7               	andwf	___flmul@prod+3,f
  5171  0454  1833               	btfsc	___flmul@bexp,0
  5172  0455  17B6               	bsf	___flmul@prod+2,7
  5173  0456  0833               	movf	___flmul@bexp,w
  5174  0457  00A8               	movwf	??___flmul
  5175  0458  1003               	clrc
  5176  0459  0C28               	rrf	??___flmul,w
  5177  045A  00A9               	movwf	??___flmul+1
  5178  045B  0829               	movf	??___flmul+1,w
  5179  045C  00B7               	movwf	___flmul@prod+3
  5180  045D                     l658:	
  5181  045D  082D               	movf	___flmul@sign,w
  5182  045E  00A8               	movwf	??___flmul
  5183  045F  0828               	movf	??___flmul,w
  5184  0460  04B7               	iorwf	___flmul@prod+3,f
  5185  0461  0837               	movf	___flmul@prod+3,w
  5186  0462  00A3               	movwf	?___flmul+3
  5187  0463  0836               	movf	___flmul@prod+2,w
  5188  0464  00A2               	movwf	?___flmul+2
  5189  0465  0835               	movf	___flmul@prod+1,w
  5190  0466  00A1               	movwf	?___flmul+1
  5191  0467  0834               	movf	___flmul@prod,w
  5192  0468  00A0               	movwf	?___flmul
  5193  0469  0008               	return
  5194  046A                     __end_of___flmul:	
  5195                           
  5196                           	psect	text19
  5197  0A41                     __ptext19:	
  5198 ;; *************** function __Umul8_16 *****************
  5199 ;; Defined at:
  5200 ;;		line 4 in file "C:\Program Files (x86)\Microchip\xc8\v2.05\pic\sources\c90\common\Umul8_16.c"
  5201 ;; Parameters:    Size  Location     Type
  5202 ;;  multiplier      1    wreg     unsigned char 
  5203 ;;  multiplicand    1    0[COMMON] unsigned char 
  5204 ;; Auto vars:     Size  Location     Type
  5205 ;;  multiplier      1    8[COMMON] unsigned char 
  5206 ;;  word_mpld       2    6[COMMON] unsigned int 
  5207 ;;  product         2    4[COMMON] unsigned int 
  5208 ;; Return value:  Size  Location     Type
  5209 ;;                  2    0[COMMON] unsigned int 
  5210 ;; Registers used:
  5211 ;;		wreg, status,2, status,0
  5212 ;; Tracked objects:
  5213 ;;		On entry : 0/0
  5214 ;;		On exit  : 0/0
  5215 ;;		Unchanged: 0/0
  5216 ;; Data sizes:     COMMON   BANK0   BANK1   BANK3   BANK2
  5217 ;;      Params:         2       0       0       0       0
  5218 ;;      Locals:         5       0       0       0       0
  5219 ;;      Temps:          2       0       0       0       0
  5220 ;;      Totals:         9       0       0       0       0
  5221 ;;Total ram usage:        9 bytes
  5222 ;; Hardware stack levels used:    1
  5223 ;; This function calls:
  5224 ;;		Nothing
  5225 ;; This function is called by:
  5226 ;;		___flmul
  5227 ;; This function uses a non-reentrant model
  5228 ;;
  5229                           
  5230                           
  5231                           ;psect for function __Umul8_16
  5232  0A41                     __Umul8_16:	
  5233                           
  5234                           ;incstack = 0
  5235                           ; Regs used in __Umul8_16: [wreg+status,2+status,0]
  5236                           ;__Umul8_16@multiplier stored from wreg
  5237  0A41  00F8               	movwf	__Umul8_16@multiplier
  5238  0A42  01F4               	clrf	__Umul8_16@product
  5239  0A43  01F5               	clrf	__Umul8_16@product+1
  5240  0A44  0870               	movf	__Umul8_16@multiplicand,w
  5241  0A45  00F2               	movwf	??__Umul8_16
  5242  0A46  01F3               	clrf	??__Umul8_16+1
  5243  0A47  0872               	movf	??__Umul8_16,w
  5244  0A48  00F6               	movwf	__Umul8_16@word_mpld
  5245  0A49  0873               	movf	??__Umul8_16+1,w
  5246  0A4A  00F7               	movwf	__Umul8_16@word_mpld+1
  5247  0A4B                     l2005:	
  5248  0A4B  1C78               	btfss	__Umul8_16@multiplier,0
  5249  0A4C  2A53               	goto	l703
  5250  0A4D  0876               	movf	__Umul8_16@word_mpld,w
  5251  0A4E  07F4               	addwf	__Umul8_16@product,f
  5252  0A4F  1803               	skipnc
  5253  0A50  0AF5               	incf	__Umul8_16@product+1,f
  5254  0A51  0877               	movf	__Umul8_16@word_mpld+1,w
  5255  0A52  07F5               	addwf	__Umul8_16@product+1,f
  5256  0A53                     l703:	
  5257  0A53  3001               	movlw	1
  5258  0A54                     u2315:	
  5259  0A54  1003               	clrc
  5260  0A55  0DF6               	rlf	__Umul8_16@word_mpld,f
  5261  0A56  0DF7               	rlf	__Umul8_16@word_mpld+1,f
  5262  0A57  3EFF               	addlw	-1
  5263  0A58  1D03               	skipz
  5264  0A59  2A54               	goto	u2315
  5265  0A5A  1003               	clrc
  5266  0A5B  0CF8               	rrf	__Umul8_16@multiplier,f
  5267  0A5C  0878               	movf	__Umul8_16@multiplier,w
  5268  0A5D  1D03               	btfss	3,2
  5269  0A5E  2A4B               	goto	l2005
  5270  0A5F  0875               	movf	__Umul8_16@product+1,w
  5271  0A60  00F1               	movwf	?__Umul8_16+1
  5272  0A61  0874               	movf	__Umul8_16@product,w
  5273  0A62  00F0               	movwf	?__Umul8_16
  5274  0A63  0008               	return
  5275  0A64                     __end_of__Umul8_16:	
  5276                           
  5277                           	psect	text20
  5278  0C8B                     __ptext20:	
  5279 ;; *************** function ___flge *****************
  5280 ;; Defined at:
  5281 ;;		line 4 in file "C:\Program Files (x86)\Microchip\xc8\v2.05\pic\sources\c90\common\flge.c"
  5282 ;; Parameters:    Size  Location     Type
  5283 ;;  ff1             4    0[COMMON] unsigned int 
  5284 ;;  ff2             4    4[COMMON] unsigned int 
  5285 ;; Auto vars:     Size  Location     Type
  5286 ;;		None
  5287 ;; Return value:  Size  Location     Type
  5288 ;;		None               void
  5289 ;; Registers used:
  5290 ;;		wreg, status,2, status,0
  5291 ;; Tracked objects:
  5292 ;;		On entry : 0/0
  5293 ;;		On exit  : 0/0
  5294 ;;		Unchanged: 0/0
  5295 ;; Data sizes:     COMMON   BANK0   BANK1   BANK3   BANK2
  5296 ;;      Params:         8       0       0       0       0
  5297 ;;      Locals:         0       0       0       0       0
  5298 ;;      Temps:          4       0       0       0       0
  5299 ;;      Totals:        12       0       0       0       0
  5300 ;;Total ram usage:       12 bytes
  5301 ;; Hardware stack levels used:    1
  5302 ;; This function calls:
  5303 ;;		Nothing
  5304 ;; This function is called by:
  5305 ;;		_main
  5306 ;; This function uses a non-reentrant model
  5307 ;;
  5308                           
  5309                           
  5310                           ;psect for function ___flge
  5311  0C8B                     ___flge:	
  5312                           
  5313                           ;incstack = 0
  5314                           ; Regs used in ___flge: [wreg+status,2+status,0]
  5315  0C8B  3000               	movlw	0
  5316  0C8C  0570               	andwf	___flge@ff1,w
  5317  0C8D  00F8               	movwf	??___flge
  5318  0C8E  3000               	movlw	0
  5319  0C8F  0571               	andwf	___flge@ff1+1,w
  5320  0C90  00F9               	movwf	??___flge+1
  5321  0C91  3080               	movlw	128
  5322  0C92  0572               	andwf	___flge@ff1+2,w
  5323  0C93  00FA               	movwf	??___flge+2
  5324  0C94  307F               	movlw	127
  5325  0C95  0573               	andwf	___flge@ff1+3,w
  5326  0C96  00FB               	movwf	??___flge+3
  5327  0C97  087B               	movf	??___flge+3,w
  5328  0C98  047A               	iorwf	??___flge+2,w
  5329  0C99  0479               	iorwf	??___flge+1,w
  5330  0C9A  0478               	iorwf	??___flge,w
  5331  0C9B  1D03               	skipz
  5332  0C9C  2CA5               	goto	l431
  5333  0C9D  3000               	movlw	0
  5334  0C9E  00F3               	movwf	___flge@ff1+3
  5335  0C9F  3000               	movlw	0
  5336  0CA0  00F2               	movwf	___flge@ff1+2
  5337  0CA1  3000               	movlw	0
  5338  0CA2  00F1               	movwf	___flge@ff1+1
  5339  0CA3  3000               	movlw	0
  5340  0CA4  00F0               	movwf	___flge@ff1
  5341  0CA5                     l431:	
  5342  0CA5  3000               	movlw	0
  5343  0CA6  0574               	andwf	___flge@ff2,w
  5344  0CA7  00F8               	movwf	??___flge
  5345  0CA8  3000               	movlw	0
  5346  0CA9  0575               	andwf	___flge@ff2+1,w
  5347  0CAA  00F9               	movwf	??___flge+1
  5348  0CAB  3080               	movlw	128
  5349  0CAC  0576               	andwf	___flge@ff2+2,w
  5350  0CAD  00FA               	movwf	??___flge+2
  5351  0CAE  307F               	movlw	127
  5352  0CAF  0577               	andwf	___flge@ff2+3,w
  5353  0CB0  00FB               	movwf	??___flge+3
  5354  0CB1  087B               	movf	??___flge+3,w
  5355  0CB2  047A               	iorwf	??___flge+2,w
  5356  0CB3  0479               	iorwf	??___flge+1,w
  5357  0CB4  0478               	iorwf	??___flge,w
  5358  0CB5  1D03               	skipz
  5359  0CB6  2CBF               	goto	l2137
  5360  0CB7  3000               	movlw	0
  5361  0CB8  00F7               	movwf	___flge@ff2+3
  5362  0CB9  3000               	movlw	0
  5363  0CBA  00F6               	movwf	___flge@ff2+2
  5364  0CBB  3000               	movlw	0
  5365  0CBC  00F5               	movwf	___flge@ff2+1
  5366  0CBD  3000               	movlw	0
  5367  0CBE  00F4               	movwf	___flge@ff2
  5368  0CBF                     l2137:	
  5369  0CBF  1FF3               	btfss	___flge@ff1+3,7
  5370  0CC0  2CE5               	goto	l2141
  5371  0CC1  3000               	movlw	0
  5372  0CC2  00F8               	movwf	??___flge
  5373  0CC3  3000               	movlw	0
  5374  0CC4  00F9               	movwf	??___flge+1
  5375  0CC5  3000               	movlw	0
  5376  0CC6  00FA               	movwf	??___flge+2
  5377  0CC7  3080               	movlw	128
  5378  0CC8  00FB               	movwf	??___flge+3
  5379  0CC9  0870               	movf	___flge@ff1,w
  5380  0CCA  02F8               	subwf	??___flge,f
  5381  0CCB  0871               	movf	___flge@ff1+1,w
  5382  0CCC  1C03               	skipc
  5383  0CCD  0F71               	incfsz	___flge@ff1+1,w
  5384  0CCE  2CD0               	goto	u2511
  5385  0CCF  2CD1               	goto	u2512
  5386  0CD0                     u2511:	
  5387  0CD0  02F9               	subwf	??___flge+1,f
  5388  0CD1                     u2512:	
  5389  0CD1  0872               	movf	___flge@ff1+2,w
  5390  0CD2  1C03               	skipc
  5391  0CD3  0F72               	incfsz	___flge@ff1+2,w
  5392  0CD4  2CD6               	goto	u2513
  5393  0CD5  2CD7               	goto	u2514
  5394  0CD6                     u2513:	
  5395  0CD6  02FA               	subwf	??___flge+2,f
  5396  0CD7                     u2514:	
  5397  0CD7  0873               	movf	___flge@ff1+3,w
  5398  0CD8  1C03               	skipc
  5399  0CD9  0F73               	incfsz	___flge@ff1+3,w
  5400  0CDA  2CDC               	goto	u2515
  5401  0CDB  2CDD               	goto	u2516
  5402  0CDC                     u2515:	
  5403  0CDC  02FB               	subwf	??___flge+3,f
  5404  0CDD                     u2516:	
  5405  0CDD  087B               	movf	??___flge+3,w
  5406  0CDE  00F3               	movwf	___flge@ff1+3
  5407  0CDF  087A               	movf	??___flge+2,w
  5408  0CE0  00F2               	movwf	___flge@ff1+2
  5409  0CE1  0879               	movf	??___flge+1,w
  5410  0CE2  00F1               	movwf	___flge@ff1+1
  5411  0CE3  0878               	movf	??___flge,w
  5412  0CE4  00F0               	movwf	___flge@ff1
  5413  0CE5                     l2141:	
  5414  0CE5  1FF7               	btfss	___flge@ff2+3,7
  5415  0CE6  2D0B               	goto	l434
  5416  0CE7  3000               	movlw	0
  5417  0CE8  00F8               	movwf	??___flge
  5418  0CE9  3000               	movlw	0
  5419  0CEA  00F9               	movwf	??___flge+1
  5420  0CEB  3000               	movlw	0
  5421  0CEC  00FA               	movwf	??___flge+2
  5422  0CED  3080               	movlw	128
  5423  0CEE  00FB               	movwf	??___flge+3
  5424  0CEF  0874               	movf	___flge@ff2,w
  5425  0CF0  02F8               	subwf	??___flge,f
  5426  0CF1  0875               	movf	___flge@ff2+1,w
  5427  0CF2  1C03               	skipc
  5428  0CF3  0F75               	incfsz	___flge@ff2+1,w
  5429  0CF4  2CF6               	goto	u2531
  5430  0CF5  2CF7               	goto	u2532
  5431  0CF6                     u2531:	
  5432  0CF6  02F9               	subwf	??___flge+1,f
  5433  0CF7                     u2532:	
  5434  0CF7  0876               	movf	___flge@ff2+2,w
  5435  0CF8  1C03               	skipc
  5436  0CF9  0F76               	incfsz	___flge@ff2+2,w
  5437  0CFA  2CFC               	goto	u2533
  5438  0CFB  2CFD               	goto	u2534
  5439  0CFC                     u2533:	
  5440  0CFC  02FA               	subwf	??___flge+2,f
  5441  0CFD                     u2534:	
  5442  0CFD  0877               	movf	___flge@ff2+3,w
  5443  0CFE  1C03               	skipc
  5444  0CFF  0F77               	incfsz	___flge@ff2+3,w
  5445  0D00  2D02               	goto	u2535
  5446  0D01  2D03               	goto	u2536
  5447  0D02                     u2535:	
  5448  0D02  02FB               	subwf	??___flge+3,f
  5449  0D03                     u2536:	
  5450  0D03  087B               	movf	??___flge+3,w
  5451  0D04  00F7               	movwf	___flge@ff2+3
  5452  0D05  087A               	movf	??___flge+2,w
  5453  0D06  00F6               	movwf	___flge@ff2+2
  5454  0D07  0879               	movf	??___flge+1,w
  5455  0D08  00F5               	movwf	___flge@ff2+1
  5456  0D09  0878               	movf	??___flge,w
  5457  0D0A  00F4               	movwf	___flge@ff2
  5458  0D0B                     l434:	
  5459  0D0B  3080               	movlw	128
  5460  0D0C  06F3               	xorwf	___flge@ff1+3,f
  5461  0D0D  3080               	movlw	128
  5462  0D0E  06F7               	xorwf	___flge@ff2+3,f
  5463  0D0F  0877               	movf	___flge@ff2+3,w
  5464  0D10  0273               	subwf	___flge@ff1+3,w
  5465  0D11  1D03               	skipz
  5466  0D12  0008               	return
  5467  0D13  0876               	movf	___flge@ff2+2,w
  5468  0D14  0272               	subwf	___flge@ff1+2,w
  5469  0D15  1D03               	skipz
  5470  0D16  0008               	return
  5471  0D17  0875               	movf	___flge@ff2+1,w
  5472  0D18  0271               	subwf	___flge@ff1+1,w
  5473  0D19  1D03               	skipz
  5474  0D1A  0008               	return
  5475  0D1B  0874               	movf	___flge@ff2,w
  5476  0D1C  0270               	subwf	___flge@ff1,w
  5477  0D1D  0008               	return
  5478  0D1E                     __end_of___flge:	
  5479  007E                     btemp	set	126	;btemp
  5480  007E                     wtemp0	set	126


Data Sizes:
    Strings     98
    Constant    0
    Data        0
    BSS         20
    Persistent  0
    Stack       0

Auto Spaces:
    Space          Size  Autos    Used
    COMMON           14     14      14
    BANK0            80     72      80
    BANK1            80      0      12
    BANK3            96      0       0
    BANK2            96      0       0

Pointer List with Targets:

    lcd_puts@str	PTR unsigned char  size(1) Largest target is 23
		 -> STR_13(CODE[6]), STR_12(CODE[23]), STR_11(CODE[6]), STR_10(CODE[23]), 
		 -> STR_9(CODE[6]), STR_8(CODE[2]), STR_7(CODE[15]), STR_6(CODE[6]), 
		 -> STR_5(CODE[2]), STR_4(CODE[15]), STR_3(CODE[17]), STR_2(CODE[17]), 
		 -> STR_1(CODE[18]), 


Critical Paths under _main in COMMON

    _main->___xxtofl
    _lcd_puts->_lcd_data
    _lcd_init->_lcd_com
    _lcd_init_write->_delay
    _lcd_data->_lcd_com
    _lcd_com->_delay
    ___fltol->___xxtofl
    ___flsub->___fladd
    ___flmul->___xxtofl

Critical Paths under _main in BANK0

    _main->_lcd_bcd
    _lcd_bcd->___fltol
    ___fltol->___flmul
    ___flsub->___fladd

Critical Paths under _main in BANK1

    None.

Critical Paths under _main in BANK3

    None.

Critical Paths under _main in BANK2

    None.

Call Graph Tables:

 ---------------------------------------------------------------------------------
 (Depth) Function   	        Calls       Base Space   Used Autos Params    Refs
 ---------------------------------------------------------------------------------
 (0) _main                                                23    23      0   20239
                                             49 BANK0     23    23      0
                             ___flge
                            ___flmul
                            ___flsub
                            ___fltol
                             ___wmul
                           ___xxtofl
                            _lcd_bcd
                            _lcd_com
                           _lcd_data
                           _lcd_init
                           _lcd_puts
                           _ow_reset
                          _read_byte
                         _write_byte
 ---------------------------------------------------------------------------------
 (1) _write_byte                                           3     3      0      90
                                              0 COMMON     3     3      0
 ---------------------------------------------------------------------------------
 (1) _read_byte                                            4     4      0      92
                                              0 COMMON     4     4      0
 ---------------------------------------------------------------------------------
 (1) _ow_reset                                             2     2      0       0
                                              0 COMMON     2     2      0
 ---------------------------------------------------------------------------------
 (1) _lcd_puts                                             3     3      0    1820
                                              9 COMMON     3     3      0
                           _lcd_data
 ---------------------------------------------------------------------------------
 (1) _lcd_init                                             0     0      0    3675
                              _delay
                            _lcd_com
                     _lcd_init_write
 ---------------------------------------------------------------------------------
 (2) _lcd_init_write                                       1     1      0    1209
                                              4 COMMON     1     1      0
                              _delay
 ---------------------------------------------------------------------------------
 (1) _lcd_bcd                                             13    11      2    3813
                                             37 BANK0     12    10      2
                            ___fltol (ARG)
                            ___lwdiv
                            ___lwmod
                           _lcd_data
 ---------------------------------------------------------------------------------
 (2) _lcd_data                                             1     1      0    1301
                                              8 COMMON     1     1      0
                            _lcd_com
 ---------------------------------------------------------------------------------
 (3) _lcd_com                                              4     4      0    1279
                                              4 COMMON     4     4      0
                              _delay
 ---------------------------------------------------------------------------------
 (4) _delay                                                4     2      2    1187
                                              0 COMMON     4     2      2
 ---------------------------------------------------------------------------------
 (2) ___lwmod                                              6     2      4     767
                                              0 COMMON     6     2      4
 ---------------------------------------------------------------------------------
 (2) ___lwdiv                                              8     4      4     770
                                              0 COMMON     8     4      4
 ---------------------------------------------------------------------------------
 (1) ___xxtofl                                            14    10      4     550
                                              0 COMMON    14    10      4
 ---------------------------------------------------------------------------------
 (1) ___wmul                                               6     2      4     244
                                              0 COMMON     6     2      4
 ---------------------------------------------------------------------------------
 (1) ___fltol                                             11     7      4     609
                                             26 BANK0     11     7      4
                            ___flmul (ARG)
                           ___xxtofl (ARG)
 ---------------------------------------------------------------------------------
 (1) ___flsub                                              8     0      8    2789
                                              8 BANK0      8     0      8
                            ___fladd
 ---------------------------------------------------------------------------------
 (2) ___fladd                                             20    12      8    2136
                                              0 COMMON    12     4      8
                                              0 BANK0      8     8      0
 ---------------------------------------------------------------------------------
 (1) ___flmul                                             26    18      8    2569
                                              0 BANK0     26    18      8
                          __Umul8_16
                           ___xxtofl (ARG)
 ---------------------------------------------------------------------------------
 (2) __Umul8_16                                            9     7      2     799
                                              0 COMMON     9     7      2
 ---------------------------------------------------------------------------------
 (1) ___flge                                              12     4      8     790
                                              0 COMMON    12     4      8
 ---------------------------------------------------------------------------------
 Estimated maximum stack depth 4
 ---------------------------------------------------------------------------------

 Call Graph Graphs:

 _main (ROOT)
   ___flge
   ___flmul
     __Umul8_16
     ___xxtofl (ARG)
   ___flsub
     ___fladd
   ___fltol
     ___flmul (ARG)
       __Umul8_16
       ___xxtofl (ARG)
     ___xxtofl (ARG)
   ___wmul
   ___xxtofl
   _lcd_bcd
     ___fltol (ARG)
       ___flmul (ARG)
         __Umul8_16
         ___xxtofl (ARG)
       ___xxtofl (ARG)
     ___lwdiv (ARG)
     ___lwmod (ARG)
     _lcd_data (ARG)
       _lcd_com
         _delay
   _lcd_com
     _delay
   _lcd_data
     _lcd_com
       _delay
   _lcd_init
     _delay
     _lcd_com
       _delay
     _lcd_init_write
       _delay
   _lcd_puts
     _lcd_data
       _lcd_com
         _delay
   _ow_reset
   _read_byte
   _write_byte

 Address spaces:
Name               Size   Autos  Total    Cost      Usage
BITCOMMON            E      0       0       0        0.0%
EEDATA             100      0       0       0        0.0%
NULL                 0      0       0       0        0.0%
CODE                 0      0       0       0        0.0%
COMMON               E      E       E       1      100.0%
BITSFR0              0      0       0       1        0.0%
SFR0                 0      0       0       1        0.0%
BITSFR1              0      0       0       2        0.0%
SFR1                 0      0       0       2        0.0%
STACK                0      0       0       2        0.0%
ABS                  0      0      6A       3        0.0%
BITBANK0            50      0       0       4        0.0%
BITSFR3              0      0       0       4        0.0%
SFR3                 0      0       0       4        0.0%
BANK0               50     48      50       5      100.0%
BITSFR2              0      0       0       5        0.0%
SFR2                 0      0       0       5        0.0%
BITBANK1            50      0       0       6        0.0%
BANK1               50      0       C       7       15.0%
BITBANK3            60      0       0       8        0.0%
BANK3               60      0       0       9        0.0%
BITBANK2            60      0       0      10        0.0%
BANK2               60      0       0      11        0.0%
DATA                 0      0      6A      12        0.0%


Microchip Technology PIC Macro Assembler V2.05 build -831301201 
Symbol Table                                                                                   Wed Dec 04 06:36:53 2019

                      pc 0002              __CFG_CP$OFF 0000              lcd_com@temp 0077  
                     l93 0008                       fsr 0004      ___wmul@multiplicand 0072  
    __Umul8_16@word_mpld 0076                      l105 0AEB                      l116 09BA  
                    l125 0B48                      l126 0B4B                      l431 0CA5  
                    l257 09E6                      l434 0D0B                      l450 0BDE  
                    l550 0E13                      l703 0A53                      l554 0EAE  
                    l571 0F6D                      l556 0E8A                      l592 0FF3  
                    l584 0FD9                      l658 045D                      l690 0D7B  
                    l684 0D3B                      l697 0D91                      l698 0D9B  
           __CFG_CPD$OFF 0000                      fsr0 0004                      indf 0000  
           __CFG_FOSC$HS 0000             ___flmul@aexp 0032             ___flmul@bexp 0033  
           ___flmul@sign 002D             ___flmul@temp 0038             ___flmul@prod 0034  
           __CFG_LVP$OFF 0000             ___fltol@exp1 0044                     l2005 0A4B  
                   l2023 0A22                     l2113 00FE                     l2211 017C  
                   l2115 0125                     l2051 0ACC                     l2141 0CE5  
                   l2301 03E5                     l2061 0AF9                     l2311 0417  
                   l2207 0172                     l2119 09DE                     l2039 0A8A  
                   l2137 0CBF                     l2321 0446                     l2225 0197  
                   l2209 0174                     l2153 0B9A                     l2081 0026  
                   l2315 042D                     l2227 0199                     l2237 01AF  
                   l2229 01A1                     l2173 0BCA                     l2157 0BA3  
                   l2183 0BED                     l2175 0BDA                     l2351 0D60  
                   l2415 04D4                     l2361 0D80                     l2345 0D4A  
                   l2417 04EC                     l2291 03CC                     l2339 0D33  
                   l1803 0AC2                     l1821 0DDE                     l2373 0DB8  
                   l2349 0D4E                     l2509 07AA                     l2453 062A  
                   l1911 0EBC                     l1903 0EAA                     l2359 0D8F  
                   l2297 03E3                     l2289 03AF                     l1921 0EE1  
                   l1825 0DE1                     l2481 06B4                     l2393 047F  
                   l1827 0DE9                     l1771 0B18                     l2395 04A0  
                   l1845 0E08                     l1781 0B39                     l2469 0674  
                   l1919 0EDF                     l1855 0E1D                     l2495 0766  
                   l1961 0F97                     l1929 0EF3                     l1849 0E0B  
                   l1777 0B2E                     l1769 0B0A                     l1793 0A9B  
                   l1955 0F90                     l1947 0F7F                     l1939 0F5F  
                   l1963 0F99                     l1795 0AA9                     l1973 0FA4  
                   l1893 0E97                     l1885 0E59                     l1991 0FE9  
                   l1895 0E99                     l1799 0AB7                     l1969 0FA2  
                   l1995 0FED                     STR_1 081D                     STR_2 0840  
                   STR_3 082F                     STR_4 0851                     STR_5 0866  
                   STR_6 0860                     STR_7 0851                     STR_8 0866  
                   STR_9 0860                     u3005 0438                     u2135 0F83  
                   u2081 0F20                     u2073 0F05                     u2065 0EE7  
                   u2090 0F34                     u2082 0F21                     u2410 0039  
                   u2315 0A54                     u2235 0FC3                     u2091 0F35  
                   u2083 0F26                     u2092 0F3A                     u2084 0F27  
                   u2093 0F3B                     u2085 0F2C                     u3205 0535  
                   u2086 0F2D                     u2511 0CD0                     u3135 0DA3  
                   u3055 0D57                     u2512 0CD1                     u2513 0CD6  
                   u1705 0B6D                     u2514 0CD7                     u2354 0AD2  
                   u2531 0CF6                     u2515 0CDC                     u3075 0D73  
                   u3307 0AE7                     u2355 0AD0                     u2532 0CF7  
                   u2516 0CDD                     u2533 0CFC                     u1725 0B0D  
                   u3317 0AF3                     u2534 0CFD                     u2535 0D02  
                   u2455 09E7                     u3095 0D88                     u1815 0AAF  
                   u3327 0010                     u2536 0D03                     u2625 0BE3  
                   u2465 09EE                     u1745 0B19                     u1825 0AB8  
                   u3337 0028                     u2394 001F                     u1755 0B25  
                   u3347 0A6E                     u2395 001D                     u3195 051E  
                   u1940 0E77                     u2805 02BC                     u2565 0BAC  
                   u1765 0B2F                     u1685 09C0                     u3357 0A78  
                   u1950 0E78                     u1935 0E6D                     u3367 0A83  
                   u3377 0A8E                     u3297 04E4                     u2915 03BE  
                   u2595 0BCB                     u1795 0A9E                     u2845 0358  
                   u2775 025F                     u2865 037D                     u1985 0E9F  
                   u2885 039B                     u2895 03B3                     u2985 0402  
                   u2995 0420             __CFG_WRT$OFF 0000                     _main 046A  
                   btemp 007E            write_byte@val 0071              lcd_puts@str 007B  
          __CFG_BOREN$ON 0000                     start 0000            ___fltol@sign1 0043  
        __end_of___fladd 1000                    ?_main 0070                    STR_10 0806  
                  STR_11 0860                    STR_12 0806                    STR_13 0860  
          __CFG_WDTE$OFF 0000          __end_of___flmul 046A          __end_of___flsub 0A1F  
        __end_of___fltol 0BFC          __end_of___lwdiv 0B3E          __end_of___lwmod 0AC7  
                  _PORTB 0006                    _TRISA 0085                    _TRISB 0086  
                  _TRISD 0088          __end_of_lcd_bcd 0155          __end_of_lcd_com 0B8F  
                  _delay 09B6                    main@i 0064                    main@t 0062  
                  pclath 000A                    status 0003                    wtemp0 007E  
        __initialization 07E4             __end_of_main 07E4                   ??_main 0051  
                 ?_delay 0070         __end_of___xxtofl 0DC1           __CFG_PWRTE$OFF 0000  
       __end_of_lcd_data 09B6         __end_of_lcd_init 0C8B                   ___flge 0C8B  
       __end_of_lcd_puts 0A41                ??___fladd 0020                   ___wmul 09DC  
              ??___flmul 0028                ??___flsub 007C                ??___fltol 003E  
              ??___lwdiv 0074                ??___lwmod 0074                   delay@i 0072  
                 delay@j 0070                   main@t2 0060                ??_lcd_bcd 007E  
                 _status 00AA                ??_lcd_com 0074       __size_of__Umul8_16 0023  
       __end_of_ow_reset 0A95         ??_lcd_init_write 0074               ___flge@ff1 0070  
             ___flge@ff2 0074             ___xxtofl@arg 007A             ___xxtofl@exp 0079  
           ___xxtofl@val 0070  __end_of__initialization 07FC               ___fltol@f1 003A  
         __pcstackCOMMON 0070            __end_of_delay 09C9                  ??_delay 0072  
             __pbssBANK0 0068               __pbssBANK1 00A0       __size_of_read_byte 0032  
      __end_of__Umul8_16 0A64               __pmaintext 046A                  ?___flge 0070  
                ?___wmul 0070                ?___xxtofl 0070                ?_lcd_data 0070  
              ?_lcd_init 0070                ?_lcd_puts 0070               __stringtab 0800  
              ?_ow_reset 0070          __size_of___flge 0093                  ___fladd 0DC1  
                ___flmul 0155                  ___flsub 09FD                  ___fltol 0B8F  
        __size_of___wmul 0021                  ___lwdiv 0B02                  ___lwmod 0A95  
                _aft_val 0068                  __ptext1 0AC7                  __ptext2 0003  
                __ptext3 0A64                  __ptext4 0A1F                  __ptext5 0BFC  
                __ptext6 09C9                  __ptext7 0035                  __ptext8 09A7  
                __ptext9 0B3E                  _lcd_bcd 0035                  _lcd_com 0B3E  
             ??___xxtofl 0074        __end_of_read_byte 0035                  _pre_val 006C  
             ??_lcd_data 0078               ??_lcd_init 0078               ??_lcd_puts 0079  
   end_of_initialization 07FC        lcd_bcd@ui_decimal 0047               ??_ow_reset 0070  
              _PORTBbits 0006                _PORTDbits 0008              ___fladd@grs 007B  
          ___xxtofl@sign 0078                _TRISDbits 0088              ___flmul@grs 002E  
        lcd_init_write@a 0074           __end_of___flge 0D1E           __end_of___wmul 09FD  
             _write_byte 0AC7      start_initialization 07E4          main@difference1 0054  
        main@difference2 0058                 ??___flge 0078                 ??___wmul 0074  
              __Umul8_16 0A41               read_byte@i 0073                ___fladd@a 0074  
              ___fladd@b 0070                ___flmul@a 0024                ___flmul@b 0020  
              ___flsub@a 0028                ___flsub@b 002C                ___latbits 0002  
          __pcstackBANK0 0020        __size_of___xxtofl 00A3        __size_of_lcd_data 000F  
      __size_of_lcd_init 008F        __size_of_lcd_puts 0022         ___lwdiv@dividend 0072  
__size_of_lcd_init_write 0013                 ?___fladd 0070                 ?___flmul 0020  
               ?___flsub 0028                 ?___fltol 003A               ?__Umul8_16 0070  
               ?___lwdiv 0070                 ?___lwmod 0070        __size_of_ow_reset 0031  
            ?_write_byte 0070                __pstrings 0800                 ?_lcd_bcd 0045  
               ?_lcd_com 0070         ___lwdiv@quotient 0075           __size_of_delay 0013  
              _read_byte 0003           ___wmul@product 0074         lcd_bcd@ui_number 0045  
              lcd_data@a 0078              __stringbase 0805        ___wmul@multiplier 0070  
              main@TempH 005E                main@TempL 005C              write_byte@i 0072  
              lcd_puts@i 0079               ?_read_byte 0070      __size_of_write_byte 003B  
        read_byte@result 0072              ??__Umul8_16 0072         __size_of___fladd 023F  
       __size_of___flmul 0315         __size_of___flsub 0022         __size_of___fltol 006D  
       __size_of___lwdiv 003C         __size_of___lwmod 0032       __end_of__stringtab 0806  
       __size_of_lcd_bcd 0120         __size_of_lcd_com 0051                 ___xxtofl 0D1E  
        ___lwdiv@divisor 0070          ___lwdiv@counter 0077                 __ptext10 09B6  
               __ptext11 0A95                 __ptext20 0C8B                 __ptext12 0B02  
               __ptext13 0D1E                 __ptext14 09DC                 __ptext15 0B8F  
               __ptext16 09FD                 __ptext17 0DC1                 __ptext18 0155  
               __ptext19 0A41                 _lcd_data 09A7                 _lcd_init 0BFC  
               _lcd_puts 0A1F            __size_of_main 037A          lcd_bcd@uc_digit 0070  
         _lcd_init_write 09C9                 _ow_reset 0A64                 lcd_com@a 0076  
            ??_read_byte 0070         ___lwmod@dividend 0072   __end_of_lcd_init_write 09DC  
              stringcode 0800             ??_write_byte 0070   __Umul8_16@multiplicand 0070  
        ___lwmod@divisor 0070          ___lwmod@counter 0075                 stringdir 0800  
               stringtab 0800            ___fladd@signs 0078              lcd_bcd@F890 00A0  
           ___fladd@aexp 0079             ___fladd@bexp 007A          ?_lcd_init_write 0070  
   __Umul8_16@multiplier 0078       __end_of_write_byte 0B02        __Umul8_16@product 0074  
