

Microchip MPLAB XC8 Assembler V2.05 build -831301201 
                                                                                               Sat Nov 30 10:21:14 2019

Microchip MPLAB XC8 C Compiler v2.05 (Free license) build 20181220022703 Og1 
     1                           	processor	16F877A
     2                           	opt	pw 120
     3                           	opt	flic
     4                           	psect	strings,global,class=STRING,delta=2
     5                           	psect	cinit,global,class=CODE,merge=1,delta=2
     6                           	psect	bssBANK0,global,class=BANK0,space=1,delta=1
     7                           	psect	cstackCOMMON,global,class=COMMON,space=1,delta=1
     8                           	psect	cstackBANK0,global,class=BANK0,space=1,delta=1
     9                           	psect	maintext,global,class=CODE,split=1,delta=2
    10                           	psect	text1,local,class=CODE,merge=1,delta=2,group=1
    11                           	psect	text2,local,class=CODE,merge=1,delta=2,group=1
    12                           	psect	text3,local,class=CODE,merge=1,delta=2,group=1
    13                           	psect	text4,local,class=CODE,merge=1,delta=2,group=1
    14                           	psect	text5,local,class=CODE,merge=1,delta=2,group=1
    15                           	psect	text6,local,class=CODE,merge=1,delta=2,group=1
    16                           	psect	text7,local,class=CODE,merge=1,delta=2,group=1
    17                           	psect	text8,local,class=CODE,merge=1,delta=2,group=1
    18                           	dabs	1,0x7E,2
    19  0000                     
    20                           ; Version 2.05
    21                           ; Generated 20/12/2018 GMT
    22                           ; 
    23                           ; Copyright © 2018, Microchip Technology Inc. and its subsidiaries ("Microchip")
    24                           ; All rights reserved.
    25                           ; 
    26                           ; This software is developed by Microchip Technology Inc. and its subsidiaries ("Microch
      +                          ip").
    27                           ; 
    28                           ; Redistribution and use in source and binary forms, with or without modification, are
    29                           ; permitted provided that the following conditions are met:
    30                           ; 
    31                           ;     1. Redistributions of source code must retain the above copyright notice, this lis
      +                          t of
    32                           ;        conditions and the following disclaimer.
    33                           ; 
    34                           ;     2. Redistributions in binary form must reproduce the above copyright notice, this 
      +                          list
    35                           ;        of conditions and the following disclaimer in the documentation and/or other
    36                           ;        materials provided with the distribution.
    37                           ; 
    38                           ;     3. Microchip's name may not be used to endorse or promote products derived from th
      +                          is
    39                           ;        software without specific prior written permission.
    40                           ; 
    41                           ; THIS SOFTWARE IS PROVIDED BY MICROCHIP "AS IS" AND ANY EXPRESS OR IMPLIED WARRANTIES,
    42                           ; INCLUDING, BUT NOT LIMITED TO, THE IMPLIED WARRANTIES OF MERCHANTABILITY AND FITNESS F
      +                          OR
    43                           ; PURPOSE ARE DISCLAIMED.  IN NO EVENT SHALL MICROCHIP BE LIABLE FOR ANY DIRECT, INDIREC
      +                          T,
    44                           ; INCIDENTAL, SPECIAL, EXEMPLARY, OR CONSEQUENTIAL DAMAGES (INCLUDING BUT NOT LIMITED TO
    45                           ; PROCUREMENT OF SUBSTITUTE GOODS OR SERVICES; LOSS OF USE, DATA OR PROFITS; OR BUSINESS
    46                           ; INTERRUPTION) HOWSOEVER CAUSED AND ON ANY THEORY OF LIABILITY, WHETHER IN CONTRACT, ST
      +                          RICT
    47                           ; LIABILITY, OR TORT (INCLUDING NEGLIGENCE OR OTHERWISE) ARISING IN ANY WAY OUT OF THE U
      +                          SE OF
    48                           ; THIS SOFTWARE, EVEN IF ADVISED OF THE POSSIBILITY OF SUCH DAMAGE.
    49                           ; 
    50                           ; 
    51                           ; Code-generator required, PIC16F877A Definitions
    52                           ; 
    53                           ; SFR Addresses
    54  0000                     	;# 
    55  0001                     	;# 
    56  0002                     	;# 
    57  0003                     	;# 
    58  0004                     	;# 
    59  0005                     	;# 
    60  0006                     	;# 
    61  0007                     	;# 
    62  0008                     	;# 
    63  0009                     	;# 
    64  000A                     	;# 
    65  000B                     	;# 
    66  000C                     	;# 
    67  000D                     	;# 
    68  000E                     	;# 
    69  000E                     	;# 
    70  000F                     	;# 
    71  0010                     	;# 
    72  0011                     	;# 
    73  0012                     	;# 
    74  0013                     	;# 
    75  0014                     	;# 
    76  0015                     	;# 
    77  0015                     	;# 
    78  0016                     	;# 
    79  0017                     	;# 
    80  0018                     	;# 
    81  0019                     	;# 
    82  001A                     	;# 
    83  001B                     	;# 
    84  001B                     	;# 
    85  001C                     	;# 
    86  001D                     	;# 
    87  001E                     	;# 
    88  001F                     	;# 
    89  0081                     	;# 
    90  0085                     	;# 
    91  0086                     	;# 
    92  0087                     	;# 
    93  0088                     	;# 
    94  0089                     	;# 
    95  008C                     	;# 
    96  008D                     	;# 
    97  008E                     	;# 
    98  0091                     	;# 
    99  0092                     	;# 
   100  0093                     	;# 
   101  0094                     	;# 
   102  0098                     	;# 
   103  0099                     	;# 
   104  009C                     	;# 
   105  009D                     	;# 
   106  009E                     	;# 
   107  009F                     	;# 
   108  010C                     	;# 
   109  010D                     	;# 
   110  010E                     	;# 
   111  010F                     	;# 
   112  018C                     	;# 
   113  018D                     	;# 
   114  0000                     	;# 
   115  0001                     	;# 
   116  0002                     	;# 
   117  0003                     	;# 
   118  0004                     	;# 
   119  0005                     	;# 
   120  0006                     	;# 
   121  0007                     	;# 
   122  0008                     	;# 
   123  0009                     	;# 
   124  000A                     	;# 
   125  000B                     	;# 
   126  000C                     	;# 
   127  000D                     	;# 
   128  000E                     	;# 
   129  000E                     	;# 
   130  000F                     	;# 
   131  0010                     	;# 
   132  0011                     	;# 
   133  0012                     	;# 
   134  0013                     	;# 
   135  0014                     	;# 
   136  0015                     	;# 
   137  0015                     	;# 
   138  0016                     	;# 
   139  0017                     	;# 
   140  0018                     	;# 
   141  0019                     	;# 
   142  001A                     	;# 
   143  001B                     	;# 
   144  001B                     	;# 
   145  001C                     	;# 
   146  001D                     	;# 
   147  001E                     	;# 
   148  001F                     	;# 
   149  0081                     	;# 
   150  0085                     	;# 
   151  0086                     	;# 
   152  0087                     	;# 
   153  0088                     	;# 
   154  0089                     	;# 
   155  008C                     	;# 
   156  008D                     	;# 
   157  008E                     	;# 
   158  0091                     	;# 
   159  0092                     	;# 
   160  0093                     	;# 
   161  0094                     	;# 
   162  0098                     	;# 
   163  0099                     	;# 
   164  009C                     	;# 
   165  009D                     	;# 
   166  009E                     	;# 
   167  009F                     	;# 
   168  010C                     	;# 
   169  010D                     	;# 
   170  010E                     	;# 
   171  010F                     	;# 
   172  018C                     	;# 
   173  018D                     	;# 
   174  0086                     _TRISB	set	134
   175  0085                     _TRISA	set	133
   176  0088                     _TRISD	set	136
   177                           
   178                           	psect	strings
   179  0000'                    __pstrings:	
   180  0000'                    stringtab:	
   181  0000'                    __stringtab:	
   182  0000'                    stringcode:	
   183                           ;	String table - string pointers are 1 byte each
   184                           
   185  0000'                    stringdir:	
   186  0000' 3000'              	movlw	high stringdir
   187  0001' 008A               	movwf	10
   188  0002' 0804               	movf	4,w
   189  0003' 0A84               	incf	4,f
   190  0004' 0782               	addwf	2,f
   191  0005'                    __stringbase:	
   192  0005' 3400               	retlw	0
   193  0006'                    __end_of__stringtab:	
   194  0006'                    STR_1:	
   195  0006' 3450               	retlw	80	;'P'
   196  0007' 346C               	retlw	108	;'l'
   197  0008' 3465               	retlw	101	;'e'
   198  0009' 3461               	retlw	97	;'a'
   199  000A' 3473               	retlw	115	;'s'
   200  000B' 3465               	retlw	101	;'e'
   201  000C' 3420               	retlw	32	;' '
   202  000D' 3443               	retlw	67	;'C'
   203  000E' 346F               	retlw	111	;'o'
   204  000F' 346E               	retlw	110	;'n'
   205  0010' 346E               	retlw	110	;'n'
   206  0011' 3465               	retlw	101	;'e'
   207  0012' 3463               	retlw	99	;'c'
   208  0013' 3474               	retlw	116	;'t'
   209  0014' 3420               	retlw	32	;' '
   210  0015' 3420               	retlw	32	;' '
   211  0016' 3420               	retlw	32	;' '
   212  0017' 3400               	retlw	0
   213  0018'                    STR_3:	
   214  0018' 3420               	retlw	32	;' '
   215  0019' 3420               	retlw	32	;' '
   216  001A' 3420               	retlw	32	;' '
   217  001B' 3420               	retlw	32	;' '
   218  001C' 3420               	retlw	32	;' '
   219  001D' 3420               	retlw	32	;' '
   220  001E' 3420               	retlw	32	;' '
   221  001F' 3420               	retlw	32	;' '
   222  0020' 3420               	retlw	32	;' '
   223  0021' 3420               	retlw	32	;' '
   224  0022' 3420               	retlw	32	;' '
   225  0023' 3420               	retlw	32	;' '
   226  0024' 3420               	retlw	32	;' '
   227  0025' 3420               	retlw	32	;' '
   228  0026' 3420               	retlw	32	;' '
   229  0027' 3420               	retlw	32	;' '
   230  0028' 3400               	retlw	0
   231  0029'                    STR_2:	
   232  0029' 3454               	retlw	84	;'T'
   233  002A' 3465               	retlw	101	;'e'
   234  002B' 346D               	retlw	109	;'m'
   235  002C' 3470               	retlw	112	;'p'
   236  002D' 342D               	retlw	45	;'-'
   237  002E' 3453               	retlw	83	;'S'
   238  002F' 3465               	retlw	101	;'e'
   239  0030' 346E               	retlw	110	;'n'
   240  0031' 3473               	retlw	115	;'s'
   241  0032' 3465               	retlw	101	;'e'
   242  0033' 3420               	retlw	32	;' '
   243  0034' 3450               	retlw	80	;'P'
   244  0035' 3472               	retlw	114	;'r'
   245  0036' 346F               	retlw	111	;'o'
   246  0037' 3462               	retlw	98	;'b'
   247  0038' 3465               	retlw	101	;'e'
   248  0039' 3400               	retlw	0
   249  003A'                    STR_4:	
   250  003A' 3443               	retlw	67	;'C'
   251  003B' 3469               	retlw	105	;'i'
   252  003C' 3472               	retlw	114	;'r'
   253  003D' 3463               	retlw	99	;'c'
   254  003E' 3475               	retlw	117	;'u'
   255  003F' 3469               	retlw	105	;'i'
   256  0040' 3474               	retlw	116	;'t'
   257  0041' 3420               	retlw	32	;' '
   258  0042' 3444               	retlw	68	;'D'
   259  0043' 3469               	retlw	105	;'i'
   260  0044' 3467               	retlw	103	;'g'
   261  0045' 3465               	retlw	101	;'e'
   262  0046' 3473               	retlw	115	;'s'
   263  0047' 3474               	retlw	116	;'t'
   264  0048' 3400               	retlw	0
   265  0049'                    STR_6:	
   266  0049' 3443               	retlw	67	;'C'
   267  004A' 3420               	retlw	32	;' '
   268  004B' 3420               	retlw	32	;' '
   269  004C' 3420               	retlw	32	;' '
   270  004D' 3420               	retlw	32	;' '
   271  004E' 3400               	retlw	0
   272  004F'                    STR_5:	
   273  004F' 342D               	retlw	45	;'-'
   274  0050' 3400               	retlw	0
   275  0049'                    
   276                           ; #config settings
   277  0000                     
   278                           	psect	cinit
   279  0000'                    start_initialization:	
   280  0000'                    __initialization:	
   281                           
   282                           ; Clear objects allocated to BANK0
   283  0000' 1283               	bcf	3,5	;RP0=0, select bank0
   284  0001' 1303               	bcf	3,6	;RP1=0, select bank0
   285  0002' 0180'              	clrf	__pbssBANK0& (0+127)
   286  0003' 0180'              	clrf	(__pbssBANK0+1)& (0+127)
   287  0004' 0180'              	clrf	(__pbssBANK0+2)& (0+127)
   288  0005' 0180'              	clrf	(__pbssBANK0+3)& (0+127)
   289  0006' 0180'              	clrf	(__pbssBANK0+4)& (0+127)
   290  0007' 0180'              	clrf	(__pbssBANK0+5)& (0+127)
   291  0008' 0180'              	clrf	(__pbssBANK0+6)& (0+127)
   292  0009' 0180'              	clrf	(__pbssBANK0+7)& (0+127)
   293  000A'                    end_of_initialization:	
   294                           ;End of C runtime variable initialization code
   295                           
   296  000A'                    __end_of__initialization:	
   297  000A' 0183               	clrf	3
   298  000B' 120A' 118A' 2800'  	ljmp	_main	;jump to C main() function
   299                           
   300                           	psect	bssBANK0
   301  0000'                    __pbssBANK0:	
   302  0000'                    _aft_val:	
   303  0000'                    	ds	4
   304  0004'                    _pre_val:	
   305  0004'                    	ds	4
   306                           
   307                           	psect	cstackCOMMON
   308  0000'                    __pcstackCOMMON:	
   309  0000'                    ?___flge:	
   310  0000'                    ?_lcd_init:	
   311                           ; 1 bit 
   312                           
   313  0000'                    ??_lcd_init:	
   314                           ; 1 bytes @ 0x0
   315                           
   316  0000'                    ?_lcd_com:	
   317                           ; 1 bytes @ 0x0
   318                           
   319  0000'                    ??_lcd_com:	
   320                           ; 1 bytes @ 0x0
   321                           
   322  0000'                    ?_lcd_puts:	
   323                           ; 1 bytes @ 0x0
   324                           
   325  0000'                    ??_lcd_puts:	
   326                           ; 1 bytes @ 0x0
   327                           
   328  0000'                    ?_ow_reset:	
   329                           ; 1 bytes @ 0x0
   330                           
   331  0000'                    ??_ow_reset:	
   332                           ; 1 bytes @ 0x0
   333                           
   334  0000'                    ?_write_byte:	
   335                           ; 1 bytes @ 0x0
   336                           
   337  0000'                    ??_write_byte:	
   338                           ; 1 bytes @ 0x0
   339                           
   340  0000'                    ?_read_byte:	
   341                           ; 1 bytes @ 0x0
   342                           
   343  0000'                    ??_read_byte:	
   344                           ; 1 bytes @ 0x0
   345                           
   346  0000'                    ?_lcd_bcd:	
   347                           ; 1 bytes @ 0x0
   348                           
   349  0000'                    ??_lcd_bcd:	
   350                           ; 1 bytes @ 0x0
   351                           
   352  0000'                    ?_lcd_data:	
   353                           ; 1 bytes @ 0x0
   354                           
   355  0000'                    ??_lcd_data:	
   356                           ; 1 bytes @ 0x0
   357                           
   358  0000'                    ?_main:	
   359                           ; 1 bytes @ 0x0
   360                           
   361  0000'                    ?__Umul8_16:	
   362                           ; 1 bytes @ 0x0
   363                           
   364  0000'                    ?___wmul:	
   365                           ; 2 bytes @ 0x0
   366                           
   367  0000'                    ?___fladd:	
   368                           ; 2 bytes @ 0x0
   369                           
   370  0000'                    ?___xxtofl:	
   371                           ; 4 bytes @ 0x0
   372                           
   373  0000'                    _lcd_puts$0:	
   374                           ; 4 bytes @ 0x0
   375                           
   376  0000'                    __Umul8_16@multiplicand:	
   377                           ; 1 bytes @ 0x0
   378                           
   379  0000'                    _lcd_bcd$1:	
   380                           ; 1 bytes @ 0x0
   381                           
   382  0000'                    ___wmul@multiplier:	
   383                           ; 2 bytes @ 0x0
   384                           
   385  0000'                    ___flge@ff1:	
   386                           ; 2 bytes @ 0x0
   387                           
   388  0000'                    ___fladd@b:	
   389                           ; 4 bytes @ 0x0
   390                           
   391  0000'                    ___xxtofl@val:	
   392                           ; 4 bytes @ 0x0
   393                           
   394                           
   395                           ; 4 bytes @ 0x0
   396  0000'                    	ds	2
   397  0002'                    ??__Umul8_16:	
   398  0002'                    ___wmul@multiplicand:	
   399                           ; 1 bytes @ 0x2
   400                           
   401                           
   402                           ; 2 bytes @ 0x2
   403  0002'                    	ds	2
   404  0004'                    ??___wmul:	
   405  0004'                    ??___xxtofl:	
   406                           ; 1 bytes @ 0x4
   407                           
   408  0004'                    ___wmul@product:	
   409                           ; 1 bytes @ 0x4
   410                           
   411  0004'                    __Umul8_16@product:	
   412                           ; 2 bytes @ 0x4
   413                           
   414  0004'                    ___flge@ff2:	
   415                           ; 2 bytes @ 0x4
   416                           
   417  0004'                    ___fladd@a:	
   418                           ; 4 bytes @ 0x4
   419                           
   420                           
   421                           ; 4 bytes @ 0x4
   422  0004'                    	ds	2
   423  0006'                    __Umul8_16@word_mpld:	
   424                           
   425                           ; 2 bytes @ 0x6
   426  0006'                    	ds	2
   427  0008'                    ??___flge:	
   428  0008'                    ___fladd@signs:	
   429                           ; 1 bytes @ 0x8
   430                           
   431  0008'                    ___xxtofl@sign:	
   432                           ; 1 bytes @ 0x8
   433                           
   434  0008'                    __Umul8_16@multiplier:	
   435                           ; 1 bytes @ 0x8
   436                           
   437                           
   438                           ; 1 bytes @ 0x8
   439  0008'                    	ds	1
   440  0009'                    ___fladd@aexp:	
   441  0009'                    ___xxtofl@exp:	
   442                           ; 1 bytes @ 0x9
   443                           
   444                           
   445                           ; 1 bytes @ 0x9
   446  0009'                    	ds	1
   447  000A'                    ___fladd@bexp:	
   448  000A'                    ___xxtofl@arg:	
   449                           ; 1 bytes @ 0xA
   450                           
   451                           
   452                           ; 4 bytes @ 0xA
   453  000A'                    	ds	1
   454  000B'                    ___fladd@grs:	
   455                           
   456                           ; 1 bytes @ 0xB
   457  000B'                    	ds	1
   458  000C'                    ??___flsub:	
   459                           
   460                           ; 1 bytes @ 0xC
   461  000C'                    	ds	2
   462                           
   463                           	psect	cstackBANK0
   464  0000'                    __pcstackBANK0:	
   465  0000'                    ??___fladd:	
   466  0000'                    ?___flmul:	
   467                           ; 1 bytes @ 0x0
   468                           
   469  0000'                    ___flmul@b:	
   470                           ; 4 bytes @ 0x0
   471                           
   472                           
   473                           ; 4 bytes @ 0x0
   474  0000'                    	ds	4
   475  0004'                    ___flmul@a:	
   476                           
   477                           ; 4 bytes @ 0x4
   478  0004'                    	ds	4
   479  0008'                    ??___flmul:	
   480  0008'                    ?___flsub:	
   481                           ; 1 bytes @ 0x8
   482                           
   483  0008'                    ___flsub@a:	
   484                           ; 4 bytes @ 0x8
   485                           
   486                           
   487                           ; 4 bytes @ 0x8
   488  0008'                    	ds	4
   489  000C'                    ___flsub@b:	
   490                           
   491                           ; 4 bytes @ 0xC
   492  000C'                    	ds	1
   493  000D'                    ___flmul@sign:	
   494                           
   495                           ; 1 bytes @ 0xD
   496  000D'                    	ds	1
   497  000E'                    ___flmul@grs:	
   498                           
   499                           ; 4 bytes @ 0xE
   500  000E'                    	ds	4
   501  0012'                    ___flmul@aexp:	
   502                           
   503                           ; 1 bytes @ 0x12
   504  0012'                    	ds	1
   505  0013'                    ___flmul@bexp:	
   506                           
   507                           ; 1 bytes @ 0x13
   508  0013'                    	ds	1
   509  0014'                    ___flmul@prod:	
   510                           
   511                           ; 4 bytes @ 0x14
   512  0014'                    	ds	4
   513  0018'                    ___flmul@temp:	
   514                           
   515                           ; 2 bytes @ 0x18
   516  0018'                    	ds	2
   517  001A'                    ?___fltol:	
   518  001A'                    ___fltol@f1:	
   519                           ; 4 bytes @ 0x1A
   520                           
   521                           
   522                           ; 4 bytes @ 0x1A
   523  001A'                    	ds	4
   524  001E'                    ??___fltol:	
   525                           
   526                           ; 1 bytes @ 0x1E
   527  001E'                    	ds	5
   528  0023'                    ___fltol@sign1:	
   529                           
   530                           ; 1 bytes @ 0x23
   531  0023'                    	ds	1
   532  0024'                    ___fltol@exp1:	
   533                           
   534                           ; 1 bytes @ 0x24
   535  0024'                    	ds	1
   536  0025'                    ??_main:	
   537                           
   538                           ; 1 bytes @ 0x25
   539  0025'                    	ds	3
   540  0028'                    main@difference1:	
   541                           
   542                           ; 4 bytes @ 0x28
   543  0028'                    	ds	4
   544  002C'                    main@difference2:	
   545                           
   546                           ; 4 bytes @ 0x2C
   547  002C'                    	ds	4
   548  0030'                    main@TempL:	
   549                           
   550                           ; 2 bytes @ 0x30
   551  0030'                    	ds	2
   552  0032'                    main@TempH:	
   553                           
   554                           ; 2 bytes @ 0x32
   555  0032'                    	ds	2
   556  0034'                    main@t2:	
   557                           
   558                           ; 2 bytes @ 0x34
   559  0034'                    	ds	2
   560  0036'                    main@t:	
   561                           
   562                           ; 2 bytes @ 0x36
   563  0036'                    	ds	2
   564  0038'                    main@i:	
   565                           
   566                           ; 4 bytes @ 0x38
   567  0038'                    	ds	4
   568                           
   569                           	psect	maintext
   570  0000'                    __pmaintext:	
   571 ;;
   572 ;;Main: autosize = 0, tempsize = 3, incstack = 0, save=0
   573 ;;
   574 ;; *************** function _main *****************
   575 ;; Defined at:
   576 ;;		line 54 in file "newmain1.c"
   577 ;; Parameters:    Size  Location     Type
   578 ;;		None
   579 ;; Auto vars:     Size  Location     Type
   580 ;;  i               4   56[BANK0 ] float 
   581 ;;  difference2     4   44[BANK0 ] float 
   582 ;;  difference1     4   40[BANK0 ] float 
   583 ;;  t               2   54[BANK0 ] unsigned int 
   584 ;;  t2              2   52[BANK0 ] unsigned int 
   585 ;;  TempH           2   50[BANK0 ] unsigned short 
   586 ;;  TempL           2   48[BANK0 ] unsigned short 
   587 ;; Return value:  Size  Location     Type
   588 ;;                  1    wreg      void 
   589 ;; Registers used:
   590 ;;		wreg, fsr0l, fsr0h, fsr1l, fsr1h, fsr1l, fsr1h, status,2, status,0, btemp+1, pclath, cstack
   591 ;; Tracked objects:
   592 ;;		On entry : B00/0
   593 ;;		On exit  : 0/0
   594 ;;		Unchanged: 0/0
   595 ;; Data sizes:     COMMON   BANK0   BANK1   BANK3   BANK2
   596 ;;      Params:         0       0       0       0       0
   597 ;;      Locals:         0      20       0       0       0
   598 ;;      Temps:          0       3       0       0       0
   599 ;;      Totals:         0      23       0       0       0
   600 ;;Total ram usage:       23 bytes
   601 ;; Hardware stack levels required when called:    2
   602 ;; This function calls:
   603 ;;		___flge
   604 ;;		___flmul
   605 ;;		___flsub
   606 ;;		___fltol
   607 ;;		___wmul
   608 ;;		___xxtofl
   609 ;;		_lcd_bcd
   610 ;;		_lcd_com
   611 ;;		_lcd_data
   612 ;;		_lcd_init
   613 ;;		_lcd_puts
   614 ;;		_ow_reset
   615 ;;		_read_byte
   616 ;;		_write_byte
   617 ;; This function is called by:
   618 ;;		Startup code after reset
   619 ;; This function uses a non-reentrant model
   620 ;;
   621                           
   622                           
   623                           ;psect for function _main
   624  0000'                    _main:	
   625                           
   626                           ;newmain1.c: 55:     TRISD = 0xFF;
   627                           
   628                           ;incstack = 0
   629                           ; Regs used in _main: [allreg]
   630  0000' 30FF               	movlw	255
   631  0001' 1683               	bsf	3,5	;RP0=1, select bank1
   632  0002' 1303               	bcf	3,6	;RP1=0, select bank1
   633  0003' 0088               	movwf	8	;volatile
   634                           
   635                           ;newmain1.c: 56:     TRISA = 0x00;
   636  0004' 0185               	clrf	5	;volatile
   637                           
   638                           ;newmain1.c: 57:     TRISB = 0x00;
   639  0005' 0186               	clrf	6	;volatile
   640  0006' 3000               	movlw	0
   641  0007' 1283               	bcf	3,5	;RP0=0, select bank0
   642  0008' 1303               	bcf	3,6	;RP1=0, select bank0
   643  0009' 00AF'              	movwf	main@difference2+3
   644  000A' 3000               	movlw	0
   645  000B' 00AE'              	movwf	main@difference2+2
   646  000C' 3000               	movlw	0
   647  000D' 00AD'              	movwf	main@difference2+1
   648  000E' 3000               	movlw	0
   649  000F' 00AC'              	movwf	main@difference2
   650                           
   651                           ;newmain1.c: 62:     lcd_init();
   652  0010' 120A' 118A' 2000' 120A' 118A' 	fcall	_lcd_init
   653  0015'                    l34:	
   654                           ;newmain1.c: 71: }
   655                           
   656                           ;newmain1.c: 66: while(ow_reset()){
   657                           
   658                           
   659                           ;newmain1.c: 66: while(ow_reset()){
   660  0015' 120A' 118A' 2000' 120A' 118A' 	fcall	_ow_reset
   661  001A' 3A00               	xorlw	0
   662  001B' 1903               	btfsc	3,2
   663  001C' 2800'              	goto	l1740
   664                           
   665                           ;newmain1.c: 67: lcd_com(0x80);
   666  001D' 3080               	movlw	128
   667  001E' 120A' 118A' 2000' 120A' 118A' 	fcall	_lcd_com
   668                           
   669                           ;newmain1.c: 68: lcd_puts ("Please Connect   ");
   670  0023' 3001               	movlw	(low ((STR_1-__stringbase)| (0+32768)))& (0+255)
   671  0024' 120A' 118A' 2000' 120A' 118A' 	fcall	_lcd_puts
   672                           
   673                           ;newmain1.c: 69: lcd_com (0xC0);
   674  0029' 30C0               	movlw	192
   675  002A' 120A' 118A' 2000' 120A' 118A' 	fcall	_lcd_com
   676                           
   677                           ;newmain1.c: 70: lcd_puts("Temp-Sense Probe");
   678  002F' 3024               	movlw	(low ((STR_2-__stringbase)| (0+32768)))& (0+255)
   679  0030' 120A' 118A' 2000' 120A' 118A' 	fcall	_lcd_puts
   680  0035' 2800'              	goto	l34
   681  0036'                    l1740:	
   682                           
   683                           ;newmain1.c: 74:         lcd_puts ("                ");
   684  0036' 3013               	movlw	(low ((STR_3-__stringbase)| (0+32768)))& (0+255)
   685  0037' 120A' 118A' 2000' 120A' 118A' 	fcall	_lcd_puts
   686                           
   687                           ;newmain1.c: 75: ow_reset();
   688  003C' 120A' 118A' 2000' 120A' 118A' 	fcall	_ow_reset
   689                           
   690                           ;newmain1.c: 76: write_byte(0x4E);
   691  0041' 304E               	movlw	78
   692  0042' 120A' 118A' 2000' 120A' 118A' 	fcall	_write_byte
   693                           
   694                           ;newmain1.c: 77:     write_byte(0);
   695  0047' 3000               	movlw	0
   696  0048' 120A' 118A' 2000' 120A' 118A' 	fcall	_write_byte
   697                           
   698                           ;newmain1.c: 78: write_byte(0);
   699  004D' 3000               	movlw	0
   700  004E' 120A' 118A' 2000' 120A' 118A' 	fcall	_write_byte
   701                           
   702                           ;newmain1.c: 79: write_byte(0x7F);
   703  0053' 307F               	movlw	127
   704  0054' 120A' 118A' 2000' 120A' 118A' 	fcall	_write_byte
   705                           
   706                           ;newmain1.c: 80: ow_reset();
   707  0059' 120A' 118A' 2000' 120A' 118A' 	fcall	_ow_reset
   708                           
   709                           ;newmain1.c: 81: write_byte(0xCC);
   710  005E' 30CC               	movlw	204
   711  005F' 120A' 118A' 2000' 120A' 118A' 	fcall	_write_byte
   712                           
   713                           ;newmain1.c: 82: write_byte(0x44);
   714  0064' 3044               	movlw	68
   715  0065' 120A' 118A' 2000' 120A' 118A' 	fcall	_write_byte
   716  006A'                    l1742:	
   717                           ;newmain1.c: 84: while (read_byte()==0xff);
   718                           
   719  006A' 120A' 118A' 2000' 120A' 118A' 	fcall	_read_byte
   720  006F' 3AFF               	xorlw	255
   721  0070' 1903               	skipnz
   722  0071' 2800'              	goto	l1742
   723                           
   724                           ;newmain1.c: 85: _delay((unsigned long)((500)*(20000000/4000.0)));
   725  0072' 300D               	movlw	13
   726  0073' 1283               	bcf	3,5	;RP0=0, select bank0
   727  0074' 1303               	bcf	3,6	;RP1=0, select bank0
   728  0075' 00A7'              	movwf	??_main+2
   729  0076' 30AF               	movlw	175
   730  0077' 00A6'              	movwf	??_main+1
   731  0078' 30B5               	movlw	181
   732  0079' 00A5'              	movwf	??_main
   733  007A'                    u2637:	
   734  007A' 0BA5'              	decfsz	??_main,f
   735  007B' 2800'              	goto	u2637
   736  007C' 0BA6'              	decfsz	??_main+1,f
   737  007D' 2800'              	goto	u2637
   738  007E' 0BA7'              	decfsz	??_main+2,f
   739  007F' 2800'              	goto	u2637
   740  0080' 2800'              	nop2
   741                           
   742                           ;newmain1.c: 86: ow_reset();
   743  0081' 120A' 118A' 2000' 120A' 118A' 	fcall	_ow_reset
   744                           
   745                           ;newmain1.c: 88: write_byte(0xCC);
   746  0086' 30CC               	movlw	204
   747  0087' 120A' 118A' 2000' 120A' 118A' 	fcall	_write_byte
   748                           
   749                           ;newmain1.c: 89: write_byte(0xBE);
   750  008C' 30BE               	movlw	190
   751  008D' 120A' 118A' 2000' 120A' 118A' 	fcall	_write_byte
   752                           
   753                           ;newmain1.c: 91: TempL = read_byte();
   754  0092' 120A' 118A' 2000' 120A' 118A' 	fcall	_read_byte
   755  0097' 1283               	bcf	3,5	;RP0=0, select bank0
   756  0098' 1303               	bcf	3,6	;RP1=0, select bank0
   757  0099' 00A5'              	movwf	??_main
   758  009A' 01A6'              	clrf	??_main+1
   759  009B' 0825'              	movf	??_main,w
   760  009C' 00B0'              	movwf	main@TempL
   761  009D' 0826'              	movf	??_main+1,w
   762  009E' 00B1'              	movwf	main@TempL+1
   763                           
   764                           ;newmain1.c: 92: TempH = read_byte();
   765  009F' 120A' 118A' 2000' 120A' 118A' 	fcall	_read_byte
   766  00A4' 1283               	bcf	3,5	;RP0=0, select bank0
   767  00A5' 1303               	bcf	3,6	;RP1=0, select bank0
   768  00A6' 00A5'              	movwf	??_main
   769  00A7' 01A6'              	clrf	??_main+1
   770  00A8' 0825'              	movf	??_main,w
   771  00A9' 00B2'              	movwf	main@TempH
   772  00AA' 0826'              	movf	??_main+1,w
   773  00AB' 00B3'              	movwf	main@TempH+1
   774                           
   775                           ;newmain1.c: 103: if((TempH & 0x80)!=0){
   776  00AC' 1FB2'              	btfss	main@TempH,7
   777  00AD' 2800'              	goto	l1808
   778                           
   779                           ;newmain1.c: 104: t=TempH;
   780  00AE' 0833'              	movf	main@TempH+1,w
   781  00AF' 00B7'              	movwf	main@t+1
   782  00B0' 0832'              	movf	main@TempH,w
   783  00B1' 00B6'              	movwf	main@t
   784                           
   785                           ;newmain1.c: 105:         t<<=8;
   786  00B2' 3008               	movlw	8
   787  00B3'                    u2575:	
   788  00B3' 1003               	clrc
   789  00B4' 0DB6'              	rlf	main@t,f
   790  00B5' 0DB7'              	rlf	main@t+1,f
   791  00B6' 3EFF               	addlw	-1
   792  00B7' 1D03               	skipz
   793  00B8' 2800'              	goto	u2575
   794                           
   795                           ;newmain1.c: 106:         t=t|TempL;
   796  00B9' 0830'              	movf	main@TempL,w
   797  00BA' 0436'              	iorwf	main@t,w
   798  00BB' 00B6'              	movwf	main@t
   799  00BC' 0831'              	movf	main@TempL+1,w
   800  00BD' 0437'              	iorwf	main@t+1,w
   801  00BE' 00B7'              	movwf	main@t+1
   802                           
   803                           ;newmain1.c: 107:         t=t-1;
   804  00BF' 0836'              	movf	main@t,w
   805  00C0' 3EFF               	addlw	255
   806  00C1' 00B6'              	movwf	main@t
   807  00C2' 0837'              	movf	main@t+1,w
   808  00C3' 1803               	skipnc
   809  00C4' 3E01               	addlw	1
   810  00C5' 3EFF               	addlw	255
   811  00C6' 00B7'              	movwf	main@t+1
   812                           
   813                           ;newmain1.c: 108:         t=~t;
   814  00C7' 09B6'              	comf	main@t,f
   815  00C8' 09B7'              	comf	main@t+1,f
   816                           
   817                           ;newmain1.c: 109:         t>>=4;
   818  00C9' 3004               	movlw	4
   819  00CA'                    u2585:	
   820  00CA' 1003               	clrc
   821  00CB' 0CB7'              	rrf	main@t+1,f
   822  00CC' 0CB6'              	rrf	main@t,f
   823  00CD' 3EFF               	addlw	-1
   824  00CE' 1D03               	skipz
   825  00CF' 2800'              	goto	u2585
   826                           
   827                           ;newmain1.c: 110: t=t*100;
   828  00D0' 0837'              	movf	main@t+1,w
   829  00D1' 0081'              	movwf	___wmul@multiplier+1
   830  00D2' 0836'              	movf	main@t,w
   831  00D3' 0080'              	movwf	___wmul@multiplier
   832  00D4' 3064               	movlw	100
   833  00D5' 0082'              	movwf	___wmul@multiplicand
   834  00D6' 3000               	movlw	0
   835  00D7' 0083'              	movwf	___wmul@multiplicand+1
   836  00D8' 120A' 118A' 2000' 120A' 118A' 	fcall	___wmul
   837  00DD' 0801'              	movf	?___wmul+1,w
   838  00DE' 1283               	bcf	3,5	;RP0=0, select bank0
   839  00DF' 1303               	bcf	3,6	;RP1=0, select bank0
   840  00E0' 00B7'              	movwf	main@t+1
   841  00E1' 0800'              	movf	?___wmul,w
   842  00E2' 00B6'              	movwf	main@t
   843                           
   844                           ;newmain1.c: 111: t2=TempL;
   845  00E3' 0831'              	movf	main@TempL+1,w
   846  00E4' 00B5'              	movwf	main@t2+1
   847  00E5' 0830'              	movf	main@TempL,w
   848  00E6' 00B4'              	movwf	main@t2
   849                           
   850                           ;newmain1.c: 112: t2=t2-1;
   851  00E7' 0834'              	movf	main@t2,w
   852  00E8' 3EFF               	addlw	255
   853  00E9' 00B4'              	movwf	main@t2
   854  00EA' 0835'              	movf	main@t2+1,w
   855  00EB' 1803               	skipnc
   856  00EC' 3E01               	addlw	1
   857  00ED' 3EFF               	addlw	255
   858  00EE' 00B5'              	movwf	main@t2+1
   859                           
   860                           ;newmain1.c: 113:         t2=~t2;
   861  00EF' 09B4'              	comf	main@t2,f
   862  00F0' 09B5'              	comf	main@t2+1,f
   863                           
   864                           ;newmain1.c: 114:         t2=t2&0x0f;
   865  00F1' 300F               	movlw	15
   866  00F2' 0534'              	andwf	main@t2,w
   867  00F3' 00B4'              	movwf	main@t2
   868  00F4' 3000               	movlw	0
   869  00F5' 0535'              	andwf	main@t2+1,w
   870  00F6' 00B5'              	movwf	main@t2+1
   871                           
   872                           ;newmain1.c: 115: t2=t2 * 6.25;
   873  00F7' 0834'              	movf	main@t2,w
   874  00F8' 0080'              	movwf	___xxtofl@val
   875  00F9' 0835'              	movf	main@t2+1,w
   876  00FA' 0081'              	movwf	___xxtofl@val+1
   877  00FB' 0182'              	clrf	___xxtofl@val+2
   878  00FC' 0183'              	clrf	___xxtofl@val+3
   879  00FD' 3000               	movlw	0
   880  00FE' 120A' 118A' 2000' 120A' 118A' 	fcall	___xxtofl
   881  0103' 0803'              	movf	?___xxtofl+3,w
   882  0104' 1283               	bcf	3,5	;RP0=0, select bank0
   883  0105' 1303               	bcf	3,6	;RP1=0, select bank0
   884  0106' 0087'              	movwf	___flmul@a+3
   885  0107' 0802'              	movf	?___xxtofl+2,w
   886  0108' 0086'              	movwf	___flmul@a+2
   887  0109' 0801'              	movf	?___xxtofl+1,w
   888  010A' 0085'              	movwf	___flmul@a+1
   889  010B' 0800'              	movf	?___xxtofl,w
   890  010C' 0084'              	movwf	___flmul@a
   891  010D' 3040               	movlw	64
   892  010E' 0083'              	movwf	___flmul@b+3
   893  010F' 30C8               	movlw	200
   894  0110' 0082'              	movwf	___flmul@b+2
   895  0111' 3000               	movlw	0
   896  0112' 0081'              	movwf	___flmul@b+1
   897  0113' 3000               	movlw	0
   898  0114' 0080'              	movwf	___flmul@b
   899  0115' 120A' 118A' 2000' 120A' 118A' 	fcall	___flmul
   900  011A' 1283               	bcf	3,5	;RP0=0, select bank0
   901  011B' 1303               	bcf	3,6	;RP1=0, select bank0
   902  011C' 0803'              	movf	?___flmul+3,w
   903  011D' 009D'              	movwf	___fltol@f1+3
   904  011E' 0802'              	movf	?___flmul+2,w
   905  011F' 009C'              	movwf	___fltol@f1+2
   906  0120' 0801'              	movf	?___flmul+1,w
   907  0121' 009B'              	movwf	___fltol@f1+1
   908  0122' 0800'              	movf	?___flmul,w
   909  0123' 009A'              	movwf	___fltol@f1
   910  0124' 120A' 118A' 2000' 120A' 118A' 	fcall	___fltol
   911  0129' 1283               	bcf	3,5	;RP0=0, select bank0
   912  012A' 1303               	bcf	3,6	;RP1=0, select bank0
   913  012B' 081B'              	movf	?___fltol+1,w
   914  012C' 00B5'              	movwf	main@t2+1
   915  012D' 081A'              	movf	?___fltol,w
   916  012E' 00B4'              	movwf	main@t2
   917                           
   918                           ;newmain1.c: 116: i=((unsigned int)t ) + (unsigned int)t2;
   919  012F' 0834'              	movf	main@t2,w
   920  0130' 0736'              	addwf	main@t,w
   921  0131' 0080'              	movwf	___xxtofl@val
   922  0132' 0835'              	movf	main@t2+1,w
   923  0133' 1803               	skipnc
   924  0134' 0A35'              	incf	main@t2+1,w
   925  0135' 0737'              	addwf	main@t+1,w
   926  0136' 0081'              	movwf	___xxtofl@val+1
   927  0137' 0182'              	clrf	___xxtofl@val+2
   928  0138' 0183'              	clrf	___xxtofl@val+3
   929  0139' 3000               	movlw	0
   930  013A' 120A' 118A' 2000' 120A' 118A' 	fcall	___xxtofl
   931  013F' 0803'              	movf	?___xxtofl+3,w
   932  0140' 1283               	bcf	3,5	;RP0=0, select bank0
   933  0141' 1303               	bcf	3,6	;RP1=0, select bank0
   934  0142' 00BB'              	movwf	main@i+3
   935  0143' 0802'              	movf	?___xxtofl+2,w
   936  0144' 00BA'              	movwf	main@i+2
   937  0145' 0801'              	movf	?___xxtofl+1,w
   938  0146' 00B9'              	movwf	main@i+1
   939  0147' 0800'              	movf	?___xxtofl,w
   940  0148' 00B8'              	movwf	main@i
   941                           
   942                           ;newmain1.c: 120: pre_val=aft_val;
   943  0149' 0803'              	movf	_aft_val+3,w
   944  014A' 0087'              	movwf	_pre_val+3
   945  014B' 0802'              	movf	_aft_val+2,w
   946  014C' 0086'              	movwf	_pre_val+2
   947  014D' 0801'              	movf	_aft_val+1,w
   948  014E' 0085'              	movwf	_pre_val+1
   949  014F' 0800'              	movf	_aft_val,w
   950  0150' 0084'              	movwf	_pre_val
   951                           
   952                           ;newmain1.c: 122: difference1 = pre_val - i;
   953  0151' 083B'              	movf	main@i+3,w
   954  0152' 008B'              	movwf	___flsub@a+3
   955  0153' 083A'              	movf	main@i+2,w
   956  0154' 008A'              	movwf	___flsub@a+2
   957  0155' 0839'              	movf	main@i+1,w
   958  0156' 0089'              	movwf	___flsub@a+1
   959  0157' 0838'              	movf	main@i,w
   960  0158' 0088'              	movwf	___flsub@a
   961  0159' 0807'              	movf	_pre_val+3,w
   962  015A' 008F'              	movwf	___flsub@b+3
   963  015B' 0806'              	movf	_pre_val+2,w
   964  015C' 008E'              	movwf	___flsub@b+2
   965  015D' 0805'              	movf	_pre_val+1,w
   966  015E' 008D'              	movwf	___flsub@b+1
   967  015F' 0804'              	movf	_pre_val,w
   968  0160' 008C'              	movwf	___flsub@b
   969  0161' 120A' 118A' 2000' 120A' 118A' 	fcall	___flsub
   970  0166' 1283               	bcf	3,5	;RP0=0, select bank0
   971  0167' 1303               	bcf	3,6	;RP1=0, select bank0
   972  0168' 080B'              	movf	?___flsub+3,w
   973  0169' 00AB'              	movwf	main@difference1+3
   974  016A' 080A'              	movf	?___flsub+2,w
   975  016B' 00AA'              	movwf	main@difference1+2
   976  016C' 0809'              	movf	?___flsub+1,w
   977  016D' 00A9'              	movwf	main@difference1+1
   978  016E' 0808'              	movf	?___flsub,w
   979  016F' 00A8'              	movwf	main@difference1
   980                           
   981                           ;newmain1.c: 123: difference2 = i - pre_val;
   982  0170' 0807'              	movf	_pre_val+3,w
   983  0171' 008B'              	movwf	___flsub@a+3
   984  0172' 0806'              	movf	_pre_val+2,w
   985  0173' 008A'              	movwf	___flsub@a+2
   986  0174' 0805'              	movf	_pre_val+1,w
   987  0175' 0089'              	movwf	___flsub@a+1
   988  0176' 0804'              	movf	_pre_val,w
   989  0177' 0088'              	movwf	___flsub@a
   990  0178' 083B'              	movf	main@i+3,w
   991  0179' 008F'              	movwf	___flsub@b+3
   992  017A' 083A'              	movf	main@i+2,w
   993  017B' 008E'              	movwf	___flsub@b+2
   994  017C' 0839'              	movf	main@i+1,w
   995  017D' 008D'              	movwf	___flsub@b+1
   996  017E' 0838'              	movf	main@i,w
   997  017F' 008C'              	movwf	___flsub@b
   998  0180' 120A' 118A' 2000' 120A' 118A' 	fcall	___flsub
   999  0185' 1283               	bcf	3,5	;RP0=0, select bank0
  1000  0186' 1303               	bcf	3,6	;RP1=0, select bank0
  1001  0187' 080B'              	movf	?___flsub+3,w
  1002  0188' 00AF'              	movwf	main@difference2+3
  1003  0189' 080A'              	movf	?___flsub+2,w
  1004  018A' 00AE'              	movwf	main@difference2+2
  1005  018B' 0809'              	movf	?___flsub+1,w
  1006  018C' 00AD'              	movwf	main@difference2+1
  1007  018D' 0808'              	movf	?___flsub,w
  1008  018E' 00AC'              	movwf	main@difference2
  1009                           
  1010                           ;newmain1.c: 125: if(difference1 > 20 || difference2 > 20){
  1011  018F' 3041               	movlw	65
  1012  0190' 0083'              	movwf	___flge@ff1+3
  1013  0191' 30A0               	movlw	160
  1014  0192' 0082'              	movwf	___flge@ff1+2
  1015  0193' 3000               	movlw	0
  1016  0194' 0081'              	movwf	___flge@ff1+1
  1017  0195' 3000               	movlw	0
  1018  0196' 0080'              	movwf	___flge@ff1
  1019  0197' 082B'              	movf	main@difference1+3,w
  1020  0198' 0087'              	movwf	___flge@ff2+3
  1021  0199' 082A'              	movf	main@difference1+2,w
  1022  019A' 0086'              	movwf	___flge@ff2+2
  1023  019B' 0829'              	movf	main@difference1+1,w
  1024  019C' 0085'              	movwf	___flge@ff2+1
  1025  019D' 0828'              	movf	main@difference1,w
  1026  019E' 0084'              	movwf	___flge@ff2
  1027  019F' 120A' 118A' 2000' 120A' 118A' 	fcall	___flge
  1028  01A4' 1C03               	btfss	3,0
  1029  01A5' 2800'              	goto	l1790
  1030  01A6' 3041               	movlw	65
  1031  01A7' 0083'              	movwf	___flge@ff1+3
  1032  01A8' 30A0               	movlw	160
  1033  01A9' 0082'              	movwf	___flge@ff1+2
  1034  01AA' 3000               	movlw	0
  1035  01AB' 0081'              	movwf	___flge@ff1+1
  1036  01AC' 3000               	movlw	0
  1037  01AD' 0080'              	movwf	___flge@ff1
  1038  01AE' 1283               	bcf	3,5	;RP0=0, select bank0
  1039  01AF' 1303               	bcf	3,6	;RP1=0, select bank0
  1040  01B0' 082F'              	movf	main@difference2+3,w
  1041  01B1' 0087'              	movwf	___flge@ff2+3
  1042  01B2' 082E'              	movf	main@difference2+2,w
  1043  01B3' 0086'              	movwf	___flge@ff2+2
  1044  01B4' 082D'              	movf	main@difference2+1,w
  1045  01B5' 0085'              	movwf	___flge@ff2+1
  1046  01B6' 082C'              	movf	main@difference2,w
  1047  01B7' 0084'              	movwf	___flge@ff2
  1048  01B8' 120A' 118A' 2000' 120A' 118A' 	fcall	___flge
  1049  01BD' 1803               	btfsc	3,0
  1050  01BE' 2800'              	goto	l1806
  1051  01BF'                    l1790:	
  1052                           
  1053                           ;newmain1.c: 126: aft_val = i;
  1054  01BF' 1283               	bcf	3,5	;RP0=0, select bank0
  1055  01C0' 1303               	bcf	3,6	;RP1=0, select bank0
  1056  01C1' 083B'              	movf	main@i+3,w
  1057  01C2' 0083'              	movwf	_aft_val+3
  1058  01C3' 083A'              	movf	main@i+2,w
  1059  01C4' 0082'              	movwf	_aft_val+2
  1060  01C5' 0839'              	movf	main@i+1,w
  1061  01C6' 0081'              	movwf	_aft_val+1
  1062  01C7' 0838'              	movf	main@i,w
  1063  01C8' 0080'              	movwf	_aft_val
  1064                           
  1065                           ;newmain1.c: 127: lcd_com (0x80);
  1066  01C9' 3080               	movlw	128
  1067  01CA' 120A' 118A' 2000' 120A' 118A' 	fcall	_lcd_com
  1068                           
  1069                           ;newmain1.c: 128: lcd_puts ("Circuit Digest");
  1070  01CF' 3035               	movlw	(low ((STR_4-__stringbase)| (0+32768)))& (0+255)
  1071  01D0' 120A' 118A' 2000' 120A' 118A' 	fcall	_lcd_puts
  1072                           
  1073                           ;newmain1.c: 129: lcd_com (0xc0);
  1074  01D5' 30C0               	movlw	192
  1075  01D6' 120A' 118A' 2000' 120A' 118A' 	fcall	_lcd_com
  1076                           
  1077                           ;newmain1.c: 130: lcd_puts("-");
  1078  01DB' 304A               	movlw	(low ((STR_5-__stringbase)| (0+32768)))& (0+255)
  1079  01DC' 120A' 118A' 2000' 120A' 118A' 	fcall	_lcd_puts
  1080                           
  1081                           ;newmain1.c: 131: lcd_bcd (5,aft_val);
  1082  01E1' 1283               	bcf	3,5	;RP0=0, select bank0
  1083  01E2' 1303               	bcf	3,6	;RP1=0, select bank0
  1084  01E3' 0803'              	movf	_aft_val+3,w
  1085  01E4' 009D'              	movwf	___fltol@f1+3
  1086  01E5' 0802'              	movf	_aft_val+2,w
  1087  01E6' 009C'              	movwf	___fltol@f1+2
  1088  01E7' 0801'              	movf	_aft_val+1,w
  1089  01E8' 009B'              	movwf	___fltol@f1+1
  1090  01E9' 0800'              	movf	_aft_val,w
  1091  01EA' 009A'              	movwf	___fltol@f1
  1092  01EB' 120A' 118A' 2000' 120A' 118A' 	fcall	___fltol
  1093  01F0' 1283               	bcf	3,5	;RP0=0, select bank0
  1094  01F1' 1303               	bcf	3,6	;RP1=0, select bank0
  1095  01F2' 081B'              	movf	?___fltol+1,w
  1096  01F3' 0081'              	movwf	_lcd_bcd$1+1
  1097  01F4' 081A'              	movf	?___fltol,w
  1098  01F5' 0080'              	movwf	_lcd_bcd$1
  1099  01F6' 3005               	movlw	5
  1100  01F7' 120A' 118A' 2000' 120A' 118A' 	fcall	_lcd_bcd
  1101                           
  1102                           ;newmain1.c: 132: lcd_data(223);
  1103  01FC' 30DF               	movlw	223
  1104  01FD' 120A' 118A' 2000' 120A' 118A' 	fcall	_lcd_data
  1105                           
  1106                           ;newmain1.c: 133: lcd_puts("C    ");
  1107  0202' 3044               	movlw	(low ((STR_6-__stringbase)| (0+32768)))& (0+255)
  1108  0203' 120A' 118A' 2000' 120A' 118A' 	fcall	_lcd_puts
  1109                           
  1110                           ;newmain1.c: 134: }
  1111  0208' 2800'              	goto	l34
  1112  0209'                    l1806:	
  1113                           
  1114                           ;newmain1.c: 136: lcd_com (0x80);
  1115  0209' 3080               	movlw	128
  1116  020A' 120A' 118A' 2000' 120A' 118A' 	fcall	_lcd_com
  1117                           
  1118                           ;newmain1.c: 137: lcd_puts ("Circuit Digest");
  1119  020F' 3035               	movlw	(low ((STR_4-__stringbase)| (0+32768)))& (0+255)
  1120  0210' 120A' 118A' 2000' 120A' 118A' 	fcall	_lcd_puts
  1121                           
  1122                           ;newmain1.c: 138: lcd_com (0xc0);
  1123  0215' 30C0               	movlw	192
  1124  0216' 120A' 118A' 2000' 120A' 118A' 	fcall	_lcd_com
  1125                           
  1126                           ;newmain1.c: 139: lcd_puts("-");
  1127  021B' 304A               	movlw	(low ((STR_5-__stringbase)| (0+32768)))& (0+255)
  1128  021C' 120A' 118A' 2000' 120A' 118A' 	fcall	_lcd_puts
  1129                           
  1130                           ;newmain1.c: 140: lcd_bcd (5,pre_val);
  1131  0221' 1283               	bcf	3,5	;RP0=0, select bank0
  1132  0222' 1303               	bcf	3,6	;RP1=0, select bank0
  1133  0223' 0807'              	movf	_pre_val+3,w
  1134  0224' 009D'              	movwf	___fltol@f1+3
  1135  0225' 0806'              	movf	_pre_val+2,w
  1136  0226' 009C'              	movwf	___fltol@f1+2
  1137  0227' 0805'              	movf	_pre_val+1,w
  1138  0228' 009B'              	movwf	___fltol@f1+1
  1139  0229' 0804'              	movf	_pre_val,w
  1140  022A' 009A'              	movwf	___fltol@f1
  1141  022B' 120A' 118A' 2000' 120A' 118A' 	fcall	___fltol
  1142  0230' 1283               	bcf	3,5	;RP0=0, select bank0
  1143  0231' 1303               	bcf	3,6	;RP1=0, select bank0
  1144  0232' 081B'              	movf	?___fltol+1,w
  1145  0233' 0081'              	movwf	_lcd_bcd$1+1
  1146  0234' 081A'              	movf	?___fltol,w
  1147  0235' 0080'              	movwf	_lcd_bcd$1
  1148  0236' 3005               	movlw	5
  1149  0237' 120A' 118A' 2000' 120A' 118A' 	fcall	_lcd_bcd
  1150                           
  1151                           ;newmain1.c: 141: lcd_data(223);
  1152  023C' 30DF               	movlw	223
  1153  023D' 120A' 118A' 2000' 120A' 118A' 	fcall	_lcd_data
  1154                           
  1155                           ;newmain1.c: 142: lcd_puts("C    ");
  1156  0242' 3044               	movlw	(low ((STR_6-__stringbase)| (0+32768)))& (0+255)
  1157  0243' 120A' 118A' 2000' 120A' 118A' 	fcall	_lcd_puts
  1158  0248' 2800'              	goto	l34
  1159  0249'                    l1808:	
  1160                           
  1161                           ;newmain1.c: 149: i=((unsigned int)TempH << 8 ) + (unsigned int)TempL;
  1162  0249' 0832'              	movf	main@TempH,w
  1163  024A' 00A6'              	movwf	??_main+1
  1164  024B' 01A5'              	clrf	??_main
  1165  024C' 0830'              	movf	main@TempL,w
  1166  024D' 0725'              	addwf	??_main,w
  1167  024E' 0080'              	movwf	___xxtofl@val
  1168  024F' 0831'              	movf	main@TempL+1,w
  1169  0250' 1803               	skipnc
  1170  0251' 0A31'              	incf	main@TempL+1,w
  1171  0252' 0726'              	addwf	??_main+1,w
  1172  0253' 0081'              	movwf	___xxtofl@val+1
  1173  0254' 0182'              	clrf	___xxtofl@val+2
  1174  0255' 0183'              	clrf	___xxtofl@val+3
  1175  0256' 3000               	movlw	0
  1176  0257' 120A' 118A' 2000' 120A' 118A' 	fcall	___xxtofl
  1177  025C' 0803'              	movf	?___xxtofl+3,w
  1178  025D' 1283               	bcf	3,5	;RP0=0, select bank0
  1179  025E' 1303               	bcf	3,6	;RP1=0, select bank0
  1180  025F' 00BB'              	movwf	main@i+3
  1181  0260' 0802'              	movf	?___xxtofl+2,w
  1182  0261' 00BA'              	movwf	main@i+2
  1183  0262' 0801'              	movf	?___xxtofl+1,w
  1184  0263' 00B9'              	movwf	main@i+1
  1185  0264' 0800'              	movf	?___xxtofl,w
  1186  0265' 00B8'              	movwf	main@i
  1187                           
  1188                           ;newmain1.c: 150: i = i * 6.25;
  1189  0266' 3040               	movlw	64
  1190  0267' 0083'              	movwf	___flmul@b+3
  1191  0268' 30C8               	movlw	200
  1192  0269' 0082'              	movwf	___flmul@b+2
  1193  026A' 3000               	movlw	0
  1194  026B' 0081'              	movwf	___flmul@b+1
  1195  026C' 3000               	movlw	0
  1196  026D' 0080'              	movwf	___flmul@b
  1197  026E' 083B'              	movf	main@i+3,w
  1198  026F' 0087'              	movwf	___flmul@a+3
  1199  0270' 083A'              	movf	main@i+2,w
  1200  0271' 0086'              	movwf	___flmul@a+2
  1201  0272' 0839'              	movf	main@i+1,w
  1202  0273' 0085'              	movwf	___flmul@a+1
  1203  0274' 0838'              	movf	main@i,w
  1204  0275' 0084'              	movwf	___flmul@a
  1205  0276' 120A' 118A' 2000' 120A' 118A' 	fcall	___flmul
  1206  027B' 1283               	bcf	3,5	;RP0=0, select bank0
  1207  027C' 1303               	bcf	3,6	;RP1=0, select bank0
  1208  027D' 0803'              	movf	?___flmul+3,w
  1209  027E' 00BB'              	movwf	main@i+3
  1210  027F' 0802'              	movf	?___flmul+2,w
  1211  0280' 00BA'              	movwf	main@i+2
  1212  0281' 0801'              	movf	?___flmul+1,w
  1213  0282' 00B9'              	movwf	main@i+1
  1214  0283' 0800'              	movf	?___flmul,w
  1215  0284' 00B8'              	movwf	main@i
  1216                           
  1217                           ;newmain1.c: 153: pre_val=aft_val;
  1218  0285' 0803'              	movf	_aft_val+3,w
  1219  0286' 0087'              	movwf	_pre_val+3
  1220  0287' 0802'              	movf	_aft_val+2,w
  1221  0288' 0086'              	movwf	_pre_val+2
  1222  0289' 0801'              	movf	_aft_val+1,w
  1223  028A' 0085'              	movwf	_pre_val+1
  1224  028B' 0800'              	movf	_aft_val,w
  1225  028C' 0084'              	movwf	_pre_val
  1226                           
  1227                           ;newmain1.c: 155: difference1 = pre_val - i;
  1228  028D' 083B'              	movf	main@i+3,w
  1229  028E' 008B'              	movwf	___flsub@a+3
  1230  028F' 083A'              	movf	main@i+2,w
  1231  0290' 008A'              	movwf	___flsub@a+2
  1232  0291' 0839'              	movf	main@i+1,w
  1233  0292' 0089'              	movwf	___flsub@a+1
  1234  0293' 0838'              	movf	main@i,w
  1235  0294' 0088'              	movwf	___flsub@a
  1236  0295' 0807'              	movf	_pre_val+3,w
  1237  0296' 008F'              	movwf	___flsub@b+3
  1238  0297' 0806'              	movf	_pre_val+2,w
  1239  0298' 008E'              	movwf	___flsub@b+2
  1240  0299' 0805'              	movf	_pre_val+1,w
  1241  029A' 008D'              	movwf	___flsub@b+1
  1242  029B' 0804'              	movf	_pre_val,w
  1243  029C' 008C'              	movwf	___flsub@b
  1244  029D' 120A' 118A' 2000' 120A' 118A' 	fcall	___flsub
  1245  02A2' 1283               	bcf	3,5	;RP0=0, select bank0
  1246  02A3' 1303               	bcf	3,6	;RP1=0, select bank0
  1247  02A4' 080B'              	movf	?___flsub+3,w
  1248  02A5' 00AB'              	movwf	main@difference1+3
  1249  02A6' 080A'              	movf	?___flsub+2,w
  1250  02A7' 00AA'              	movwf	main@difference1+2
  1251  02A8' 0809'              	movf	?___flsub+1,w
  1252  02A9' 00A9'              	movwf	main@difference1+1
  1253  02AA' 0808'              	movf	?___flsub,w
  1254  02AB' 00A8'              	movwf	main@difference1
  1255                           
  1256                           ;newmain1.c: 156: difference2 = i - pre_val;
  1257  02AC' 0807'              	movf	_pre_val+3,w
  1258  02AD' 008B'              	movwf	___flsub@a+3
  1259  02AE' 0806'              	movf	_pre_val+2,w
  1260  02AF' 008A'              	movwf	___flsub@a+2
  1261  02B0' 0805'              	movf	_pre_val+1,w
  1262  02B1' 0089'              	movwf	___flsub@a+1
  1263  02B2' 0804'              	movf	_pre_val,w
  1264  02B3' 0088'              	movwf	___flsub@a
  1265  02B4' 083B'              	movf	main@i+3,w
  1266  02B5' 008F'              	movwf	___flsub@b+3
  1267  02B6' 083A'              	movf	main@i+2,w
  1268  02B7' 008E'              	movwf	___flsub@b+2
  1269  02B8' 0839'              	movf	main@i+1,w
  1270  02B9' 008D'              	movwf	___flsub@b+1
  1271  02BA' 0838'              	movf	main@i,w
  1272  02BB' 008C'              	movwf	___flsub@b
  1273  02BC' 120A' 118A' 2000' 120A' 118A' 	fcall	___flsub
  1274  02C1' 1283               	bcf	3,5	;RP0=0, select bank0
  1275  02C2' 1303               	bcf	3,6	;RP1=0, select bank0
  1276  02C3' 080B'              	movf	?___flsub+3,w
  1277  02C4' 00AF'              	movwf	main@difference2+3
  1278  02C5' 080A'              	movf	?___flsub+2,w
  1279  02C6' 00AE'              	movwf	main@difference2+2
  1280  02C7' 0809'              	movf	?___flsub+1,w
  1281  02C8' 00AD'              	movwf	main@difference2+1
  1282  02C9' 0808'              	movf	?___flsub,w
  1283  02CA' 00AC'              	movwf	main@difference2
  1284                           
  1285                           ;newmain1.c: 158: if(difference1 > 20 || difference2 > 20){
  1286  02CB' 3041               	movlw	65
  1287  02CC' 0083'              	movwf	___flge@ff1+3
  1288  02CD' 30A0               	movlw	160
  1289  02CE' 0082'              	movwf	___flge@ff1+2
  1290  02CF' 3000               	movlw	0
  1291  02D0' 0081'              	movwf	___flge@ff1+1
  1292  02D1' 3000               	movlw	0
  1293  02D2' 0080'              	movwf	___flge@ff1
  1294  02D3' 082B'              	movf	main@difference1+3,w
  1295  02D4' 0087'              	movwf	___flge@ff2+3
  1296  02D5' 082A'              	movf	main@difference1+2,w
  1297  02D6' 0086'              	movwf	___flge@ff2+2
  1298  02D7' 0829'              	movf	main@difference1+1,w
  1299  02D8' 0085'              	movwf	___flge@ff2+1
  1300  02D9' 0828'              	movf	main@difference1,w
  1301  02DA' 0084'              	movwf	___flge@ff2
  1302  02DB' 120A' 118A' 2000' 120A' 118A' 	fcall	___flge
  1303  02E0' 1C03               	btfss	3,0
  1304  02E1' 2800'              	goto	l1822
  1305  02E2' 3041               	movlw	65
  1306  02E3' 0083'              	movwf	___flge@ff1+3
  1307  02E4' 30A0               	movlw	160
  1308  02E5' 0082'              	movwf	___flge@ff1+2
  1309  02E6' 3000               	movlw	0
  1310  02E7' 0081'              	movwf	___flge@ff1+1
  1311  02E8' 3000               	movlw	0
  1312  02E9' 0080'              	movwf	___flge@ff1
  1313  02EA' 1283               	bcf	3,5	;RP0=0, select bank0
  1314  02EB' 1303               	bcf	3,6	;RP1=0, select bank0
  1315  02EC' 082F'              	movf	main@difference2+3,w
  1316  02ED' 0087'              	movwf	___flge@ff2+3
  1317  02EE' 082E'              	movf	main@difference2+2,w
  1318  02EF' 0086'              	movwf	___flge@ff2+2
  1319  02F0' 082D'              	movf	main@difference2+1,w
  1320  02F1' 0085'              	movwf	___flge@ff2+1
  1321  02F2' 082C'              	movf	main@difference2,w
  1322  02F3' 0084'              	movwf	___flge@ff2
  1323  02F4' 120A' 118A' 2000' 120A' 118A' 	fcall	___flge
  1324  02F9' 1803               	btfsc	3,0
  1325  02FA' 2800'              	goto	l1836
  1326  02FB'                    l1822:	
  1327                           
  1328                           ;newmain1.c: 159: aft_val = i;
  1329  02FB' 1283               	bcf	3,5	;RP0=0, select bank0
  1330  02FC' 1303               	bcf	3,6	;RP1=0, select bank0
  1331  02FD' 083B'              	movf	main@i+3,w
  1332  02FE' 0083'              	movwf	_aft_val+3
  1333  02FF' 083A'              	movf	main@i+2,w
  1334  0300' 0082'              	movwf	_aft_val+2
  1335  0301' 0839'              	movf	main@i+1,w
  1336  0302' 0081'              	movwf	_aft_val+1
  1337  0303' 0838'              	movf	main@i,w
  1338  0304' 0080'              	movwf	_aft_val
  1339                           
  1340                           ;newmain1.c: 160: lcd_com (0x80);
  1341  0305' 3080               	movlw	128
  1342  0306' 120A' 118A' 2000' 120A' 118A' 	fcall	_lcd_com
  1343                           
  1344                           ;newmain1.c: 161: lcd_puts ("Circuit Digest");
  1345  030B' 3035               	movlw	(low ((STR_4-__stringbase)| (0+32768)))& (0+255)
  1346  030C' 120A' 118A' 2000' 120A' 118A' 	fcall	_lcd_puts
  1347                           
  1348                           ;newmain1.c: 162: lcd_com (0xc0);
  1349  0311' 30C0               	movlw	192
  1350  0312' 120A' 118A' 2000' 120A' 118A' 	fcall	_lcd_com
  1351                           
  1352                           ;newmain1.c: 163: lcd_bcd (5,aft_val);
  1353  0317' 1283               	bcf	3,5	;RP0=0, select bank0
  1354  0318' 1303               	bcf	3,6	;RP1=0, select bank0
  1355  0319' 0803'              	movf	_aft_val+3,w
  1356  031A' 009D'              	movwf	___fltol@f1+3
  1357  031B' 0802'              	movf	_aft_val+2,w
  1358  031C' 009C'              	movwf	___fltol@f1+2
  1359  031D' 0801'              	movf	_aft_val+1,w
  1360  031E' 009B'              	movwf	___fltol@f1+1
  1361  031F' 0800'              	movf	_aft_val,w
  1362  0320' 009A'              	movwf	___fltol@f1
  1363  0321' 120A' 118A' 2000' 120A' 118A' 	fcall	___fltol
  1364  0326' 1283               	bcf	3,5	;RP0=0, select bank0
  1365  0327' 1303               	bcf	3,6	;RP1=0, select bank0
  1366  0328' 081B'              	movf	?___fltol+1,w
  1367  0329' 0081'              	movwf	_lcd_bcd$1+1
  1368  032A' 081A'              	movf	?___fltol,w
  1369  032B' 0080'              	movwf	_lcd_bcd$1
  1370  032C' 3005               	movlw	5
  1371  032D' 120A' 118A' 2000' 120A' 118A' 	fcall	_lcd_bcd
  1372                           
  1373                           ;newmain1.c: 164: lcd_data(223);
  1374  0332' 30DF               	movlw	223
  1375  0333' 120A' 118A' 2000' 120A' 118A' 	fcall	_lcd_data
  1376                           
  1377                           ;newmain1.c: 165: lcd_puts("C    ");
  1378  0338' 3044               	movlw	(low ((STR_6-__stringbase)| (0+32768)))& (0+255)
  1379  0339' 120A' 118A' 2000' 120A' 118A' 	fcall	_lcd_puts
  1380                           
  1381                           ;newmain1.c: 167: }
  1382  033E' 2800'              	goto	l34
  1383  033F'                    l1836:	
  1384                           
  1385                           ;newmain1.c: 169: lcd_com (0x80);
  1386  033F' 3080               	movlw	128
  1387  0340' 120A' 118A' 2000' 120A' 118A' 	fcall	_lcd_com
  1388                           
  1389                           ;newmain1.c: 170: lcd_puts ("Circuit Digest");
  1390  0345' 3035               	movlw	(low ((STR_4-__stringbase)| (0+32768)))& (0+255)
  1391  0346' 120A' 118A' 2000' 120A' 118A' 	fcall	_lcd_puts
  1392                           
  1393                           ;newmain1.c: 171: lcd_com (0xc0);
  1394  034B' 30C0               	movlw	192
  1395  034C' 120A' 118A' 2000' 120A' 118A' 	fcall	_lcd_com
  1396                           
  1397                           ;newmain1.c: 172: lcd_bcd (5,pre_val);
  1398  0351' 1283               	bcf	3,5	;RP0=0, select bank0
  1399  0352' 1303               	bcf	3,6	;RP1=0, select bank0
  1400  0353' 0807'              	movf	_pre_val+3,w
  1401  0354' 009D'              	movwf	___fltol@f1+3
  1402  0355' 0806'              	movf	_pre_val+2,w
  1403  0356' 009C'              	movwf	___fltol@f1+2
  1404  0357' 0805'              	movf	_pre_val+1,w
  1405  0358' 009B'              	movwf	___fltol@f1+1
  1406  0359' 0804'              	movf	_pre_val,w
  1407  035A' 009A'              	movwf	___fltol@f1
  1408  035B' 120A' 118A' 2000' 120A' 118A' 	fcall	___fltol
  1409  0360' 1283               	bcf	3,5	;RP0=0, select bank0
  1410  0361' 1303               	bcf	3,6	;RP1=0, select bank0
  1411  0362' 081B'              	movf	?___fltol+1,w
  1412  0363' 0081'              	movwf	_lcd_bcd$1+1
  1413  0364' 081A'              	movf	?___fltol,w
  1414  0365' 0080'              	movwf	_lcd_bcd$1
  1415  0366' 3005               	movlw	5
  1416  0367' 120A' 118A' 2000' 120A' 118A' 	fcall	_lcd_bcd
  1417                           
  1418                           ;newmain1.c: 173: lcd_data(223);
  1419  036C' 30DF               	movlw	223
  1420  036D' 120A' 118A' 2000' 120A' 118A' 	fcall	_lcd_data
  1421                           
  1422                           ;newmain1.c: 174: lcd_puts("C    ");
  1423  0372' 3044               	movlw	(low ((STR_6-__stringbase)| (0+32768)))& (0+255)
  1424  0373' 120A' 118A' 2000' 120A' 118A' 	fcall	_lcd_puts
  1425  0378' 2800'              	goto	l34
  1426  0379'                    __end_of_main:	
  1427                           
  1428                           	psect	text1
  1429  0000'                    __ptext1:	
  1430 ;; *************** function ___xxtofl *****************
  1431 ;; Defined at:
  1432 ;;		line 10 in file "C:\Program Files (x86)\Microchip\xc8\v2.05\pic\sources\c90\common\xxtofl.c"
  1433 ;; Parameters:    Size  Location     Type
  1434 ;;  sign            1    wreg     unsigned char 
  1435 ;;  val             4    0[COMMON] long 
  1436 ;; Auto vars:     Size  Location     Type
  1437 ;;  sign            1    8[COMMON] unsigned char 
  1438 ;;  arg             4   10[COMMON] unsigned long 
  1439 ;;  exp             1    9[COMMON] unsigned char 
  1440 ;; Return value:  Size  Location     Type
  1441 ;;                  4    0[COMMON] unsigned char 
  1442 ;; Registers used:
  1443 ;;		wreg, status,2, status,0
  1444 ;; Tracked objects:
  1445 ;;		On entry : 0/0
  1446 ;;		On exit  : 0/0
  1447 ;;		Unchanged: 0/0
  1448 ;; Data sizes:     COMMON   BANK0   BANK1   BANK3   BANK2
  1449 ;;      Params:         4       0       0       0       0
  1450 ;;      Locals:         6       0       0       0       0
  1451 ;;      Temps:          4       0       0       0       0
  1452 ;;      Totals:        14       0       0       0       0
  1453 ;;Total ram usage:       14 bytes
  1454 ;; Hardware stack levels used:    1
  1455 ;; This function calls:
  1456 ;;		Nothing
  1457 ;; This function is called by:
  1458 ;;		_main
  1459 ;; This function uses a non-reentrant model
  1460 ;;
  1461                           
  1462                           
  1463                           ;psect for function ___xxtofl
  1464  0000'                    ___xxtofl:	
  1465                           
  1466                           ;incstack = 0
  1467                           ; Regs used in ___xxtofl: [wreg+status,2+status,0]
  1468                           ;___xxtofl@sign stored from wreg
  1469  0000' 0088'              	movwf	___xxtofl@sign
  1470  0001' 0808'              	movf	___xxtofl@sign,w
  1471  0002' 1D03               	btfss	3,2
  1472  0003' 1F83'              	btfss	___xxtofl@val+3,7
  1473  0004' 2800'              	goto	l1690
  1474  0005' 0900'              	comf	___xxtofl@val,w
  1475  0006' 008A'              	movwf	___xxtofl@arg
  1476  0007' 0901'              	comf	___xxtofl@val+1,w
  1477  0008' 008B'              	movwf	___xxtofl@arg+1
  1478  0009' 0902'              	comf	___xxtofl@val+2,w
  1479  000A' 008C'              	movwf	___xxtofl@arg+2
  1480  000B' 0903'              	comf	___xxtofl@val+3,w
  1481  000C' 008D'              	movwf	___xxtofl@arg+3
  1482  000D' 0A8A'              	incf	___xxtofl@arg,f
  1483  000E' 1903               	skipnz
  1484  000F' 0A8B'              	incf	___xxtofl@arg+1,f
  1485  0010' 1903               	skipnz
  1486  0011' 0A8C'              	incf	___xxtofl@arg+2,f
  1487  0012' 1903               	skipnz
  1488  0013' 0A8D'              	incf	___xxtofl@arg+3,f
  1489  0014' 2800'              	goto	l573
  1490  0015'                    l1690:	
  1491  0015' 0803'              	movf	___xxtofl@val+3,w
  1492  0016' 008D'              	movwf	___xxtofl@arg+3
  1493  0017' 0802'              	movf	___xxtofl@val+2,w
  1494  0018' 008C'              	movwf	___xxtofl@arg+2
  1495  0019' 0801'              	movf	___xxtofl@val+1,w
  1496  001A' 008B'              	movwf	___xxtofl@arg+1
  1497  001B' 0800'              	movf	___xxtofl@val,w
  1498  001C' 008A'              	movwf	___xxtofl@arg
  1499  001D'                    l573:	
  1500  001D' 0803'              	movf	___xxtofl@val+3,w
  1501  001E' 0402'              	iorwf	___xxtofl@val+2,w
  1502  001F' 0401'              	iorwf	___xxtofl@val+1,w
  1503  0020' 0400'              	iorwf	___xxtofl@val,w
  1504  0021' 1D03               	skipz
  1505  0022' 2800'              	goto	l1696
  1506  0023' 3000               	movlw	0
  1507  0024' 0083'              	movwf	?___xxtofl+3
  1508  0025' 3000               	movlw	0
  1509  0026' 0082'              	movwf	?___xxtofl+2
  1510  0027' 3000               	movlw	0
  1511  0028' 0081'              	movwf	?___xxtofl+1
  1512  0029' 3000               	movlw	0
  1513  002A' 0080'              	movwf	?___xxtofl
  1514  002B' 0008               	return
  1515  002C'                    l1696:	
  1516  002C' 3096               	movlw	150
  1517  002D' 0084'              	movwf	??___xxtofl
  1518  002E' 0804'              	movf	??___xxtofl,w
  1519  002F' 0089'              	movwf	___xxtofl@exp
  1520  0030'                    l1700:	
  1521  0030' 30FE               	movlw	254
  1522  0031' 050D'              	andwf	___xxtofl@arg+3,w
  1523  0032' 1903               	btfsc	3,2
  1524  0033' 2800'              	goto	l579
  1525  0034' 3001               	movlw	1
  1526  0035' 0084'              	movwf	??___xxtofl
  1527  0036' 0804'              	movf	??___xxtofl,w
  1528  0037' 0789'              	addwf	___xxtofl@exp,f
  1529  0038' 3001               	movlw	1
  1530  0039'                    u2435:	
  1531  0039' 1003               	clrc
  1532  003A' 0C8D'              	rrf	___xxtofl@arg+3,f
  1533  003B' 0C8C'              	rrf	___xxtofl@arg+2,f
  1534  003C' 0C8B'              	rrf	___xxtofl@arg+1,f
  1535  003D' 0C8A'              	rrf	___xxtofl@arg,f
  1536  003E' 3EFF               	addlw	-1
  1537  003F' 1D03               	skipz
  1538  0040' 2800'              	goto	u2435
  1539  0041' 2800'              	goto	l1700
  1540  0042'                    l1702:	
  1541  0042' 3001               	movlw	1
  1542  0043' 0084'              	movwf	??___xxtofl
  1543  0044' 0804'              	movf	??___xxtofl,w
  1544  0045' 0789'              	addwf	___xxtofl@exp,f
  1545  0046' 3001               	movlw	1
  1546  0047' 078A'              	addwf	___xxtofl@arg,f
  1547  0048' 3000               	movlw	0
  1548  0049' 1803               	skipnc
  1549  004A' 3001               	movlw	1
  1550  004B' 078B'              	addwf	___xxtofl@arg+1,f
  1551  004C' 3000               	movlw	0
  1552  004D' 1803               	skipnc
  1553  004E' 3001               	movlw	1
  1554  004F' 078C'              	addwf	___xxtofl@arg+2,f
  1555  0050' 3000               	movlw	0
  1556  0051' 1803               	skipnc
  1557  0052' 3001               	movlw	1
  1558  0053' 078D'              	addwf	___xxtofl@arg+3,f
  1559  0054' 3001               	movlw	1
  1560  0055'                    u2455:	
  1561  0055' 1003               	clrc
  1562  0056' 0C8D'              	rrf	___xxtofl@arg+3,f
  1563  0057' 0C8C'              	rrf	___xxtofl@arg+2,f
  1564  0058' 0C8B'              	rrf	___xxtofl@arg+1,f
  1565  0059' 0C8A'              	rrf	___xxtofl@arg,f
  1566  005A' 3EFF               	addlw	-1
  1567  005B' 1D03               	skipz
  1568  005C' 2800'              	goto	u2455
  1569  005D'                    l579:	
  1570  005D' 30FF               	movlw	255
  1571  005E' 050D'              	andwf	___xxtofl@arg+3,w
  1572  005F' 1903               	btfsc	3,2
  1573  0060' 2800'              	goto	l1710
  1574  0061' 2800'              	goto	l1702
  1575  0062'                    l1712:	
  1576  0062' 3002               	movlw	2
  1577  0063' 0209'              	subwf	___xxtofl@exp,w
  1578  0064' 1C03               	btfss	3,0
  1579  0065' 2800'              	goto	l586
  1580  0066' 3001               	movlw	1
  1581  0067' 0289'              	subwf	___xxtofl@exp,f
  1582  0068' 3001               	movlw	1
  1583  0069' 0084'              	movwf	??___xxtofl
  1584  006A'                    u2475:	
  1585  006A' 1003               	clrc
  1586  006B' 0D8A'              	rlf	___xxtofl@arg,f
  1587  006C' 0D8B'              	rlf	___xxtofl@arg+1,f
  1588  006D' 0D8C'              	rlf	___xxtofl@arg+2,f
  1589  006E' 0D8D'              	rlf	___xxtofl@arg+3,f
  1590  006F' 0B84'              	decfsz	??___xxtofl,f
  1591  0070' 2800'              	goto	u2475
  1592  0071'                    l1710:	
  1593  0071' 1F8C'              	btfss	___xxtofl@arg+2,7
  1594  0072' 2800'              	goto	l1712
  1595  0073'                    l586:	
  1596  0073' 1809'              	btfsc	___xxtofl@exp,0
  1597  0074' 2800'              	goto	l587
  1598  0075' 30FF               	movlw	255
  1599  0076' 058A'              	andwf	___xxtofl@arg,f
  1600  0077' 30FF               	movlw	255
  1601  0078' 058B'              	andwf	___xxtofl@arg+1,f
  1602  0079' 307F               	movlw	127
  1603  007A' 058C'              	andwf	___xxtofl@arg+2,f
  1604  007B' 30FF               	movlw	255
  1605  007C' 058D'              	andwf	___xxtofl@arg+3,f
  1606  007D'                    l587:	
  1607  007D' 1003               	clrc
  1608  007E' 0C89'              	rrf	___xxtofl@exp,f
  1609  007F' 0809'              	movf	___xxtofl@exp,w
  1610  0080' 0084'              	movwf	??___xxtofl
  1611  0081' 0185'              	clrf	??___xxtofl+1
  1612  0082' 0186'              	clrf	??___xxtofl+2
  1613  0083' 0187'              	clrf	??___xxtofl+3
  1614  0084' 3018               	movlw	24
  1615  0085'                    u2515:	
  1616  0085' 1003               	clrc
  1617  0086' 0D84'              	rlf	??___xxtofl,f
  1618  0087' 0D85'              	rlf	??___xxtofl+1,f
  1619  0088' 0D86'              	rlf	??___xxtofl+2,f
  1620  0089' 0D87'              	rlf	??___xxtofl+3,f
  1621  008A' 3EFF               	addlw	-1
  1622  008B' 1D03               	skipz
  1623  008C' 2800'              	goto	u2515
  1624  008D' 0804'              	movf	??___xxtofl,w
  1625  008E' 048A'              	iorwf	___xxtofl@arg,f
  1626  008F' 0805'              	movf	??___xxtofl+1,w
  1627  0090' 048B'              	iorwf	___xxtofl@arg+1,f
  1628  0091' 0806'              	movf	??___xxtofl+2,w
  1629  0092' 048C'              	iorwf	___xxtofl@arg+2,f
  1630  0093' 0807'              	movf	??___xxtofl+3,w
  1631  0094' 048D'              	iorwf	___xxtofl@arg+3,f
  1632  0095' 0808'              	movf	___xxtofl@sign,w
  1633  0096' 1D03               	btfss	3,2
  1634  0097' 1F83'              	btfss	___xxtofl@val+3,7
  1635  0098' 2800'              	goto	l1724
  1636  0099' 178D'              	bsf	___xxtofl@arg+3,7
  1637  009A'                    l1724:	
  1638  009A' 080D'              	movf	___xxtofl@arg+3,w
  1639  009B' 0083'              	movwf	?___xxtofl+3
  1640  009C' 080C'              	movf	___xxtofl@arg+2,w
  1641  009D' 0082'              	movwf	?___xxtofl+2
  1642  009E' 080B'              	movf	___xxtofl@arg+1,w
  1643  009F' 0081'              	movwf	?___xxtofl+1
  1644  00A0' 080A'              	movf	___xxtofl@arg,w
  1645  00A1' 0080'              	movwf	?___xxtofl
  1646  00A2' 0008               	return
  1647  00A3'                    __end_of___xxtofl:	
  1648                           
  1649                           	psect	text2
  1650  0000'                    __ptext2:	
  1651 ;; *************** function ___wmul *****************
  1652 ;; Defined at:
  1653 ;;		line 15 in file "C:\Program Files (x86)\Microchip\xc8\v2.05\pic\sources\c90\common\Umul16.c"
  1654 ;; Parameters:    Size  Location     Type
  1655 ;;  multiplier      2    0[COMMON] unsigned int 
  1656 ;;  multiplicand    2    2[COMMON] unsigned int 
  1657 ;; Auto vars:     Size  Location     Type
  1658 ;;  product         2    4[COMMON] unsigned int 
  1659 ;; Return value:  Size  Location     Type
  1660 ;;                  2    0[COMMON] unsigned int 
  1661 ;; Registers used:
  1662 ;;		wreg, status,2, status,0
  1663 ;; Tracked objects:
  1664 ;;		On entry : 0/0
  1665 ;;		On exit  : 0/0
  1666 ;;		Unchanged: 0/0
  1667 ;; Data sizes:     COMMON   BANK0   BANK1   BANK3   BANK2
  1668 ;;      Params:         4       0       0       0       0
  1669 ;;      Locals:         2       0       0       0       0
  1670 ;;      Temps:          0       0       0       0       0
  1671 ;;      Totals:         6       0       0       0       0
  1672 ;;Total ram usage:        6 bytes
  1673 ;; Hardware stack levels used:    1
  1674 ;; This function calls:
  1675 ;;		Nothing
  1676 ;; This function is called by:
  1677 ;;		_main
  1678 ;; This function uses a non-reentrant model
  1679 ;;
  1680                           
  1681                           
  1682                           ;psect for function ___wmul
  1683  0000'                    ___wmul:	
  1684                           
  1685                           ;incstack = 0
  1686                           ; Regs used in ___wmul: [wreg+status,2+status,0]
  1687  0000' 0184'              	clrf	___wmul@product
  1688  0001' 0185'              	clrf	___wmul@product+1
  1689  0002'                    l1470:	
  1690  0002' 1C00'              	btfss	___wmul@multiplier,0
  1691  0003' 2800'              	goto	l146
  1692  0004' 0802'              	movf	___wmul@multiplicand,w
  1693  0005' 0784'              	addwf	___wmul@product,f
  1694  0006' 1803               	skipnc
  1695  0007' 0A85'              	incf	___wmul@product+1,f
  1696  0008' 0803'              	movf	___wmul@multiplicand+1,w
  1697  0009' 0785'              	addwf	___wmul@product+1,f
  1698  000A'                    l146:	
  1699  000A' 3001               	movlw	1
  1700  000B'                    u1835:	
  1701  000B' 1003               	clrc
  1702  000C' 0D82'              	rlf	___wmul@multiplicand,f
  1703  000D' 0D83'              	rlf	___wmul@multiplicand+1,f
  1704  000E' 3EFF               	addlw	-1
  1705  000F' 1D03               	skipz
  1706  0010' 2800'              	goto	u1835
  1707  0011' 3001               	movlw	1
  1708  0012'                    u1845:	
  1709  0012' 1003               	clrc
  1710  0013' 0C81'              	rrf	___wmul@multiplier+1,f
  1711  0014' 0C80'              	rrf	___wmul@multiplier,f
  1712  0015' 3EFF               	addlw	-1
  1713  0016' 1D03               	skipz
  1714  0017' 2800'              	goto	u1845
  1715  0018' 0800'              	movf	___wmul@multiplier,w
  1716  0019' 0401'              	iorwf	___wmul@multiplier+1,w
  1717  001A' 1D03               	btfss	3,2
  1718  001B' 2800'              	goto	l1470
  1719  001C' 0805'              	movf	___wmul@product+1,w
  1720  001D' 0081'              	movwf	?___wmul+1
  1721  001E' 0804'              	movf	___wmul@product,w
  1722  001F' 0080'              	movwf	?___wmul
  1723  0020' 0008               	return
  1724  0021'                    __end_of___wmul:	
  1725                           
  1726                           	psect	text3
  1727  0000'                    __ptext3:	
  1728 ;; *************** function ___fltol *****************
  1729 ;; Defined at:
  1730 ;;		line 43 in file "C:\Program Files (x86)\Microchip\xc8\v2.05\pic\sources\c90\common\fltol.c"
  1731 ;; Parameters:    Size  Location     Type
  1732 ;;  f1              4   26[BANK0 ] unsigned int 
  1733 ;; Auto vars:     Size  Location     Type
  1734 ;;  exp1            1   36[BANK0 ] unsigned char 
  1735 ;;  sign1           1   35[BANK0 ] unsigned char 
  1736 ;; Return value:  Size  Location     Type
  1737 ;;                  4   26[BANK0 ] long 
  1738 ;; Registers used:
  1739 ;;		wreg, status,2, status,0
  1740 ;; Tracked objects:
  1741 ;;		On entry : 0/0
  1742 ;;		On exit  : 0/0
  1743 ;;		Unchanged: 0/0
  1744 ;; Data sizes:     COMMON   BANK0   BANK1   BANK3   BANK2
  1745 ;;      Params:         0       4       0       0       0
  1746 ;;      Locals:         0       2       0       0       0
  1747 ;;      Temps:          0       5       0       0       0
  1748 ;;      Totals:         0      11       0       0       0
  1749 ;;Total ram usage:       11 bytes
  1750 ;; Hardware stack levels used:    1
  1751 ;; This function calls:
  1752 ;;		Nothing
  1753 ;; This function is called by:
  1754 ;;		_main
  1755 ;; This function uses a non-reentrant model
  1756 ;;
  1757                           
  1758                           
  1759                           ;psect for function ___fltol
  1760  0000'                    ___fltol:	
  1761                           
  1762                           ;incstack = 0
  1763                           ; Regs used in ___fltol: [wreg+status,2+status,0]
  1764  0000' 1003               	clrc
  1765  0001' 1283               	bcf	3,5	;RP0=0, select bank0
  1766  0002' 1303               	bcf	3,6	;RP1=0, select bank0
  1767  0003' 0D1C'              	rlf	___fltol@f1+2,w
  1768  0004' 0D1D'              	rlf	___fltol@f1+3,w
  1769  0005' 009E'              	movwf	??___fltol
  1770  0006' 081E'              	movf	??___fltol,w
  1771  0007' 00A4'              	movwf	___fltol@exp1
  1772  0008' 0824'              	movf	___fltol@exp1,w
  1773  0009' 1D03               	btfss	3,2
  1774  000A' 2800'              	goto	l1508
  1775  000B'                    l1504:	
  1776  000B' 3000               	movlw	0
  1777  000C' 009D'              	movwf	?___fltol+3
  1778  000D' 3000               	movlw	0
  1779  000E' 009C'              	movwf	?___fltol+2
  1780  000F' 3000               	movlw	0
  1781  0010' 009B'              	movwf	?___fltol+1
  1782  0011' 3000               	movlw	0
  1783  0012' 009A'              	movwf	?___fltol
  1784  0013' 0008               	return
  1785  0014'                    l1508:	
  1786  0014' 081A'              	movf	___fltol@f1,w
  1787  0015' 009E'              	movwf	??___fltol
  1788  0016' 081B'              	movf	___fltol@f1+1,w
  1789  0017' 009F'              	movwf	??___fltol+1
  1790  0018' 081C'              	movf	___fltol@f1+2,w
  1791  0019' 00A0'              	movwf	??___fltol+2
  1792  001A' 081D'              	movf	___fltol@f1+3,w
  1793  001B' 00A1'              	movwf	??___fltol+3
  1794  001C' 301F               	movlw	31
  1795  001D'                    u1945:	
  1796  001D' 1003               	clrc
  1797  001E' 0CA1'              	rrf	??___fltol+3,f
  1798  001F' 0CA0'              	rrf	??___fltol+2,f
  1799  0020' 0C9F'              	rrf	??___fltol+1,f
  1800  0021' 0C9E'              	rrf	??___fltol,f
  1801  0022' 3EFF               	addlw	-1
  1802  0023' 1D03               	skipz
  1803  0024' 2800'              	goto	u1945
  1804  0025' 081E'              	movf	??___fltol,w
  1805  0026' 00A2'              	movwf	??___fltol+4
  1806  0027' 0822'              	movf	??___fltol+4,w
  1807  0028' 00A3'              	movwf	___fltol@sign1
  1808  0029' 179C'              	bsf	___fltol@f1+2,7
  1809  002A' 30FF               	movlw	255
  1810  002B' 059A'              	andwf	___fltol@f1,f
  1811  002C' 30FF               	movlw	255
  1812  002D' 059B'              	andwf	___fltol@f1+1,f
  1813  002E' 30FF               	movlw	255
  1814  002F' 059C'              	andwf	___fltol@f1+2,f
  1815  0030' 3000               	movlw	0
  1816  0031' 059D'              	andwf	___fltol@f1+3,f
  1817  0032' 3096               	movlw	150
  1818  0033' 02A4'              	subwf	___fltol@exp1,f
  1819  0034' 1FA4'              	btfss	___fltol@exp1,7
  1820  0035' 2800'              	goto	l1526
  1821  0036' 0824'              	movf	___fltol@exp1,w
  1822  0037' 3A80               	xorlw	128
  1823  0038' 3E97               	addlw	151
  1824  0039' 1C03               	btfss	3,0
  1825  003A' 2800'              	goto	l1504
  1826  003B'                    l1524:	
  1827  003B' 3001               	movlw	1
  1828  003C'                    u1975:	
  1829  003C' 1003               	clrc
  1830  003D' 0C9D'              	rrf	___fltol@f1+3,f
  1831  003E' 0C9C'              	rrf	___fltol@f1+2,f
  1832  003F' 0C9B'              	rrf	___fltol@f1+1,f
  1833  0040' 0C9A'              	rrf	___fltol@f1,f
  1834  0041' 3EFF               	addlw	-1
  1835  0042' 1D03               	skipz
  1836  0043' 2800'              	goto	u1975
  1837  0044' 3001               	movlw	1
  1838  0045' 009E'              	movwf	??___fltol
  1839  0046' 081E'              	movf	??___fltol,w
  1840  0047' 07A4'              	addwf	___fltol@exp1,f
  1841  0048' 1903               	btfsc	3,2
  1842  0049' 2800'              	goto	l1534
  1843  004A' 2800'              	goto	l1524
  1844  004B'                    l1526:	
  1845  004B' 3020               	movlw	32
  1846  004C' 0224'              	subwf	___fltol@exp1,w
  1847  004D' 1803               	btfsc	3,0
  1848  004E' 2800'              	goto	l1504
  1849  004F'                    l339:	
  1850  004F' 0824'              	movf	___fltol@exp1,w
  1851  0050' 1903               	btfsc	3,2
  1852  0051' 2800'              	goto	l1534
  1853  0052' 3001               	movlw	1
  1854  0053' 009E'              	movwf	??___fltol
  1855  0054'                    u2005:	
  1856  0054' 1003               	clrc
  1857  0055' 0D9A'              	rlf	___fltol@f1,f
  1858  0056' 0D9B'              	rlf	___fltol@f1+1,f
  1859  0057' 0D9C'              	rlf	___fltol@f1+2,f
  1860  0058' 0D9D'              	rlf	___fltol@f1+3,f
  1861  0059' 0B9E'              	decfsz	??___fltol,f
  1862  005A' 2800'              	goto	u2005
  1863  005B' 3001               	movlw	1
  1864  005C' 02A4'              	subwf	___fltol@exp1,f
  1865  005D' 2800'              	goto	l339
  1866  005E'                    l1534:	
  1867  005E' 0823'              	movf	___fltol@sign1,w
  1868  005F' 1903               	btfsc	3,2
  1869  0060' 0008               	return
  1870  0061' 099A'              	comf	___fltol@f1,f
  1871  0062' 099B'              	comf	___fltol@f1+1,f
  1872  0063' 099C'              	comf	___fltol@f1+2,f
  1873  0064' 099D'              	comf	___fltol@f1+3,f
  1874  0065' 0A9A'              	incf	___fltol@f1,f
  1875  0066' 1903               	skipnz
  1876  0067' 0A9B'              	incf	___fltol@f1+1,f
  1877  0068' 1903               	skipnz
  1878  0069' 0A9C'              	incf	___fltol@f1+2,f
  1879  006A' 1903               	skipnz
  1880  006B' 0A9D'              	incf	___fltol@f1+3,f
  1881  006C' 0008               	return
  1882  006D'                    __end_of___fltol:	
  1883                           
  1884                           	psect	text4
  1885  0000'                    __ptext4:	
  1886 ;; *************** function ___flsub *****************
  1887 ;; Defined at:
  1888 ;;		line 242 in file "C:\Program Files (x86)\Microchip\xc8\v2.05\pic\sources\c90\common\sprcadd.c"
  1889 ;; Parameters:    Size  Location     Type
  1890 ;;  a               4    8[BANK0 ] long 
  1891 ;;  b               4   12[BANK0 ] long 
  1892 ;; Auto vars:     Size  Location     Type
  1893 ;;		None
  1894 ;; Return value:  Size  Location     Type
  1895 ;;                  4    8[BANK0 ] long 
  1896 ;; Registers used:
  1897 ;;		wreg, status,2, status,0, btemp+1, pclath, cstack
  1898 ;; Tracked objects:
  1899 ;;		On entry : 0/0
  1900 ;;		On exit  : 0/0
  1901 ;;		Unchanged: 0/0
  1902 ;; Data sizes:     COMMON   BANK0   BANK1   BANK3   BANK2
  1903 ;;      Params:         0       8       0       0       0
  1904 ;;      Locals:         0       0       0       0       0
  1905 ;;      Temps:          0       0       0       0       0
  1906 ;;      Totals:         0       8       0       0       0
  1907 ;;Total ram usage:        8 bytes
  1908 ;; Hardware stack levels used:    1
  1909 ;; Hardware stack levels required when called:    1
  1910 ;; This function calls:
  1911 ;;		___fladd
  1912 ;; This function is called by:
  1913 ;;		_main
  1914 ;; This function uses a non-reentrant model
  1915 ;;
  1916                           
  1917                           
  1918                           ;psect for function ___flsub
  1919  0000'                    ___flsub:	
  1920                           
  1921                           ;incstack = 0
  1922                           ; Regs used in ___flsub: [wreg+status,2+status,0+btemp+1+pclath+cstack]
  1923  0000' 3080               	movlw	128
  1924  0001' 1283               	bcf	3,5	;RP0=0, select bank0
  1925  0002' 1303               	bcf	3,6	;RP1=0, select bank0
  1926  0003' 068B'              	xorwf	___flsub@a+3,f
  1927  0004' 080F'              	movf	___flsub@b+3,w
  1928  0005' 0083'              	movwf	___fladd@b+3
  1929  0006' 080E'              	movf	___flsub@b+2,w
  1930  0007' 0082'              	movwf	___fladd@b+2
  1931  0008' 080D'              	movf	___flsub@b+1,w
  1932  0009' 0081'              	movwf	___fladd@b+1
  1933  000A' 080C'              	movf	___flsub@b,w
  1934  000B' 0080'              	movwf	___fladd@b
  1935  000C' 080B'              	movf	___flsub@a+3,w
  1936  000D' 0087'              	movwf	___fladd@a+3
  1937  000E' 080A'              	movf	___flsub@a+2,w
  1938  000F' 0086'              	movwf	___fladd@a+2
  1939  0010' 0809'              	movf	___flsub@a+1,w
  1940  0011' 0085'              	movwf	___fladd@a+1
  1941  0012' 0808'              	movf	___flsub@a,w
  1942  0013' 0084'              	movwf	___fladd@a
  1943  0014' 120A' 118A' 2000'  	fcall	___fladd
  1944  0017' 0803'              	movf	?___fladd+3,w
  1945  0018' 1283               	bcf	3,5	;RP0=0, select bank0
  1946  0019' 1303               	bcf	3,6	;RP1=0, select bank0
  1947  001A' 008B'              	movwf	?___flsub+3
  1948  001B' 0802'              	movf	?___fladd+2,w
  1949  001C' 008A'              	movwf	?___flsub+2
  1950  001D' 0801'              	movf	?___fladd+1,w
  1951  001E' 0089'              	movwf	?___flsub+1
  1952  001F' 0800'              	movf	?___fladd,w
  1953  0020' 0088'              	movwf	?___flsub
  1954  0021' 0008               	return
  1955  0022'                    __end_of___flsub:	
  1956                           
  1957                           	psect	text5
  1958  0000'                    __ptext5:	
  1959 ;; *************** function ___fladd *****************
  1960 ;; Defined at:
  1961 ;;		line 10 in file "C:\Program Files (x86)\Microchip\xc8\v2.05\pic\sources\c90\common\sprcadd.c"
  1962 ;; Parameters:    Size  Location     Type
  1963 ;;  b               4    0[COMMON] long 
  1964 ;;  a               4    4[COMMON] long 
  1965 ;; Auto vars:     Size  Location     Type
  1966 ;;  grs             1   11[COMMON] unsigned char 
  1967 ;;  bexp            1   10[COMMON] unsigned char 
  1968 ;;  aexp            1    9[COMMON] unsigned char 
  1969 ;;  signs           1    8[COMMON] unsigned char 
  1970 ;; Return value:  Size  Location     Type
  1971 ;;                  4    0[COMMON] unsigned char 
  1972 ;; Registers used:
  1973 ;;		wreg, status,2, status,0, btemp+1
  1974 ;; Tracked objects:
  1975 ;;		On entry : 0/0
  1976 ;;		On exit  : 0/0
  1977 ;;		Unchanged: 0/0
  1978 ;; Data sizes:     COMMON   BANK0   BANK1   BANK3   BANK2
  1979 ;;      Params:         8       0       0       0       0
  1980 ;;      Locals:         4       0       0       0       0
  1981 ;;      Temps:          0       8       0       0       0
  1982 ;;      Totals:        12       8       0       0       0
  1983 ;;Total ram usage:       20 bytes
  1984 ;; Hardware stack levels used:    1
  1985 ;; This function calls:
  1986 ;;		Nothing
  1987 ;; This function is called by:
  1988 ;;		___flsub
  1989 ;; This function uses a non-reentrant model
  1990 ;;
  1991                           
  1992                           
  1993                           ;psect for function ___fladd
  1994  0000'                    ___fladd:	
  1995                           
  1996                           ;incstack = 0
  1997                           ; Regs used in ___fladd: [wreg+status,2+status,0+btemp+1]
  1998  0000' 0803'              	movf	___fladd@b+3,w
  1999  0001' 3980               	andlw	128
  2000  0002' 1283               	bcf	3,5	;RP0=0, select bank0
  2001  0003' 1303               	bcf	3,6	;RP1=0, select bank0
  2002  0004' 0080'              	movwf	??___fladd
  2003  0005' 0800'              	movf	??___fladd,w
  2004  0006' 0088'              	movwf	___fladd@signs
  2005  0007' 0803'              	movf	___fladd@b+3,w
  2006  0008' 0080'              	movwf	??___fladd
  2007  0009' 0700'              	addwf	??___fladd,w
  2008  000A' 0081'              	movwf	??___fladd+1
  2009  000B' 0801'              	movf	??___fladd+1,w
  2010  000C' 008A'              	movwf	___fladd@bexp
  2011  000D' 1B82'              	btfsc	___fladd@b+2,7
  2012  000E' 140A'              	bsf	___fladd@bexp,0
  2013  000F' 080A'              	movf	___fladd@bexp,w
  2014  0010' 1903               	btfsc	3,2
  2015  0011' 2800'              	goto	l1278
  2016  0012' 0A0A'              	incf	___fladd@bexp,w
  2017  0013' 1D03               	btfss	3,2
  2018  0014' 2800'              	goto	l1274
  2019  0015' 3000               	movlw	0
  2020  0016' 0083'              	movwf	___fladd@b+3
  2021  0017' 3000               	movlw	0
  2022  0018' 0082'              	movwf	___fladd@b+2
  2023  0019' 3000               	movlw	0
  2024  001A' 0081'              	movwf	___fladd@b+1
  2025  001B' 3000               	movlw	0
  2026  001C' 0080'              	movwf	___fladd@b
  2027  001D'                    l1274:	
  2028  001D' 1782'              	bsf	___fladd@b+2,7
  2029  001E' 0183'              	clrf	___fladd@b+3
  2030  001F' 2800'              	goto	l1280
  2031  0020'                    l1278:	
  2032  0020' 3000               	movlw	0
  2033  0021' 0083'              	movwf	___fladd@b+3
  2034  0022' 3000               	movlw	0
  2035  0023' 0082'              	movwf	___fladd@b+2
  2036  0024' 3000               	movlw	0
  2037  0025' 0081'              	movwf	___fladd@b+1
  2038  0026' 3000               	movlw	0
  2039  0027' 0080'              	movwf	___fladd@b
  2040  0028'                    l1280:	
  2041  0028' 0807'              	movf	___fladd@a+3,w
  2042  0029' 3980               	andlw	128
  2043  002A' 0080'              	movwf	??___fladd
  2044  002B' 0800'              	movf	??___fladd,w
  2045  002C' 0089'              	movwf	___fladd@aexp
  2046  002D' 0809'              	movf	___fladd@aexp,w
  2047  002E' 0608'              	xorwf	___fladd@signs,w
  2048  002F' 1D03               	btfss	3,2
  2049  0030' 1708'              	bsf	___fladd@signs,6
  2050  0031' 0807'              	movf	___fladd@a+3,w
  2051  0032' 0080'              	movwf	??___fladd
  2052  0033' 0700'              	addwf	??___fladd,w
  2053  0034' 0081'              	movwf	??___fladd+1
  2054  0035' 0801'              	movf	??___fladd+1,w
  2055  0036' 0089'              	movwf	___fladd@aexp
  2056  0037' 1B86'              	btfsc	___fladd@a+2,7
  2057  0038' 1409'              	bsf	___fladd@aexp,0
  2058  0039' 0809'              	movf	___fladd@aexp,w
  2059  003A' 1903               	btfsc	3,2
  2060  003B' 2800'              	goto	l1302
  2061  003C' 0A09'              	incf	___fladd@aexp,w
  2062  003D' 1D03               	btfss	3,2
  2063  003E' 2800'              	goto	l1298
  2064  003F' 3000               	movlw	0
  2065  0040' 0087'              	movwf	___fladd@a+3
  2066  0041' 3000               	movlw	0
  2067  0042' 0086'              	movwf	___fladd@a+2
  2068  0043' 3000               	movlw	0
  2069  0044' 0085'              	movwf	___fladd@a+1
  2070  0045' 3000               	movlw	0
  2071  0046' 0084'              	movwf	___fladd@a
  2072  0047'                    l1298:	
  2073  0047' 1786'              	bsf	___fladd@a+2,7
  2074  0048' 0187'              	clrf	___fladd@a+3
  2075  0049' 2800'              	goto	l439
  2076  004A'                    l1302:	
  2077  004A' 3000               	movlw	0
  2078  004B' 0087'              	movwf	___fladd@a+3
  2079  004C' 3000               	movlw	0
  2080  004D' 0086'              	movwf	___fladd@a+2
  2081  004E' 3000               	movlw	0
  2082  004F' 0085'              	movwf	___fladd@a+1
  2083  0050' 3000               	movlw	0
  2084  0051' 0084'              	movwf	___fladd@a
  2085  0052'                    l439:	
  2086  0052' 080A'              	movf	___fladd@bexp,w
  2087  0053' 0209'              	subwf	___fladd@aexp,w
  2088  0054' 1803               	skipnc
  2089  0055' 2800'              	goto	l1338
  2090  0056' 1F08'              	btfss	___fladd@signs,6
  2091  0057' 2800'              	goto	l1308
  2092  0058' 3080               	movlw	128
  2093  0059' 0080'              	movwf	??___fladd
  2094  005A' 0800'              	movf	??___fladd,w
  2095  005B' 0688'              	xorwf	___fladd@signs,f
  2096  005C'                    l1308:	
  2097  005C' 080A'              	movf	___fladd@bexp,w
  2098  005D' 0080'              	movwf	??___fladd
  2099  005E' 0800'              	movf	??___fladd,w
  2100  005F' 008B'              	movwf	___fladd@grs
  2101  0060' 0809'              	movf	___fladd@aexp,w
  2102  0061' 0080'              	movwf	??___fladd
  2103  0062' 0800'              	movf	??___fladd,w
  2104  0063' 008A'              	movwf	___fladd@bexp
  2105  0064' 080B'              	movf	___fladd@grs,w
  2106  0065' 0080'              	movwf	??___fladd
  2107  0066' 0800'              	movf	??___fladd,w
  2108  0067' 0089'              	movwf	___fladd@aexp
  2109  0068' 0800'              	movf	___fladd@b,w
  2110  0069' 0080'              	movwf	??___fladd
  2111  006A' 0800'              	movf	??___fladd,w
  2112  006B' 008B'              	movwf	___fladd@grs
  2113  006C' 0804'              	movf	___fladd@a,w
  2114  006D' 0080'              	movwf	??___fladd
  2115  006E' 0800'              	movf	??___fladd,w
  2116  006F' 0080'              	movwf	___fladd@b
  2117  0070' 080B'              	movf	___fladd@grs,w
  2118  0071' 0080'              	movwf	??___fladd
  2119  0072' 0800'              	movf	??___fladd,w
  2120  0073' 0084'              	movwf	___fladd@a
  2121  0074' 0801'              	movf	___fladd@b+1,w
  2122  0075' 0080'              	movwf	??___fladd
  2123  0076' 0800'              	movf	??___fladd,w
  2124  0077' 008B'              	movwf	___fladd@grs
  2125  0078' 0805'              	movf	___fladd@a+1,w
  2126  0079' 0080'              	movwf	??___fladd
  2127  007A' 0800'              	movf	??___fladd,w
  2128  007B' 0081'              	movwf	___fladd@b+1
  2129  007C' 080B'              	movf	___fladd@grs,w
  2130  007D' 0080'              	movwf	??___fladd
  2131  007E' 0800'              	movf	??___fladd,w
  2132  007F' 0085'              	movwf	___fladd@a+1
  2133  0080' 0802'              	movf	___fladd@b+2,w
  2134  0081' 0080'              	movwf	??___fladd
  2135  0082' 0800'              	movf	??___fladd,w
  2136  0083' 008B'              	movwf	___fladd@grs
  2137  0084' 0806'              	movf	___fladd@a+2,w
  2138  0085' 0080'              	movwf	??___fladd
  2139  0086' 0800'              	movf	??___fladd,w
  2140  0087' 0082'              	movwf	___fladd@b+2
  2141  0088' 080B'              	movf	___fladd@grs,w
  2142  0089' 0080'              	movwf	??___fladd
  2143  008A' 0800'              	movf	??___fladd,w
  2144  008B' 0086'              	movwf	___fladd@a+2
  2145  008C' 0803'              	movf	___fladd@b+3,w
  2146  008D' 0080'              	movwf	??___fladd
  2147  008E' 0800'              	movf	??___fladd,w
  2148  008F' 008B'              	movwf	___fladd@grs
  2149  0090' 0807'              	movf	___fladd@a+3,w
  2150  0091' 0080'              	movwf	??___fladd
  2151  0092' 0800'              	movf	??___fladd,w
  2152  0093' 0083'              	movwf	___fladd@b+3
  2153  0094' 080B'              	movf	___fladd@grs,w
  2154  0095' 0080'              	movwf	??___fladd
  2155  0096' 0800'              	movf	??___fladd,w
  2156  0097' 0087'              	movwf	___fladd@a+3
  2157  0098'                    l1338:	
  2158  0098' 018B'              	clrf	___fladd@grs
  2159  0099' 0809'              	movf	___fladd@aexp,w
  2160  009A' 0080'              	movwf	??___fladd
  2161  009B' 0181'              	clrf	??___fladd+1
  2162  009C' 0801'              	movf	??___fladd+1,w
  2163  009D' 0083'              	movwf	??___fladd+3
  2164  009E' 080A'              	movf	___fladd@bexp,w
  2165  009F' 0200'              	subwf	??___fladd,w
  2166  00A0' 0082'              	movwf	??___fladd+2
  2167  00A1' 1C03               	skipc
  2168  00A2' 0383'              	decf	??___fladd+3,f
  2169  00A3' 0803'              	movf	??___fladd+3,w
  2170  00A4' 3A80               	xorlw	128
  2171  00A5' 00FF               	movwf	127
  2172  00A6' 3080               	movlw	128
  2173  00A7' 027F               	subwf	127,w
  2174  00A8' 1D03               	skipz
  2175  00A9' 2800'              	goto	u1425
  2176  00AA' 301A               	movlw	26
  2177  00AB' 0202'              	subwf	??___fladd+2,w
  2178  00AC'                    u1425:	
  2179  00AC' 1C03               	skipc
  2180  00AD' 2800'              	goto	l1356
  2181  00AE' 0803'              	movf	___fladd@b+3,w
  2182  00AF' 0402'              	iorwf	___fladd@b+2,w
  2183  00B0' 0401'              	iorwf	___fladd@b+1,w
  2184  00B1' 0400'              	iorwf	___fladd@b,w
  2185  00B2' 1903               	btfsc	3,2
  2186  00B3' 2800'              	goto	u1430
  2187  00B4' 3001               	movlw	1
  2188  00B5' 2800'              	goto	u1440
  2189  00B6'                    u1430:	
  2190  00B6' 3000               	movlw	0
  2191  00B7'                    u1440:	
  2192  00B7' 1283               	bcf	3,5	;RP0=0, select bank0
  2193  00B8' 1303               	bcf	3,6	;RP1=0, select bank0
  2194  00B9' 0080'              	movwf	??___fladd
  2195  00BA' 0800'              	movf	??___fladd,w
  2196  00BB' 008B'              	movwf	___fladd@grs
  2197  00BC' 3000               	movlw	0
  2198  00BD' 0083'              	movwf	___fladd@b+3
  2199  00BE' 3000               	movlw	0
  2200  00BF' 0082'              	movwf	___fladd@b+2
  2201  00C0' 3000               	movlw	0
  2202  00C1' 0081'              	movwf	___fladd@b+1
  2203  00C2' 3000               	movlw	0
  2204  00C3' 0080'              	movwf	___fladd@b
  2205  00C4' 0809'              	movf	___fladd@aexp,w
  2206  00C5' 0080'              	movwf	??___fladd
  2207  00C6' 0800'              	movf	??___fladd,w
  2208  00C7' 008A'              	movwf	___fladd@bexp
  2209  00C8' 2800'              	goto	l443
  2210  00C9'                    l445:	
  2211  00C9' 1C0B'              	btfss	___fladd@grs,0
  2212  00CA' 2800'              	goto	l1346
  2213  00CB' 080B'              	movf	___fladd@grs,w
  2214  00CC' 1283               	bcf	3,5	;RP0=0, select bank0
  2215  00CD' 1303               	bcf	3,6	;RP1=0, select bank0
  2216  00CE' 0080'              	movwf	??___fladd
  2217  00CF' 1003               	clrc
  2218  00D0' 0C00'              	rrf	??___fladd,w
  2219  00D1' 3801               	iorlw	1
  2220  00D2' 0081'              	movwf	??___fladd+1
  2221  00D3' 0801'              	movf	??___fladd+1,w
  2222  00D4' 008B'              	movwf	___fladd@grs
  2223  00D5' 2800'              	goto	l1348
  2224  00D6'                    l1346:	
  2225  00D6' 1003               	clrc
  2226  00D7' 0C8B'              	rrf	___fladd@grs,f
  2227  00D8'                    l1348:	
  2228  00D8' 1800'              	btfsc	___fladd@b,0
  2229  00D9' 178B'              	bsf	___fladd@grs,7
  2230  00DA' 3001               	movlw	1
  2231  00DB' 1283               	bcf	3,5	;RP0=0, select bank0
  2232  00DC' 1303               	bcf	3,6	;RP1=0, select bank0
  2233  00DD' 0080'              	movwf	??___fladd
  2234  00DE'                    u1475:	
  2235  00DE' 0D03'              	rlf	___fladd@b+3,w
  2236  00DF' 0C83'              	rrf	___fladd@b+3,f
  2237  00E0' 0C82'              	rrf	___fladd@b+2,f
  2238  00E1' 0C81'              	rrf	___fladd@b+1,f
  2239  00E2' 0C80'              	rrf	___fladd@b,f
  2240  00E3' 0B80'              	decfsz	??___fladd& (0+127),f
  2241  00E4' 2800'              	goto	u1475
  2242  00E5' 3001               	movlw	1
  2243  00E6' 0080'              	movwf	??___fladd
  2244  00E7' 0800'              	movf	??___fladd,w
  2245  00E8' 078A'              	addwf	___fladd@bexp,f
  2246  00E9'                    l1356:	
  2247  00E9' 0809'              	movf	___fladd@aexp,w
  2248  00EA' 020A'              	subwf	___fladd@bexp,w
  2249  00EB' 1C03               	skipc
  2250  00EC' 2800'              	goto	l445
  2251  00ED'                    l443:	
  2252  00ED' 1B08'              	btfsc	___fladd@signs,6
  2253  00EE' 2800'              	goto	l1382
  2254  00EF' 080A'              	movf	___fladd@bexp,w
  2255  00F0' 1D03               	btfss	3,2
  2256  00F1' 2800'              	goto	l1364
  2257  00F2' 3000               	movlw	0
  2258  00F3' 0083'              	movwf	?___fladd+3
  2259  00F4' 3000               	movlw	0
  2260  00F5' 0082'              	movwf	?___fladd+2
  2261  00F6' 3000               	movlw	0
  2262  00F7' 0081'              	movwf	?___fladd+1
  2263  00F8' 3000               	movlw	0
  2264  00F9' 0080'              	movwf	?___fladd
  2265  00FA' 0008               	return
  2266  00FB'                    l1364:	
  2267  00FB' 0804'              	movf	___fladd@a,w
  2268  00FC' 0780'              	addwf	___fladd@b,f
  2269  00FD' 0805'              	movf	___fladd@a+1,w
  2270  00FE' 1103               	clrz
  2271  00FF' 1803               	skipnc
  2272  0100' 3E01               	addlw	1
  2273  0101' 1D03               	btfss	3,2
  2274  0102' 0781'              	addwf	___fladd@b+1,f
  2275  0103' 0806'              	movf	___fladd@a+2,w
  2276  0104' 1103               	clrz
  2277  0105' 1803               	skipnc
  2278  0106' 3E01               	addlw	1
  2279  0107' 1D03               	btfss	3,2
  2280  0108' 0782'              	addwf	___fladd@b+2,f
  2281  0109' 0807'              	movf	___fladd@a+3,w
  2282  010A' 1103               	clrz
  2283  010B' 1803               	skipnc
  2284  010C' 3E01               	addlw	1
  2285  010D' 1D03               	btfss	3,2
  2286  010E' 0783'              	addwf	___fladd@b+3,f
  2287  010F' 1C03'              	btfss	___fladd@b+3,0
  2288  0110' 2800'              	goto	l1416
  2289  0111' 1C0B'              	btfss	___fladd@grs,0
  2290  0112' 2800'              	goto	l1372
  2291  0113' 080B'              	movf	___fladd@grs,w
  2292  0114' 1283               	bcf	3,5	;RP0=0, select bank0
  2293  0115' 1303               	bcf	3,6	;RP1=0, select bank0
  2294  0116' 0080'              	movwf	??___fladd
  2295  0117' 1003               	clrc
  2296  0118' 0C00'              	rrf	??___fladd,w
  2297  0119' 3801               	iorlw	1
  2298  011A' 0081'              	movwf	??___fladd+1
  2299  011B' 0801'              	movf	??___fladd+1,w
  2300  011C' 008B'              	movwf	___fladd@grs
  2301  011D' 2800'              	goto	l1374
  2302  011E'                    l1372:	
  2303  011E' 1003               	clrc
  2304  011F' 0C8B'              	rrf	___fladd@grs,f
  2305  0120'                    l1374:	
  2306  0120' 1800'              	btfsc	___fladd@b,0
  2307  0121' 178B'              	bsf	___fladd@grs,7
  2308  0122' 3001               	movlw	1
  2309  0123' 1283               	bcf	3,5	;RP0=0, select bank0
  2310  0124' 1303               	bcf	3,6	;RP1=0, select bank0
  2311  0125' 0080'              	movwf	??___fladd
  2312  0126'                    u1555:	
  2313  0126' 0D03'              	rlf	___fladd@b+3,w
  2314  0127' 0C83'              	rrf	___fladd@b+3,f
  2315  0128' 0C82'              	rrf	___fladd@b+2,f
  2316  0129' 0C81'              	rrf	___fladd@b+1,f
  2317  012A' 0C80'              	rrf	___fladd@b,f
  2318  012B' 0B80'              	decfsz	??___fladd& (0+127),f
  2319  012C' 2800'              	goto	u1555
  2320  012D' 3001               	movlw	1
  2321  012E' 0080'              	movwf	??___fladd
  2322  012F' 0800'              	movf	??___fladd,w
  2323  0130' 078A'              	addwf	___fladd@bexp,f
  2324  0131' 2800'              	goto	l1416
  2325  0132'                    l1382:	
  2326  0132' 0803'              	movf	___fladd@b+3,w
  2327  0133' 3A80               	xorlw	128
  2328  0134' 00FF               	movwf	127
  2329  0135' 0807'              	movf	___fladd@a+3,w
  2330  0136' 3A80               	xorlw	128
  2331  0137' 027F               	subwf	127,w
  2332  0138' 1D03               	skipz
  2333  0139' 2800'              	goto	u1563
  2334  013A' 0806'              	movf	___fladd@a+2,w
  2335  013B' 0202'              	subwf	___fladd@b+2,w
  2336  013C' 1D03               	skipz
  2337  013D' 2800'              	goto	u1563
  2338  013E' 0805'              	movf	___fladd@a+1,w
  2339  013F' 0201'              	subwf	___fladd@b+1,w
  2340  0140' 1D03               	skipz
  2341  0141' 2800'              	goto	u1563
  2342  0142' 0804'              	movf	___fladd@a,w
  2343  0143' 0200'              	subwf	___fladd@b,w
  2344  0144'                    u1563:	
  2345  0144' 1803               	skipnc
  2346  0145' 2800'              	goto	l1392
  2347  0146' 30FF               	movlw	255
  2348  0147' 1283               	bcf	3,5	;RP0=0, select bank0
  2349  0148' 1303               	bcf	3,6	;RP1=0, select bank0
  2350  0149' 0080'              	movwf	??___fladd
  2351  014A' 30FF               	movlw	255
  2352  014B' 0081'              	movwf	??___fladd+1
  2353  014C' 30FF               	movlw	255
  2354  014D' 0082'              	movwf	??___fladd+2
  2355  014E' 30FF               	movlw	255
  2356  014F' 0083'              	movwf	??___fladd+3
  2357  0150' 0804'              	movf	___fladd@a,w
  2358  0151' 0084'              	movwf	??___fladd+4
  2359  0152' 0805'              	movf	___fladd@a+1,w
  2360  0153' 0085'              	movwf	??___fladd+5
  2361  0154' 0806'              	movf	___fladd@a+2,w
  2362  0155' 0086'              	movwf	??___fladd+6
  2363  0156' 0807'              	movf	___fladd@a+3,w
  2364  0157' 0087'              	movwf	??___fladd+7
  2365  0158' 0800'              	movf	___fladd@b,w
  2366  0159' 0284'              	subwf	??___fladd+4,f
  2367  015A' 0801'              	movf	___fladd@b+1,w
  2368  015B' 1C03               	skipc
  2369  015C' 0F01'              	incfsz	___fladd@b+1,w
  2370  015D' 2800'              	goto	u1571
  2371  015E' 2800'              	goto	u1572
  2372  015F'                    u1571:	
  2373  015F' 0285'              	subwf	??___fladd+5,f
  2374  0160'                    u1572:	
  2375  0160' 0802'              	movf	___fladd@b+2,w
  2376  0161' 1C03               	skipc
  2377  0162' 0F02'              	incfsz	___fladd@b+2,w
  2378  0163' 2800'              	goto	u1573
  2379  0164' 2800'              	goto	u1574
  2380  0165'                    u1573:	
  2381  0165' 0286'              	subwf	??___fladd+6,f
  2382  0166'                    u1574:	
  2383  0166' 0803'              	movf	___fladd@b+3,w
  2384  0167' 1C03               	skipc
  2385  0168' 0F03'              	incfsz	___fladd@b+3,w
  2386  0169' 2800'              	goto	u1575
  2387  016A' 2800'              	goto	u1576
  2388  016B'                    u1575:	
  2389  016B' 0287'              	subwf	??___fladd+7,f
  2390  016C'                    u1576:	
  2391  016C' 0804'              	movf	??___fladd+4,w
  2392  016D' 0780'              	addwf	??___fladd,f
  2393  016E' 0805'              	movf	??___fladd+5,w
  2394  016F' 1803               	skipnc
  2395  0170' 0F05'              	incfsz	??___fladd+5,w
  2396  0171' 2800'              	goto	u1580
  2397  0172' 2800'              	goto	u1581
  2398  0173'                    u1580:	
  2399  0173' 0781'              	addwf	??___fladd+1,f
  2400  0174'                    u1581:	
  2401  0174' 0806'              	movf	??___fladd+6,w
  2402  0175' 1803               	skipnc
  2403  0176' 0F06'              	incfsz	??___fladd+6,w
  2404  0177' 2800'              	goto	u1582
  2405  0178' 2800'              	goto	u1583
  2406  0179'                    u1582:	
  2407  0179' 0782'              	addwf	??___fladd+2,f
  2408  017A'                    u1583:	
  2409  017A' 0807'              	movf	??___fladd+7,w
  2410  017B' 1803               	skipnc
  2411  017C' 0A07'              	incf	??___fladd+7,w
  2412  017D' 0783'              	addwf	??___fladd+3,f
  2413  017E' 0803'              	movf	??___fladd+3,w
  2414  017F' 0083'              	movwf	___fladd@b+3
  2415  0180' 0802'              	movf	??___fladd+2,w
  2416  0181' 0082'              	movwf	___fladd@b+2
  2417  0182' 0801'              	movf	??___fladd+1,w
  2418  0183' 0081'              	movwf	___fladd@b+1
  2419  0184' 0800'              	movf	??___fladd,w
  2420  0185' 0080'              	movwf	___fladd@b
  2421  0186' 3080               	movlw	128
  2422  0187' 0080'              	movwf	??___fladd
  2423  0188' 0800'              	movf	??___fladd,w
  2424  0189' 0688'              	xorwf	___fladd@signs,f
  2425  018A' 098B'              	comf	___fladd@grs,f
  2426  018B' 0A8B'              	incf	___fladd@grs,f
  2427  018C' 080B'              	movf	___fladd@grs,w
  2428  018D' 1D03               	btfss	3,2
  2429  018E' 2800'              	goto	l460
  2430  018F' 3001               	movlw	1
  2431  0190' 0780'              	addwf	___fladd@b,f
  2432  0191' 3000               	movlw	0
  2433  0192' 1803               	skipnc
  2434  0193' 3001               	movlw	1
  2435  0194' 0781'              	addwf	___fladd@b+1,f
  2436  0195' 3000               	movlw	0
  2437  0196' 1803               	skipnc
  2438  0197' 3001               	movlw	1
  2439  0198' 0782'              	addwf	___fladd@b+2,f
  2440  0199' 3000               	movlw	0
  2441  019A' 1803               	skipnc
  2442  019B' 3001               	movlw	1
  2443  019C' 0783'              	addwf	___fladd@b+3,f
  2444  019D' 2800'              	goto	l460
  2445  019E'                    l1392:	
  2446  019E' 0804'              	movf	___fladd@a,w
  2447  019F' 0280'              	subwf	___fladd@b,f
  2448  01A0' 0805'              	movf	___fladd@a+1,w
  2449  01A1' 1C03               	skipc
  2450  01A2' 0F05'              	incfsz	___fladd@a+1,w
  2451  01A3' 0281'              	subwf	___fladd@b+1,f
  2452  01A4' 0806'              	movf	___fladd@a+2,w
  2453  01A5' 1C03               	skipc
  2454  01A6' 0F06'              	incfsz	___fladd@a+2,w
  2455  01A7' 0282'              	subwf	___fladd@b+2,f
  2456  01A8' 0807'              	movf	___fladd@a+3,w
  2457  01A9' 1C03               	skipc
  2458  01AA' 0F07'              	incfsz	___fladd@a+3,w
  2459  01AB' 0283'              	subwf	___fladd@b+3,f
  2460  01AC'                    l460:	
  2461  01AC' 0803'              	movf	___fladd@b+3,w
  2462  01AD' 0402'              	iorwf	___fladd@b+2,w
  2463  01AE' 0401'              	iorwf	___fladd@b+1,w
  2464  01AF' 0400'              	iorwf	___fladd@b,w
  2465  01B0' 1D03               	skipz
  2466  01B1' 2800'              	goto	l1414
  2467  01B2' 080B'              	movf	___fladd@grs,w
  2468  01B3' 1D03               	btfss	3,2
  2469  01B4' 2800'              	goto	l1414
  2470  01B5' 3000               	movlw	0
  2471  01B6' 0083'              	movwf	?___fladd+3
  2472  01B7' 3000               	movlw	0
  2473  01B8' 0082'              	movwf	?___fladd+2
  2474  01B9' 3000               	movlw	0
  2475  01BA' 0081'              	movwf	?___fladd+1
  2476  01BB' 3000               	movlw	0
  2477  01BC' 0080'              	movwf	?___fladd
  2478  01BD' 0008               	return
  2479  01BE'                    l1400:	
  2480  01BE' 3001               	movlw	1
  2481  01BF' 1283               	bcf	3,5	;RP0=0, select bank0
  2482  01C0' 1303               	bcf	3,6	;RP1=0, select bank0
  2483  01C1' 0080'              	movwf	??___fladd
  2484  01C2'                    u1625:	
  2485  01C2' 1003               	clrc
  2486  01C3' 0D80'              	rlf	___fladd@b,f
  2487  01C4' 0D81'              	rlf	___fladd@b+1,f
  2488  01C5' 0D82'              	rlf	___fladd@b+2,f
  2489  01C6' 0D83'              	rlf	___fladd@b+3,f
  2490  01C7' 0B80'              	decfsz	??___fladd,f
  2491  01C8' 2800'              	goto	u1625
  2492  01C9' 1B8B'              	btfsc	___fladd@grs,7
  2493  01CA' 1400'              	bsf	___fladd@b,0
  2494  01CB' 1C0B'              	btfss	___fladd@grs,0
  2495  01CC' 2800'              	goto	l1408
  2496  01CD' 1403               	setc
  2497  01CE' 2800'              	goto	L1
  2498  01CF'                    l1408:	
  2499  01CF' 1003               	clrc
  2500  01D0'                    L1:	
  2501  01D0' 0D8B'              	rlf	___fladd@grs,f
  2502  01D1' 080A'              	movf	___fladd@bexp,w
  2503  01D2' 1903               	btfsc	3,2
  2504  01D3' 2800'              	goto	l1414
  2505  01D4' 3001               	movlw	1
  2506  01D5' 028A'              	subwf	___fladd@bexp,f
  2507  01D6'                    l1414:	
  2508  01D6' 1F82'              	btfss	___fladd@b+2,7
  2509  01D7' 2800'              	goto	l1400
  2510  01D8'                    l1416:	
  2511  01D8' 0189'              	clrf	___fladd@aexp
  2512  01D9' 1F8B'              	btfss	___fladd@grs,7
  2513  01DA' 2800'              	goto	l1426
  2514  01DB' 080B'              	movf	___fladd@grs,w
  2515  01DC' 397F               	andlw	127
  2516  01DD' 1903               	btfsc	3,2
  2517  01DE' 1800'              	btfsc	___fladd@b,0
  2518  01DF' 2800'              	goto	l1422
  2519  01E0' 2800'              	goto	l1426
  2520  01E1'                    l1422:	
  2521  01E1' 0189'              	clrf	___fladd@aexp
  2522  01E2' 0A89'              	incf	___fladd@aexp,f
  2523  01E3'                    l1426:	
  2524  01E3' 0809'              	movf	___fladd@aexp,w
  2525  01E4' 1903               	btfsc	3,2
  2526  01E5' 2800'              	goto	l473
  2527  01E6' 3001               	movlw	1
  2528  01E7' 0780'              	addwf	___fladd@b,f
  2529  01E8' 3000               	movlw	0
  2530  01E9' 1803               	skipnc
  2531  01EA' 3001               	movlw	1
  2532  01EB' 0781'              	addwf	___fladd@b+1,f
  2533  01EC' 3000               	movlw	0
  2534  01ED' 1803               	skipnc
  2535  01EE' 3001               	movlw	1
  2536  01EF' 0782'              	addwf	___fladd@b+2,f
  2537  01F0' 3000               	movlw	0
  2538  01F1' 1803               	skipnc
  2539  01F2' 3001               	movlw	1
  2540  01F3' 0783'              	addwf	___fladd@b+3,f
  2541  01F4' 1C03'              	btfss	___fladd@b+3,0
  2542  01F5' 2800'              	goto	l473
  2543  01F6' 0800'              	movf	___fladd@b,w
  2544  01F7' 1283               	bcf	3,5	;RP0=0, select bank0
  2545  01F8' 1303               	bcf	3,6	;RP1=0, select bank0
  2546  01F9' 0080'              	movwf	??___fladd
  2547  01FA' 0801'              	movf	___fladd@b+1,w
  2548  01FB' 0081'              	movwf	??___fladd+1
  2549  01FC' 0802'              	movf	___fladd@b+2,w
  2550  01FD' 0082'              	movwf	??___fladd+2
  2551  01FE' 0803'              	movf	___fladd@b+3,w
  2552  01FF' 0083'              	movwf	??___fladd+3
  2553  0200' 3001               	movlw	1
  2554  0201' 0084'              	movwf	??___fladd+4
  2555  0202'                    u1725:	
  2556  0202' 0D03'              	rlf	??___fladd+3,w
  2557  0203' 0C83'              	rrf	??___fladd+3,f
  2558  0204' 0C82'              	rrf	??___fladd+2,f
  2559  0205' 0C81'              	rrf	??___fladd+1,f
  2560  0206' 0C80'              	rrf	??___fladd,f
  2561  0207' 0B84'              	decfsz	??___fladd+4,f
  2562  0208' 2800'              	goto	u1725
  2563  0209' 0803'              	movf	??___fladd+3,w
  2564  020A' 0083'              	movwf	___fladd@b+3
  2565  020B' 0802'              	movf	??___fladd+2,w
  2566  020C' 0082'              	movwf	___fladd@b+2
  2567  020D' 0801'              	movf	??___fladd+1,w
  2568  020E' 0081'              	movwf	___fladd@b+1
  2569  020F' 0800'              	movf	??___fladd,w
  2570  0210' 0080'              	movwf	___fladd@b
  2571  0211' 0A0A'              	incf	___fladd@bexp,w
  2572  0212' 1903               	btfsc	3,2
  2573  0213' 2800'              	goto	l473
  2574  0214' 3001               	movlw	1
  2575  0215' 0080'              	movwf	??___fladd
  2576  0216' 0800'              	movf	??___fladd,w
  2577  0217' 078A'              	addwf	___fladd@bexp,f
  2578  0218'                    l473:	
  2579  0218' 0A0A'              	incf	___fladd@bexp,w
  2580  0219' 1D03               	btfss	3,2
  2581  021A' 080A'              	movf	___fladd@bexp,w
  2582  021B' 1D03               	btfss	3,2
  2583  021C' 2800'              	goto	l1444
  2584  021D' 3000               	movlw	0
  2585  021E' 0083'              	movwf	___fladd@b+3
  2586  021F' 3000               	movlw	0
  2587  0220' 0082'              	movwf	___fladd@b+2
  2588  0221' 3000               	movlw	0
  2589  0222' 0081'              	movwf	___fladd@b+1
  2590  0223' 3000               	movlw	0
  2591  0224' 0080'              	movwf	___fladd@b
  2592  0225' 080A'              	movf	___fladd@bexp,w
  2593  0226' 1903               	btfsc	3,2
  2594  0227' 0188'              	clrf	___fladd@signs
  2595  0228'                    l1444:	
  2596  0228' 1C0A'              	btfss	___fladd@bexp,0
  2597  0229' 2800'              	goto	l1448
  2598  022A' 1782'              	bsf	___fladd@b+2,7
  2599  022B' 2800'              	goto	l481
  2600  022C'                    l1448:	
  2601  022C' 307F               	movlw	127
  2602  022D' 1283               	bcf	3,5	;RP0=0, select bank0
  2603  022E' 1303               	bcf	3,6	;RP1=0, select bank0
  2604  022F' 0080'              	movwf	??___fladd
  2605  0230' 0800'              	movf	??___fladd,w
  2606  0231' 0582'              	andwf	___fladd@b+2,f
  2607  0232'                    l481:	
  2608  0232' 080A'              	movf	___fladd@bexp,w
  2609  0233' 1283               	bcf	3,5	;RP0=0, select bank0
  2610  0234' 1303               	bcf	3,6	;RP1=0, select bank0
  2611  0235' 0080'              	movwf	??___fladd
  2612  0236' 1003               	clrc
  2613  0237' 0C00'              	rrf	??___fladd,w
  2614  0238' 0081'              	movwf	??___fladd+1
  2615  0239' 0801'              	movf	??___fladd+1,w
  2616  023A' 0083'              	movwf	___fladd@b+3
  2617  023B' 1F88'              	btfss	___fladd@signs,7
  2618  023C' 0008               	return
  2619  023D' 1783'              	bsf	___fladd@b+3,7
  2620  023E' 0008               	return
  2621  023F'                    __end_of___fladd:	
  2622                           
  2623                           	psect	text6
  2624  0000'                    __ptext6:	
  2625 ;; *************** function ___flmul *****************
  2626 ;; Defined at:
  2627 ;;		line 8 in file "C:\Program Files (x86)\Microchip\xc8\v2.05\pic\sources\c90\common\sprcmul.c"
  2628 ;; Parameters:    Size  Location     Type
  2629 ;;  b               4    0[BANK0 ] unsigned char 
  2630 ;;  a               4    4[BANK0 ] unsigned char 
  2631 ;; Auto vars:     Size  Location     Type
  2632 ;;  prod            4   20[BANK0 ] struct .
  2633 ;;  grs             4   14[BANK0 ] unsigned long 
  2634 ;;  temp            2   24[BANK0 ] struct .
  2635 ;;  bexp            1   19[BANK0 ] unsigned char 
  2636 ;;  aexp            1   18[BANK0 ] unsigned char 
  2637 ;;  sign            1   13[BANK0 ] unsigned char 
  2638 ;; Return value:  Size  Location     Type
  2639 ;;                  4    0[BANK0 ] unsigned char 
  2640 ;; Registers used:
  2641 ;;		wreg, status,2, status,0, btemp+1, pclath, cstack
  2642 ;; Tracked objects:
  2643 ;;		On entry : 0/0
  2644 ;;		On exit  : 0/0
  2645 ;;		Unchanged: 0/0
  2646 ;; Data sizes:     COMMON   BANK0   BANK1   BANK3   BANK2
  2647 ;;      Params:         0       8       0       0       0
  2648 ;;      Locals:         0      13       0       0       0
  2649 ;;      Temps:          0       5       0       0       0
  2650 ;;      Totals:         0      26       0       0       0
  2651 ;;Total ram usage:       26 bytes
  2652 ;; Hardware stack levels used:    1
  2653 ;; Hardware stack levels required when called:    1
  2654 ;; This function calls:
  2655 ;;		__Umul8_16
  2656 ;; This function is called by:
  2657 ;;		_main
  2658 ;; This function uses a non-reentrant model
  2659 ;;
  2660                           
  2661                           
  2662                           ;psect for function ___flmul
  2663  0000'                    ___flmul:	
  2664                           
  2665                           ;incstack = 0
  2666                           ; Regs used in ___flmul: [wreg+status,2+status,0+btemp+1+pclath+cstack]
  2667  0000' 1283               	bcf	3,5	;RP0=0, select bank0
  2668  0001' 1303               	bcf	3,6	;RP1=0, select bank0
  2669  0002' 0803'              	movf	___flmul@b+3,w
  2670  0003' 3980               	andlw	128
  2671  0004' 0088'              	movwf	??___flmul
  2672  0005' 0808'              	movf	??___flmul,w
  2673  0006' 008D'              	movwf	___flmul@sign
  2674  0007' 0803'              	movf	___flmul@b+3,w
  2675  0008' 0088'              	movwf	??___flmul
  2676  0009' 0708'              	addwf	??___flmul,w
  2677  000A' 0089'              	movwf	??___flmul+1
  2678  000B' 0809'              	movf	??___flmul+1,w
  2679  000C' 0093'              	movwf	___flmul@bexp
  2680  000D' 1B82'              	btfsc	___flmul@b+2,7
  2681  000E' 1413'              	bsf	___flmul@bexp,0
  2682  000F' 0813'              	movf	___flmul@bexp,w
  2683  0010' 1903               	btfsc	3,2
  2684  0011' 2800'              	goto	l1560
  2685  0012' 0A13'              	incf	___flmul@bexp,w
  2686  0013' 1D03               	btfss	3,2
  2687  0014' 2800'              	goto	l1558
  2688  0015' 3000               	movlw	0
  2689  0016' 0083'              	movwf	___flmul@b+3
  2690  0017' 3000               	movlw	0
  2691  0018' 0082'              	movwf	___flmul@b+2
  2692  0019' 3000               	movlw	0
  2693  001A' 0081'              	movwf	___flmul@b+1
  2694  001B' 3000               	movlw	0
  2695  001C' 0080'              	movwf	___flmul@b
  2696  001D'                    l1558:	
  2697  001D' 1782'              	bsf	___flmul@b+2,7
  2698  001E' 2800'              	goto	l1562
  2699  001F'                    l1560:	
  2700  001F' 3000               	movlw	0
  2701  0020' 0083'              	movwf	___flmul@b+3
  2702  0021' 3000               	movlw	0
  2703  0022' 0082'              	movwf	___flmul@b+2
  2704  0023' 3000               	movlw	0
  2705  0024' 0081'              	movwf	___flmul@b+1
  2706  0025' 3000               	movlw	0
  2707  0026' 0080'              	movwf	___flmul@b
  2708  0027'                    l1562:	
  2709  0027' 0807'              	movf	___flmul@a+3,w
  2710  0028' 3980               	andlw	128
  2711  0029' 0088'              	movwf	??___flmul
  2712  002A' 0808'              	movf	??___flmul,w
  2713  002B' 068D'              	xorwf	___flmul@sign,f
  2714  002C' 0807'              	movf	___flmul@a+3,w
  2715  002D' 0088'              	movwf	??___flmul
  2716  002E' 0708'              	addwf	??___flmul,w
  2717  002F' 0089'              	movwf	??___flmul+1
  2718  0030' 0809'              	movf	??___flmul+1,w
  2719  0031' 0092'              	movwf	___flmul@aexp
  2720  0032' 1B86'              	btfsc	___flmul@a+2,7
  2721  0033' 1412'              	bsf	___flmul@aexp,0
  2722  0034' 0812'              	movf	___flmul@aexp,w
  2723  0035' 1903               	btfsc	3,2
  2724  0036' 2800'              	goto	l1578
  2725  0037' 0A12'              	incf	___flmul@aexp,w
  2726  0038' 1D03               	btfss	3,2
  2727  0039' 2800'              	goto	l1576
  2728  003A' 3000               	movlw	0
  2729  003B' 0087'              	movwf	___flmul@a+3
  2730  003C' 3000               	movlw	0
  2731  003D' 0086'              	movwf	___flmul@a+2
  2732  003E' 3000               	movlw	0
  2733  003F' 0085'              	movwf	___flmul@a+1
  2734  0040' 3000               	movlw	0
  2735  0041' 0084'              	movwf	___flmul@a
  2736  0042'                    l1576:	
  2737  0042' 1786'              	bsf	___flmul@a+2,7
  2738  0043' 2800'              	goto	l1580
  2739  0044'                    l1578:	
  2740  0044' 3000               	movlw	0
  2741  0045' 0087'              	movwf	___flmul@a+3
  2742  0046' 3000               	movlw	0
  2743  0047' 0086'              	movwf	___flmul@a+2
  2744  0048' 3000               	movlw	0
  2745  0049' 0085'              	movwf	___flmul@a+1
  2746  004A' 3000               	movlw	0
  2747  004B' 0084'              	movwf	___flmul@a
  2748  004C'                    l1580:	
  2749  004C' 0812'              	movf	___flmul@aexp,w
  2750  004D' 1D03               	btfss	3,2
  2751  004E' 0813'              	movf	___flmul@bexp,w
  2752  004F' 1D03               	btfss	3,2
  2753  0050' 2800'              	goto	l1588
  2754  0051' 3000               	movlw	0
  2755  0052' 0083'              	movwf	?___flmul+3
  2756  0053' 3000               	movlw	0
  2757  0054' 0082'              	movwf	?___flmul+2
  2758  0055' 3000               	movlw	0
  2759  0056' 0081'              	movwf	?___flmul+1
  2760  0057' 3000               	movlw	0
  2761  0058' 0080'              	movwf	?___flmul
  2762  0059' 0008               	return
  2763  005A'                    l1588:	
  2764  005A' 0800'              	movf	___flmul@b,w
  2765  005B' 0088'              	movwf	??___flmul
  2766  005C' 0808'              	movf	??___flmul,w
  2767  005D' 0080'              	movwf	__Umul8_16@multiplicand
  2768  005E' 0806'              	movf	___flmul@a+2,w
  2769  005F' 120A' 118A' 2000' 120A' 118A' 	fcall	__Umul8_16
  2770  0064' 0801'              	movf	?__Umul8_16+1,w
  2771  0065' 1283               	bcf	3,5	;RP0=0, select bank0
  2772  0066' 1303               	bcf	3,6	;RP1=0, select bank0
  2773  0067' 0099'              	movwf	___flmul@temp+1
  2774  0068' 0800'              	movf	?__Umul8_16,w
  2775  0069' 0098'              	movwf	___flmul@temp
  2776  006A' 0818'              	movf	___flmul@temp,w
  2777  006B' 0088'              	movwf	??___flmul
  2778  006C' 0189'              	clrf	??___flmul+1
  2779  006D' 018A'              	clrf	??___flmul+2
  2780  006E' 018B'              	clrf	??___flmul+3
  2781  006F' 080B'              	movf	??___flmul+3,w
  2782  0070' 0091'              	movwf	___flmul@grs+3
  2783  0071' 080A'              	movf	??___flmul+2,w
  2784  0072' 0090'              	movwf	___flmul@grs+2
  2785  0073' 0809'              	movf	??___flmul+1,w
  2786  0074' 008F'              	movwf	___flmul@grs+1
  2787  0075' 0808'              	movf	??___flmul,w
  2788  0076' 008E'              	movwf	___flmul@grs
  2789  0077' 0819'              	movf	___flmul@temp+1,w
  2790  0078' 0088'              	movwf	??___flmul
  2791  0079' 0189'              	clrf	??___flmul+1
  2792  007A' 018A'              	clrf	??___flmul+2
  2793  007B' 018B'              	clrf	??___flmul+3
  2794  007C' 080B'              	movf	??___flmul+3,w
  2795  007D' 0097'              	movwf	___flmul@prod+3
  2796  007E' 080A'              	movf	??___flmul+2,w
  2797  007F' 0096'              	movwf	___flmul@prod+2
  2798  0080' 0809'              	movf	??___flmul+1,w
  2799  0081' 0095'              	movwf	___flmul@prod+1
  2800  0082' 0808'              	movf	??___flmul,w
  2801  0083' 0094'              	movwf	___flmul@prod
  2802  0084' 0801'              	movf	___flmul@b+1,w
  2803  0085' 0088'              	movwf	??___flmul
  2804  0086' 0808'              	movf	??___flmul,w
  2805  0087' 0080'              	movwf	__Umul8_16@multiplicand
  2806  0088' 0805'              	movf	___flmul@a+1,w
  2807  0089' 120A' 118A' 2000' 120A' 118A' 	fcall	__Umul8_16
  2808  008E' 0801'              	movf	?__Umul8_16+1,w
  2809  008F' 1283               	bcf	3,5	;RP0=0, select bank0
  2810  0090' 1303               	bcf	3,6	;RP1=0, select bank0
  2811  0091' 0099'              	movwf	___flmul@temp+1
  2812  0092' 0800'              	movf	?__Umul8_16,w
  2813  0093' 0098'              	movwf	___flmul@temp
  2814  0094' 0818'              	movf	___flmul@temp,w
  2815  0095' 0088'              	movwf	??___flmul
  2816  0096' 0189'              	clrf	??___flmul+1
  2817  0097' 018A'              	clrf	??___flmul+2
  2818  0098' 018B'              	clrf	??___flmul+3
  2819  0099' 0808'              	movf	??___flmul,w
  2820  009A' 078E'              	addwf	___flmul@grs,f
  2821  009B' 0809'              	movf	??___flmul+1,w
  2822  009C' 1103               	clrz
  2823  009D' 1803               	skipnc
  2824  009E' 3E01               	addlw	1
  2825  009F' 1D03               	btfss	3,2
  2826  00A0' 078F'              	addwf	___flmul@grs+1,f
  2827  00A1' 080A'              	movf	??___flmul+2,w
  2828  00A2' 1103               	clrz
  2829  00A3' 1803               	skipnc
  2830  00A4' 3E01               	addlw	1
  2831  00A5' 1D03               	btfss	3,2
  2832  00A6' 0790'              	addwf	___flmul@grs+2,f
  2833  00A7' 080B'              	movf	??___flmul+3,w
  2834  00A8' 1103               	clrz
  2835  00A9' 1803               	skipnc
  2836  00AA' 3E01               	addlw	1
  2837  00AB' 1D03               	btfss	3,2
  2838  00AC' 0791'              	addwf	___flmul@grs+3,f
  2839  00AD' 0819'              	movf	___flmul@temp+1,w
  2840  00AE' 0088'              	movwf	??___flmul
  2841  00AF' 0189'              	clrf	??___flmul+1
  2842  00B0' 018A'              	clrf	??___flmul+2
  2843  00B1' 018B'              	clrf	??___flmul+3
  2844  00B2' 0808'              	movf	??___flmul,w
  2845  00B3' 0794'              	addwf	___flmul@prod,f
  2846  00B4' 0809'              	movf	??___flmul+1,w
  2847  00B5' 1103               	clrz
  2848  00B6' 1803               	skipnc
  2849  00B7' 3E01               	addlw	1
  2850  00B8' 1D03               	btfss	3,2
  2851  00B9' 0795'              	addwf	___flmul@prod+1,f
  2852  00BA' 080A'              	movf	??___flmul+2,w
  2853  00BB' 1103               	clrz
  2854  00BC' 1803               	skipnc
  2855  00BD' 3E01               	addlw	1
  2856  00BE' 1D03               	btfss	3,2
  2857  00BF' 0796'              	addwf	___flmul@prod+2,f
  2858  00C0' 080B'              	movf	??___flmul+3,w
  2859  00C1' 1103               	clrz
  2860  00C2' 1803               	skipnc
  2861  00C3' 3E01               	addlw	1
  2862  00C4' 1D03               	btfss	3,2
  2863  00C5' 0797'              	addwf	___flmul@prod+3,f
  2864  00C6' 0802'              	movf	___flmul@b+2,w
  2865  00C7' 0088'              	movwf	??___flmul
  2866  00C8' 0808'              	movf	??___flmul,w
  2867  00C9' 0080'              	movwf	__Umul8_16@multiplicand
  2868  00CA' 0804'              	movf	___flmul@a,w
  2869  00CB' 120A' 118A' 2000' 120A' 118A' 	fcall	__Umul8_16
  2870  00D0' 0801'              	movf	?__Umul8_16+1,w
  2871  00D1' 1283               	bcf	3,5	;RP0=0, select bank0
  2872  00D2' 1303               	bcf	3,6	;RP1=0, select bank0
  2873  00D3' 0099'              	movwf	___flmul@temp+1
  2874  00D4' 0800'              	movf	?__Umul8_16,w
  2875  00D5' 0098'              	movwf	___flmul@temp
  2876  00D6' 0818'              	movf	___flmul@temp,w
  2877  00D7' 0088'              	movwf	??___flmul
  2878  00D8' 0189'              	clrf	??___flmul+1
  2879  00D9' 018A'              	clrf	??___flmul+2
  2880  00DA' 018B'              	clrf	??___flmul+3
  2881  00DB' 0808'              	movf	??___flmul,w
  2882  00DC' 078E'              	addwf	___flmul@grs,f
  2883  00DD' 0809'              	movf	??___flmul+1,w
  2884  00DE' 1103               	clrz
  2885  00DF' 1803               	skipnc
  2886  00E0' 3E01               	addlw	1
  2887  00E1' 1D03               	btfss	3,2
  2888  00E2' 078F'              	addwf	___flmul@grs+1,f
  2889  00E3' 080A'              	movf	??___flmul+2,w
  2890  00E4' 1103               	clrz
  2891  00E5' 1803               	skipnc
  2892  00E6' 3E01               	addlw	1
  2893  00E7' 1D03               	btfss	3,2
  2894  00E8' 0790'              	addwf	___flmul@grs+2,f
  2895  00E9' 080B'              	movf	??___flmul+3,w
  2896  00EA' 1103               	clrz
  2897  00EB' 1803               	skipnc
  2898  00EC' 3E01               	addlw	1
  2899  00ED' 1D03               	btfss	3,2
  2900  00EE' 0791'              	addwf	___flmul@grs+3,f
  2901  00EF' 0819'              	movf	___flmul@temp+1,w
  2902  00F0' 0088'              	movwf	??___flmul
  2903  00F1' 0189'              	clrf	??___flmul+1
  2904  00F2' 018A'              	clrf	??___flmul+2
  2905  00F3' 018B'              	clrf	??___flmul+3
  2906  00F4' 0808'              	movf	??___flmul,w
  2907  00F5' 0794'              	addwf	___flmul@prod,f
  2908  00F6' 0809'              	movf	??___flmul+1,w
  2909  00F7' 1103               	clrz
  2910  00F8' 1803               	skipnc
  2911  00F9' 3E01               	addlw	1
  2912  00FA' 1D03               	btfss	3,2
  2913  00FB' 0795'              	addwf	___flmul@prod+1,f
  2914  00FC' 080A'              	movf	??___flmul+2,w
  2915  00FD' 1103               	clrz
  2916  00FE' 1803               	skipnc
  2917  00FF' 3E01               	addlw	1
  2918  0100' 1D03               	btfss	3,2
  2919  0101' 0796'              	addwf	___flmul@prod+2,f
  2920  0102' 080B'              	movf	??___flmul+3,w
  2921  0103' 1103               	clrz
  2922  0104' 1803               	skipnc
  2923  0105' 3E01               	addlw	1
  2924  0106' 1D03               	btfss	3,2
  2925  0107' 0797'              	addwf	___flmul@prod+3,f
  2926  0108' 3008               	movlw	8
  2927  0109' 0088'              	movwf	??___flmul
  2928  010A'                    u2155:	
  2929  010A' 1003               	clrc
  2930  010B' 0D8E'              	rlf	___flmul@grs,f
  2931  010C' 0D8F'              	rlf	___flmul@grs+1,f
  2932  010D' 0D90'              	rlf	___flmul@grs+2,f
  2933  010E' 0D91'              	rlf	___flmul@grs+3,f
  2934  010F' 0B88'              	decfsz	??___flmul,f
  2935  0110' 2800'              	goto	u2155
  2936  0111' 0801'              	movf	___flmul@b+1,w
  2937  0112' 0088'              	movwf	??___flmul
  2938  0113' 0808'              	movf	??___flmul,w
  2939  0114' 0080'              	movwf	__Umul8_16@multiplicand
  2940  0115' 0804'              	movf	___flmul@a,w
  2941  0116' 120A' 118A' 2000' 120A' 118A' 	fcall	__Umul8_16
  2942  011B' 0801'              	movf	?__Umul8_16+1,w
  2943  011C' 1283               	bcf	3,5	;RP0=0, select bank0
  2944  011D' 1303               	bcf	3,6	;RP1=0, select bank0
  2945  011E' 0099'              	movwf	___flmul@temp+1
  2946  011F' 0800'              	movf	?__Umul8_16,w
  2947  0120' 0098'              	movwf	___flmul@temp
  2948  0121' 0818'              	movf	___flmul@temp,w
  2949  0122' 0088'              	movwf	??___flmul
  2950  0123' 0819'              	movf	___flmul@temp+1,w
  2951  0124' 0089'              	movwf	??___flmul+1
  2952  0125' 018A'              	clrf	??___flmul+2
  2953  0126' 018B'              	clrf	??___flmul+3
  2954  0127' 0808'              	movf	??___flmul,w
  2955  0128' 078E'              	addwf	___flmul@grs,f
  2956  0129' 0809'              	movf	??___flmul+1,w
  2957  012A' 1103               	clrz
  2958  012B' 1803               	skipnc
  2959  012C' 3E01               	addlw	1
  2960  012D' 1D03               	btfss	3,2
  2961  012E' 078F'              	addwf	___flmul@grs+1,f
  2962  012F' 080A'              	movf	??___flmul+2,w
  2963  0130' 1103               	clrz
  2964  0131' 1803               	skipnc
  2965  0132' 3E01               	addlw	1
  2966  0133' 1D03               	btfss	3,2
  2967  0134' 0790'              	addwf	___flmul@grs+2,f
  2968  0135' 080B'              	movf	??___flmul+3,w
  2969  0136' 1103               	clrz
  2970  0137' 1803               	skipnc
  2971  0138' 3E01               	addlw	1
  2972  0139' 1D03               	btfss	3,2
  2973  013A' 0791'              	addwf	___flmul@grs+3,f
  2974  013B' 0800'              	movf	___flmul@b,w
  2975  013C' 0088'              	movwf	??___flmul
  2976  013D' 0808'              	movf	??___flmul,w
  2977  013E' 0080'              	movwf	__Umul8_16@multiplicand
  2978  013F' 0805'              	movf	___flmul@a+1,w
  2979  0140' 120A' 118A' 2000' 120A' 118A' 	fcall	__Umul8_16
  2980  0145' 0801'              	movf	?__Umul8_16+1,w
  2981  0146' 1283               	bcf	3,5	;RP0=0, select bank0
  2982  0147' 1303               	bcf	3,6	;RP1=0, select bank0
  2983  0148' 0099'              	movwf	___flmul@temp+1
  2984  0149' 0800'              	movf	?__Umul8_16,w
  2985  014A' 0098'              	movwf	___flmul@temp
  2986  014B' 0818'              	movf	___flmul@temp,w
  2987  014C' 0088'              	movwf	??___flmul
  2988  014D' 0819'              	movf	___flmul@temp+1,w
  2989  014E' 0089'              	movwf	??___flmul+1
  2990  014F' 018A'              	clrf	??___flmul+2
  2991  0150' 018B'              	clrf	??___flmul+3
  2992  0151' 0808'              	movf	??___flmul,w
  2993  0152' 078E'              	addwf	___flmul@grs,f
  2994  0153' 0809'              	movf	??___flmul+1,w
  2995  0154' 1103               	clrz
  2996  0155' 1803               	skipnc
  2997  0156' 3E01               	addlw	1
  2998  0157' 1D03               	btfss	3,2
  2999  0158' 078F'              	addwf	___flmul@grs+1,f
  3000  0159' 080A'              	movf	??___flmul+2,w
  3001  015A' 1103               	clrz
  3002  015B' 1803               	skipnc
  3003  015C' 3E01               	addlw	1
  3004  015D' 1D03               	btfss	3,2
  3005  015E' 0790'              	addwf	___flmul@grs+2,f
  3006  015F' 080B'              	movf	??___flmul+3,w
  3007  0160' 1103               	clrz
  3008  0161' 1803               	skipnc
  3009  0162' 3E01               	addlw	1
  3010  0163' 1D03               	btfss	3,2
  3011  0164' 0791'              	addwf	___flmul@grs+3,f
  3012  0165' 3008               	movlw	8
  3013  0166' 0088'              	movwf	??___flmul
  3014  0167'                    u2185:	
  3015  0167' 1003               	clrc
  3016  0168' 0D8E'              	rlf	___flmul@grs,f
  3017  0169' 0D8F'              	rlf	___flmul@grs+1,f
  3018  016A' 0D90'              	rlf	___flmul@grs+2,f
  3019  016B' 0D91'              	rlf	___flmul@grs+3,f
  3020  016C' 0B88'              	decfsz	??___flmul,f
  3021  016D' 2800'              	goto	u2185
  3022  016E' 0800'              	movf	___flmul@b,w
  3023  016F' 0088'              	movwf	??___flmul
  3024  0170' 0808'              	movf	??___flmul,w
  3025  0171' 0080'              	movwf	__Umul8_16@multiplicand
  3026  0172' 0804'              	movf	___flmul@a,w
  3027  0173' 120A' 118A' 2000' 120A' 118A' 	fcall	__Umul8_16
  3028  0178' 0801'              	movf	?__Umul8_16+1,w
  3029  0179' 1283               	bcf	3,5	;RP0=0, select bank0
  3030  017A' 1303               	bcf	3,6	;RP1=0, select bank0
  3031  017B' 0099'              	movwf	___flmul@temp+1
  3032  017C' 0800'              	movf	?__Umul8_16,w
  3033  017D' 0098'              	movwf	___flmul@temp
  3034  017E' 0818'              	movf	___flmul@temp,w
  3035  017F' 0088'              	movwf	??___flmul
  3036  0180' 0819'              	movf	___flmul@temp+1,w
  3037  0181' 0089'              	movwf	??___flmul+1
  3038  0182' 018A'              	clrf	??___flmul+2
  3039  0183' 018B'              	clrf	??___flmul+3
  3040  0184' 0808'              	movf	??___flmul,w
  3041  0185' 078E'              	addwf	___flmul@grs,f
  3042  0186' 0809'              	movf	??___flmul+1,w
  3043  0187' 1103               	clrz
  3044  0188' 1803               	skipnc
  3045  0189' 3E01               	addlw	1
  3046  018A' 1D03               	btfss	3,2
  3047  018B' 078F'              	addwf	___flmul@grs+1,f
  3048  018C' 080A'              	movf	??___flmul+2,w
  3049  018D' 1103               	clrz
  3050  018E' 1803               	skipnc
  3051  018F' 3E01               	addlw	1
  3052  0190' 1D03               	btfss	3,2
  3053  0191' 0790'              	addwf	___flmul@grs+2,f
  3054  0192' 080B'              	movf	??___flmul+3,w
  3055  0193' 1103               	clrz
  3056  0194' 1803               	skipnc
  3057  0195' 3E01               	addlw	1
  3058  0196' 1D03               	btfss	3,2
  3059  0197' 0791'              	addwf	___flmul@grs+3,f
  3060  0198' 0801'              	movf	___flmul@b+1,w
  3061  0199' 0088'              	movwf	??___flmul
  3062  019A' 0808'              	movf	??___flmul,w
  3063  019B' 0080'              	movwf	__Umul8_16@multiplicand
  3064  019C' 0806'              	movf	___flmul@a+2,w
  3065  019D' 120A' 118A' 2000' 120A' 118A' 	fcall	__Umul8_16
  3066  01A2' 0801'              	movf	?__Umul8_16+1,w
  3067  01A3' 1283               	bcf	3,5	;RP0=0, select bank0
  3068  01A4' 1303               	bcf	3,6	;RP1=0, select bank0
  3069  01A5' 0099'              	movwf	___flmul@temp+1
  3070  01A6' 0800'              	movf	?__Umul8_16,w
  3071  01A7' 0098'              	movwf	___flmul@temp
  3072  01A8' 0818'              	movf	___flmul@temp,w
  3073  01A9' 0088'              	movwf	??___flmul
  3074  01AA' 0819'              	movf	___flmul@temp+1,w
  3075  01AB' 0089'              	movwf	??___flmul+1
  3076  01AC' 018A'              	clrf	??___flmul+2
  3077  01AD' 018B'              	clrf	??___flmul+3
  3078  01AE' 0808'              	movf	??___flmul,w
  3079  01AF' 0794'              	addwf	___flmul@prod,f
  3080  01B0' 0809'              	movf	??___flmul+1,w
  3081  01B1' 1103               	clrz
  3082  01B2' 1803               	skipnc
  3083  01B3' 3E01               	addlw	1
  3084  01B4' 1D03               	btfss	3,2
  3085  01B5' 0795'              	addwf	___flmul@prod+1,f
  3086  01B6' 080A'              	movf	??___flmul+2,w
  3087  01B7' 1103               	clrz
  3088  01B8' 1803               	skipnc
  3089  01B9' 3E01               	addlw	1
  3090  01BA' 1D03               	btfss	3,2
  3091  01BB' 0796'              	addwf	___flmul@prod+2,f
  3092  01BC' 080B'              	movf	??___flmul+3,w
  3093  01BD' 1103               	clrz
  3094  01BE' 1803               	skipnc
  3095  01BF' 3E01               	addlw	1
  3096  01C0' 1D03               	btfss	3,2
  3097  01C1' 0797'              	addwf	___flmul@prod+3,f
  3098  01C2' 0802'              	movf	___flmul@b+2,w
  3099  01C3' 0088'              	movwf	??___flmul
  3100  01C4' 0808'              	movf	??___flmul,w
  3101  01C5' 0080'              	movwf	__Umul8_16@multiplicand
  3102  01C6' 0805'              	movf	___flmul@a+1,w
  3103  01C7' 120A' 118A' 2000' 120A' 118A' 	fcall	__Umul8_16
  3104  01CC' 0801'              	movf	?__Umul8_16+1,w
  3105  01CD' 1283               	bcf	3,5	;RP0=0, select bank0
  3106  01CE' 1303               	bcf	3,6	;RP1=0, select bank0
  3107  01CF' 0099'              	movwf	___flmul@temp+1
  3108  01D0' 0800'              	movf	?__Umul8_16,w
  3109  01D1' 0098'              	movwf	___flmul@temp
  3110  01D2' 0818'              	movf	___flmul@temp,w
  3111  01D3' 0088'              	movwf	??___flmul
  3112  01D4' 0819'              	movf	___flmul@temp+1,w
  3113  01D5' 0089'              	movwf	??___flmul+1
  3114  01D6' 018A'              	clrf	??___flmul+2
  3115  01D7' 018B'              	clrf	??___flmul+3
  3116  01D8' 0808'              	movf	??___flmul,w
  3117  01D9' 0794'              	addwf	___flmul@prod,f
  3118  01DA' 0809'              	movf	??___flmul+1,w
  3119  01DB' 1103               	clrz
  3120  01DC' 1803               	skipnc
  3121  01DD' 3E01               	addlw	1
  3122  01DE' 1D03               	btfss	3,2
  3123  01DF' 0795'              	addwf	___flmul@prod+1,f
  3124  01E0' 080A'              	movf	??___flmul+2,w
  3125  01E1' 1103               	clrz
  3126  01E2' 1803               	skipnc
  3127  01E3' 3E01               	addlw	1
  3128  01E4' 1D03               	btfss	3,2
  3129  01E5' 0796'              	addwf	___flmul@prod+2,f
  3130  01E6' 080B'              	movf	??___flmul+3,w
  3131  01E7' 1103               	clrz
  3132  01E8' 1803               	skipnc
  3133  01E9' 3E01               	addlw	1
  3134  01EA' 1D03               	btfss	3,2
  3135  01EB' 0797'              	addwf	___flmul@prod+3,f
  3136  01EC' 0802'              	movf	___flmul@b+2,w
  3137  01ED' 0088'              	movwf	??___flmul
  3138  01EE' 0808'              	movf	??___flmul,w
  3139  01EF' 0080'              	movwf	__Umul8_16@multiplicand
  3140  01F0' 0806'              	movf	___flmul@a+2,w
  3141  01F1' 120A' 118A' 2000' 120A' 118A' 	fcall	__Umul8_16
  3142  01F6' 0801'              	movf	?__Umul8_16+1,w
  3143  01F7' 1283               	bcf	3,5	;RP0=0, select bank0
  3144  01F8' 1303               	bcf	3,6	;RP1=0, select bank0
  3145  01F9' 0099'              	movwf	___flmul@temp+1
  3146  01FA' 0800'              	movf	?__Umul8_16,w
  3147  01FB' 0098'              	movwf	___flmul@temp
  3148  01FC' 0818'              	movf	___flmul@temp,w
  3149  01FD' 0088'              	movwf	??___flmul
  3150  01FE' 0819'              	movf	___flmul@temp+1,w
  3151  01FF' 0089'              	movwf	??___flmul+1
  3152  0200' 018A'              	clrf	??___flmul+2
  3153  0201' 018B'              	clrf	??___flmul+3
  3154  0202' 3008               	movlw	8
  3155  0203'                    u2225:	
  3156  0203' 1003               	clrc
  3157  0204' 0D88'              	rlf	??___flmul,f
  3158  0205' 0D89'              	rlf	??___flmul+1,f
  3159  0206' 0D8A'              	rlf	??___flmul+2,f
  3160  0207' 0D8B'              	rlf	??___flmul+3,f
  3161  0208' 3EFF               	addlw	-1
  3162  0209' 1D03               	skipz
  3163  020A' 2800'              	goto	u2225
  3164  020B' 0808'              	movf	??___flmul,w
  3165  020C' 0794'              	addwf	___flmul@prod,f
  3166  020D' 0809'              	movf	??___flmul+1,w
  3167  020E' 1103               	clrz
  3168  020F' 1803               	skipnc
  3169  0210' 3E01               	addlw	1
  3170  0211' 1D03               	btfss	3,2
  3171  0212' 0795'              	addwf	___flmul@prod+1,f
  3172  0213' 080A'              	movf	??___flmul+2,w
  3173  0214' 1103               	clrz
  3174  0215' 1803               	skipnc
  3175  0216' 3E01               	addlw	1
  3176  0217' 1D03               	btfss	3,2
  3177  0218' 0796'              	addwf	___flmul@prod+2,f
  3178  0219' 080B'              	movf	??___flmul+3,w
  3179  021A' 1103               	clrz
  3180  021B' 1803               	skipnc
  3181  021C' 3E01               	addlw	1
  3182  021D' 1D03               	btfss	3,2
  3183  021E' 0797'              	addwf	___flmul@prod+3,f
  3184  021F' 080E'              	movf	___flmul@grs,w
  3185  0220' 0088'              	movwf	??___flmul
  3186  0221' 080F'              	movf	___flmul@grs+1,w
  3187  0222' 0089'              	movwf	??___flmul+1
  3188  0223' 0810'              	movf	___flmul@grs+2,w
  3189  0224' 008A'              	movwf	??___flmul+2
  3190  0225' 0811'              	movf	___flmul@grs+3,w
  3191  0226' 008B'              	movwf	??___flmul+3
  3192  0227' 3018               	movlw	24
  3193  0228'                    u2245:	
  3194  0228' 1003               	clrc
  3195  0229' 0C8B'              	rrf	??___flmul+3,f
  3196  022A' 0C8A'              	rrf	??___flmul+2,f
  3197  022B' 0C89'              	rrf	??___flmul+1,f
  3198  022C' 0C88'              	rrf	??___flmul,f
  3199  022D' 3EFF               	addlw	-1
  3200  022E' 1D03               	skipz
  3201  022F' 2800'              	goto	u2245
  3202  0230' 0808'              	movf	??___flmul,w
  3203  0231' 0794'              	addwf	___flmul@prod,f
  3204  0232' 0809'              	movf	??___flmul+1,w
  3205  0233' 1103               	clrz
  3206  0234' 1803               	skipnc
  3207  0235' 3E01               	addlw	1
  3208  0236' 1D03               	btfss	3,2
  3209  0237' 0795'              	addwf	___flmul@prod+1,f
  3210  0238' 080A'              	movf	??___flmul+2,w
  3211  0239' 1103               	clrz
  3212  023A' 1803               	skipnc
  3213  023B' 3E01               	addlw	1
  3214  023C' 1D03               	btfss	3,2
  3215  023D' 0796'              	addwf	___flmul@prod+2,f
  3216  023E' 080B'              	movf	??___flmul+3,w
  3217  023F' 1103               	clrz
  3218  0240' 1803               	skipnc
  3219  0241' 3E01               	addlw	1
  3220  0242' 1D03               	btfss	3,2
  3221  0243' 0797'              	addwf	___flmul@prod+3,f
  3222  0244' 3008               	movlw	8
  3223  0245' 0088'              	movwf	??___flmul
  3224  0246'                    u2265:	
  3225  0246' 1003               	clrc
  3226  0247' 0D8E'              	rlf	___flmul@grs,f
  3227  0248' 0D8F'              	rlf	___flmul@grs+1,f
  3228  0249' 0D90'              	rlf	___flmul@grs+2,f
  3229  024A' 0D91'              	rlf	___flmul@grs+3,f
  3230  024B' 0B88'              	decfsz	??___flmul,f
  3231  024C' 2800'              	goto	u2265
  3232  024D' 0813'              	movf	___flmul@bexp,w
  3233  024E' 0712'              	addwf	___flmul@aexp,w
  3234  024F' 0088'              	movwf	??___flmul
  3235  0250' 0189'              	clrf	??___flmul+1
  3236  0251' 0D89'              	rlf	??___flmul+1,f
  3237  0252' 0808'              	movf	??___flmul,w
  3238  0253' 3E82               	addlw	130
  3239  0254' 0098'              	movwf	___flmul@temp
  3240  0255' 0809'              	movf	??___flmul+1,w
  3241  0256' 1803               	skipnc
  3242  0257' 3E01               	addlw	1
  3243  0258' 3EFF               	addlw	255
  3244  0259' 0099'              	movwf	___flmul@temp+1
  3245  025A'                    l1640:	
  3246  025A' 1B96'              	btfsc	___flmul@prod+2,7
  3247  025B' 2800'              	goto	l1642
  3248  025C' 3001               	movlw	1
  3249  025D' 0088'              	movwf	??___flmul
  3250  025E'                    u2275:	
  3251  025E' 1003               	clrc
  3252  025F' 0D94'              	rlf	___flmul@prod,f
  3253  0260' 0D95'              	rlf	___flmul@prod+1,f
  3254  0261' 0D96'              	rlf	___flmul@prod+2,f
  3255  0262' 0D97'              	rlf	___flmul@prod+3,f
  3256  0263' 0B88'              	decfsz	??___flmul,f
  3257  0264' 2800'              	goto	u2275
  3258  0265' 1B91'              	btfsc	___flmul@grs+3,7
  3259  0266' 1414'              	bsf	___flmul@prod,0
  3260  0267' 3001               	movlw	1
  3261  0268' 0088'              	movwf	??___flmul
  3262  0269'                    u2295:	
  3263  0269' 1003               	clrc
  3264  026A' 0D8E'              	rlf	___flmul@grs,f
  3265  026B' 0D8F'              	rlf	___flmul@grs+1,f
  3266  026C' 0D90'              	rlf	___flmul@grs+2,f
  3267  026D' 0D91'              	rlf	___flmul@grs+3,f
  3268  026E' 0B88'              	decfsz	??___flmul,f
  3269  026F' 2800'              	goto	u2295
  3270  0270' 30FF               	movlw	255
  3271  0271' 0798'              	addwf	___flmul@temp,f
  3272  0272' 1803               	skipnc
  3273  0273' 0A99'              	incf	___flmul@temp+1,f
  3274  0274' 30FF               	movlw	255
  3275  0275' 0799'              	addwf	___flmul@temp+1,f
  3276  0276' 2800'              	goto	l1640
  3277  0277'                    l1642:	
  3278  0277' 0192'              	clrf	___flmul@aexp
  3279  0278' 1F91'              	btfss	___flmul@grs+3,7
  3280  0279' 2800'              	goto	l1652
  3281  027A' 30FF               	movlw	255
  3282  027B' 050E'              	andwf	___flmul@grs,w
  3283  027C' 0088'              	movwf	??___flmul
  3284  027D' 30FF               	movlw	255
  3285  027E' 050F'              	andwf	___flmul@grs+1,w
  3286  027F' 0089'              	movwf	??___flmul+1
  3287  0280' 30FF               	movlw	255
  3288  0281' 0510'              	andwf	___flmul@grs+2,w
  3289  0282' 008A'              	movwf	??___flmul+2
  3290  0283' 307F               	movlw	127
  3291  0284' 0511'              	andwf	___flmul@grs+3,w
  3292  0285' 008B'              	movwf	??___flmul+3
  3293  0286' 080B'              	movf	??___flmul+3,w
  3294  0287' 040A'              	iorwf	??___flmul+2,w
  3295  0288' 0409'              	iorwf	??___flmul+1,w
  3296  0289' 0408'              	iorwf	??___flmul,w
  3297  028A' 1903               	skipnz
  3298  028B' 1814'              	btfsc	___flmul@prod,0
  3299  028C' 2800'              	goto	l1648
  3300  028D' 2800'              	goto	l1652
  3301  028E'                    l1648:	
  3302  028E' 0192'              	clrf	___flmul@aexp
  3303  028F' 0A92'              	incf	___flmul@aexp,f
  3304  0290'                    l1652:	
  3305  0290' 0812'              	movf	___flmul@aexp,w
  3306  0291' 1903               	btfsc	3,2
  3307  0292' 2800'              	goto	l1662
  3308  0293' 3001               	movlw	1
  3309  0294' 0794'              	addwf	___flmul@prod,f
  3310  0295' 3000               	movlw	0
  3311  0296' 1803               	skipnc
  3312  0297' 3001               	movlw	1
  3313  0298' 0795'              	addwf	___flmul@prod+1,f
  3314  0299' 3000               	movlw	0
  3315  029A' 1803               	skipnc
  3316  029B' 3001               	movlw	1
  3317  029C' 0796'              	addwf	___flmul@prod+2,f
  3318  029D' 3000               	movlw	0
  3319  029E' 1803               	skipnc
  3320  029F' 3001               	movlw	1
  3321  02A0' 0797'              	addwf	___flmul@prod+3,f
  3322  02A1' 1C17'              	btfss	___flmul@prod+3,0
  3323  02A2' 2800'              	goto	l1662
  3324  02A3' 0814'              	movf	___flmul@prod,w
  3325  02A4' 0088'              	movwf	??___flmul
  3326  02A5' 0815'              	movf	___flmul@prod+1,w
  3327  02A6' 0089'              	movwf	??___flmul+1
  3328  02A7' 0816'              	movf	___flmul@prod+2,w
  3329  02A8' 008A'              	movwf	??___flmul+2
  3330  02A9' 0817'              	movf	___flmul@prod+3,w
  3331  02AA' 008B'              	movwf	??___flmul+3
  3332  02AB' 3001               	movlw	1
  3333  02AC' 008C'              	movwf	??___flmul+4
  3334  02AD'                    u2365:	
  3335  02AD' 0D0B'              	rlf	??___flmul+3,w
  3336  02AE' 0C8B'              	rrf	??___flmul+3,f
  3337  02AF' 0C8A'              	rrf	??___flmul+2,f
  3338  02B0' 0C89'              	rrf	??___flmul+1,f
  3339  02B1' 0C88'              	rrf	??___flmul,f
  3340  02B2' 0B8C'              	decfsz	??___flmul+4,f
  3341  02B3' 2800'              	goto	u2365
  3342  02B4' 080B'              	movf	??___flmul+3,w
  3343  02B5' 0097'              	movwf	___flmul@prod+3
  3344  02B6' 080A'              	movf	??___flmul+2,w
  3345  02B7' 0096'              	movwf	___flmul@prod+2
  3346  02B8' 0809'              	movf	??___flmul+1,w
  3347  02B9' 0095'              	movwf	___flmul@prod+1
  3348  02BA' 0808'              	movf	??___flmul,w
  3349  02BB' 0094'              	movwf	___flmul@prod
  3350  02BC' 3001               	movlw	1
  3351  02BD' 0798'              	addwf	___flmul@temp,f
  3352  02BE' 1803               	skipnc
  3353  02BF' 0A99'              	incf	___flmul@temp+1,f
  3354  02C0' 3000               	movlw	0
  3355  02C1' 0799'              	addwf	___flmul@temp+1,f
  3356  02C2'                    l1662:	
  3357  02C2' 0819'              	movf	___flmul@temp+1,w
  3358  02C3' 3A80               	xorlw	128
  3359  02C4' 00FF               	movwf	127
  3360  02C5' 3080               	movlw	128
  3361  02C6' 027F               	subwf	127,w
  3362  02C7' 1D03               	skipz
  3363  02C8' 2800'              	goto	u2375
  3364  02C9' 30FF               	movlw	255
  3365  02CA' 0218'              	subwf	___flmul@temp,w
  3366  02CB'                    u2375:	
  3367  02CB' 1C03               	skipc
  3368  02CC' 2800'              	goto	l1666
  3369  02CD' 307F               	movlw	127
  3370  02CE' 1283               	bcf	3,5	;RP0=0, select bank0
  3371  02CF' 1303               	bcf	3,6	;RP1=0, select bank0
  3372  02D0' 0097'              	movwf	___flmul@prod+3
  3373  02D1' 3080               	movlw	128
  3374  02D2' 0096'              	movwf	___flmul@prod+2
  3375  02D3' 3000               	movlw	0
  3376  02D4' 0095'              	movwf	___flmul@prod+1
  3377  02D5' 3000               	movlw	0
  3378  02D6' 0094'              	movwf	___flmul@prod
  3379  02D7' 2800'              	goto	l547
  3380  02D8'                    l1666:	
  3381  02D8' 1283               	bcf	3,5	;RP0=0, select bank0
  3382  02D9' 1303               	bcf	3,6	;RP1=0, select bank0
  3383  02DA' 0819'              	movf	___flmul@temp+1,w
  3384  02DB' 3A80               	xorlw	128
  3385  02DC' 00FF               	movwf	127
  3386  02DD' 3080               	movlw	128
  3387  02DE' 027F               	subwf	127,w
  3388  02DF' 1D03               	skipz
  3389  02E0' 2800'              	goto	u2385
  3390  02E1' 3001               	movlw	1
  3391  02E2' 0218'              	subwf	___flmul@temp,w
  3392  02E3'                    u2385:	
  3393  02E3' 1803               	skipnc
  3394  02E4' 2800'              	goto	l1672
  3395  02E5' 3000               	movlw	0
  3396  02E6' 1283               	bcf	3,5	;RP0=0, select bank0
  3397  02E7' 1303               	bcf	3,6	;RP1=0, select bank0
  3398  02E8' 0097'              	movwf	___flmul@prod+3
  3399  02E9' 3000               	movlw	0
  3400  02EA' 0096'              	movwf	___flmul@prod+2
  3401  02EB' 3000               	movlw	0
  3402  02EC' 0095'              	movwf	___flmul@prod+1
  3403  02ED' 3000               	movlw	0
  3404  02EE' 0094'              	movwf	___flmul@prod
  3405  02EF' 018D'              	clrf	___flmul@sign
  3406  02F0' 2800'              	goto	l547
  3407  02F1'                    l1672:	
  3408  02F1' 1283               	bcf	3,5	;RP0=0, select bank0
  3409  02F2' 1303               	bcf	3,6	;RP1=0, select bank0
  3410  02F3' 0818'              	movf	___flmul@temp,w
  3411  02F4' 0088'              	movwf	??___flmul
  3412  02F5' 0808'              	movf	??___flmul,w
  3413  02F6' 0093'              	movwf	___flmul@bexp
  3414  02F7' 30FF               	movlw	255
  3415  02F8' 0594'              	andwf	___flmul@prod,f
  3416  02F9' 30FF               	movlw	255
  3417  02FA' 0595'              	andwf	___flmul@prod+1,f
  3418  02FB' 307F               	movlw	127
  3419  02FC' 0596'              	andwf	___flmul@prod+2,f
  3420  02FD' 3000               	movlw	0
  3421  02FE' 0597'              	andwf	___flmul@prod+3,f
  3422  02FF' 1813'              	btfsc	___flmul@bexp,0
  3423  0300' 1796'              	bsf	___flmul@prod+2,7
  3424  0301' 0813'              	movf	___flmul@bexp,w
  3425  0302' 0088'              	movwf	??___flmul
  3426  0303' 1003               	clrc
  3427  0304' 0C08'              	rrf	??___flmul,w
  3428  0305' 0089'              	movwf	??___flmul+1
  3429  0306' 0809'              	movf	??___flmul+1,w
  3430  0307' 0097'              	movwf	___flmul@prod+3
  3431  0308'                    l547:	
  3432  0308' 080D'              	movf	___flmul@sign,w
  3433  0309' 0088'              	movwf	??___flmul
  3434  030A' 0808'              	movf	??___flmul,w
  3435  030B' 0497'              	iorwf	___flmul@prod+3,f
  3436  030C' 0817'              	movf	___flmul@prod+3,w
  3437  030D' 0083'              	movwf	?___flmul+3
  3438  030E' 0816'              	movf	___flmul@prod+2,w
  3439  030F' 0082'              	movwf	?___flmul+2
  3440  0310' 0815'              	movf	___flmul@prod+1,w
  3441  0311' 0081'              	movwf	?___flmul+1
  3442  0312' 0814'              	movf	___flmul@prod,w
  3443  0313' 0080'              	movwf	?___flmul
  3444  0314' 0008               	return
  3445  0315'                    __end_of___flmul:	
  3446                           
  3447                           	psect	text7
  3448  0000'                    __ptext7:	
  3449 ;; *************** function __Umul8_16 *****************
  3450 ;; Defined at:
  3451 ;;		line 4 in file "C:\Program Files (x86)\Microchip\xc8\v2.05\pic\sources\c90\common\Umul8_16.c"
  3452 ;; Parameters:    Size  Location     Type
  3453 ;;  multiplier      1    wreg     unsigned char 
  3454 ;;  multiplicand    1    0[COMMON] unsigned char 
  3455 ;; Auto vars:     Size  Location     Type
  3456 ;;  multiplier      1    8[COMMON] unsigned char 
  3457 ;;  word_mpld       2    6[COMMON] unsigned int 
  3458 ;;  product         2    4[COMMON] unsigned int 
  3459 ;; Return value:  Size  Location     Type
  3460 ;;                  2    0[COMMON] unsigned int 
  3461 ;; Registers used:
  3462 ;;		wreg, status,2, status,0
  3463 ;; Tracked objects:
  3464 ;;		On entry : 0/0
  3465 ;;		On exit  : 0/0
  3466 ;;		Unchanged: 0/0
  3467 ;; Data sizes:     COMMON   BANK0   BANK1   BANK3   BANK2
  3468 ;;      Params:         2       0       0       0       0
  3469 ;;      Locals:         5       0       0       0       0
  3470 ;;      Temps:          2       0       0       0       0
  3471 ;;      Totals:         9       0       0       0       0
  3472 ;;Total ram usage:        9 bytes
  3473 ;; Hardware stack levels used:    1
  3474 ;; This function calls:
  3475 ;;		Nothing
  3476 ;; This function is called by:
  3477 ;;		___flmul
  3478 ;; This function uses a non-reentrant model
  3479 ;;
  3480                           
  3481                           
  3482                           ;psect for function __Umul8_16
  3483  0000'                    __Umul8_16:	
  3484                           
  3485                           ;incstack = 0
  3486                           ; Regs used in __Umul8_16: [wreg+status,2+status,0]
  3487                           ;__Umul8_16@multiplier stored from wreg
  3488  0000' 0088'              	movwf	__Umul8_16@multiplier
  3489  0001' 0184'              	clrf	__Umul8_16@product
  3490  0002' 0185'              	clrf	__Umul8_16@product+1
  3491  0003' 0800'              	movf	__Umul8_16@multiplicand,w
  3492  0004' 0082'              	movwf	??__Umul8_16
  3493  0005' 0183'              	clrf	??__Umul8_16+1
  3494  0006' 0802'              	movf	??__Umul8_16,w
  3495  0007' 0086'              	movwf	__Umul8_16@word_mpld
  3496  0008' 0803'              	movf	??__Umul8_16+1,w
  3497  0009' 0087'              	movwf	__Umul8_16@word_mpld+1
  3498  000A'                    l1458:	
  3499  000A' 1C08'              	btfss	__Umul8_16@multiplier,0
  3500  000B' 2800'              	goto	l592
  3501  000C' 0806'              	movf	__Umul8_16@word_mpld,w
  3502  000D' 0784'              	addwf	__Umul8_16@product,f
  3503  000E' 1803               	skipnc
  3504  000F' 0A85'              	incf	__Umul8_16@product+1,f
  3505  0010' 0807'              	movf	__Umul8_16@word_mpld+1,w
  3506  0011' 0785'              	addwf	__Umul8_16@product+1,f
  3507  0012'                    l592:	
  3508  0012' 3001               	movlw	1
  3509  0013'                    u1805:	
  3510  0013' 1003               	clrc
  3511  0014' 0D86'              	rlf	__Umul8_16@word_mpld,f
  3512  0015' 0D87'              	rlf	__Umul8_16@word_mpld+1,f
  3513  0016' 3EFF               	addlw	-1
  3514  0017' 1D03               	skipz
  3515  0018' 2800'              	goto	u1805
  3516  0019' 1003               	clrc
  3517  001A' 0C88'              	rrf	__Umul8_16@multiplier,f
  3518  001B' 0808'              	movf	__Umul8_16@multiplier,w
  3519  001C' 1D03               	btfss	3,2
  3520  001D' 2800'              	goto	l1458
  3521  001E' 0805'              	movf	__Umul8_16@product+1,w
  3522  001F' 0081'              	movwf	?__Umul8_16+1
  3523  0020' 0804'              	movf	__Umul8_16@product,w
  3524  0021' 0080'              	movwf	?__Umul8_16
  3525  0022' 0008               	return
  3526  0023'                    __end_of__Umul8_16:	
  3527                           
  3528                           	psect	text8
  3529  0000'                    __ptext8:	
  3530 ;; *************** function ___flge *****************
  3531 ;; Defined at:
  3532 ;;		line 4 in file "C:\Program Files (x86)\Microchip\xc8\v2.05\pic\sources\c90\common\flge.c"
  3533 ;; Parameters:    Size  Location     Type
  3534 ;;  ff1             4    0[COMMON] unsigned int 
  3535 ;;  ff2             4    4[COMMON] unsigned int 
  3536 ;; Auto vars:     Size  Location     Type
  3537 ;;		None
  3538 ;; Return value:  Size  Location     Type
  3539 ;;		None               void
  3540 ;; Registers used:
  3541 ;;		wreg, status,2, status,0
  3542 ;; Tracked objects:
  3543 ;;		On entry : 0/0
  3544 ;;		On exit  : 0/0
  3545 ;;		Unchanged: 0/0
  3546 ;; Data sizes:     COMMON   BANK0   BANK1   BANK3   BANK2
  3547 ;;      Params:         8       0       0       0       0
  3548 ;;      Locals:         0       0       0       0       0
  3549 ;;      Temps:          4       0       0       0       0
  3550 ;;      Totals:        12       0       0       0       0
  3551 ;;Total ram usage:       12 bytes
  3552 ;; Hardware stack levels used:    1
  3553 ;; This function calls:
  3554 ;;		Nothing
  3555 ;; This function is called by:
  3556 ;;		_main
  3557 ;; This function uses a non-reentrant model
  3558 ;;
  3559                           
  3560                           
  3561                           ;psect for function ___flge
  3562  0000'                    ___flge:	
  3563                           
  3564                           ;incstack = 0
  3565                           ; Regs used in ___flge: [wreg+status,2+status,0]
  3566  0000' 3000               	movlw	0
  3567  0001' 0500'              	andwf	___flge@ff1,w
  3568  0002' 0088'              	movwf	??___flge
  3569  0003' 3000               	movlw	0
  3570  0004' 0501'              	andwf	___flge@ff1+1,w
  3571  0005' 0089'              	movwf	??___flge+1
  3572  0006' 3080               	movlw	128
  3573  0007' 0502'              	andwf	___flge@ff1+2,w
  3574  0008' 008A'              	movwf	??___flge+2
  3575  0009' 307F               	movlw	127
  3576  000A' 0503'              	andwf	___flge@ff1+3,w
  3577  000B' 008B'              	movwf	??___flge+3
  3578  000C' 080B'              	movf	??___flge+3,w
  3579  000D' 040A'              	iorwf	??___flge+2,w
  3580  000E' 0409'              	iorwf	??___flge+1,w
  3581  000F' 0408'              	iorwf	??___flge,w
  3582  0010' 1D03               	skipz
  3583  0011' 2800'              	goto	l320
  3584  0012' 3000               	movlw	0
  3585  0013' 0083'              	movwf	___flge@ff1+3
  3586  0014' 3000               	movlw	0
  3587  0015' 0082'              	movwf	___flge@ff1+2
  3588  0016' 3000               	movlw	0
  3589  0017' 0081'              	movwf	___flge@ff1+1
  3590  0018' 3000               	movlw	0
  3591  0019' 0080'              	movwf	___flge@ff1
  3592  001A'                    l320:	
  3593  001A' 3000               	movlw	0
  3594  001B' 0504'              	andwf	___flge@ff2,w
  3595  001C' 0088'              	movwf	??___flge
  3596  001D' 3000               	movlw	0
  3597  001E' 0505'              	andwf	___flge@ff2+1,w
  3598  001F' 0089'              	movwf	??___flge+1
  3599  0020' 3080               	movlw	128
  3600  0021' 0506'              	andwf	___flge@ff2+2,w
  3601  0022' 008A'              	movwf	??___flge+2
  3602  0023' 307F               	movlw	127
  3603  0024' 0507'              	andwf	___flge@ff2+3,w
  3604  0025' 008B'              	movwf	??___flge+3
  3605  0026' 080B'              	movf	??___flge+3,w
  3606  0027' 040A'              	iorwf	??___flge+2,w
  3607  0028' 0409'              	iorwf	??___flge+1,w
  3608  0029' 0408'              	iorwf	??___flge,w
  3609  002A' 1D03               	skipz
  3610  002B' 2800'              	goto	l1488
  3611  002C' 3000               	movlw	0
  3612  002D' 0087'              	movwf	___flge@ff2+3
  3613  002E' 3000               	movlw	0
  3614  002F' 0086'              	movwf	___flge@ff2+2
  3615  0030' 3000               	movlw	0
  3616  0031' 0085'              	movwf	___flge@ff2+1
  3617  0032' 3000               	movlw	0
  3618  0033' 0084'              	movwf	___flge@ff2
  3619  0034'                    l1488:	
  3620  0034' 1F83'              	btfss	___flge@ff1+3,7
  3621  0035' 2800'              	goto	l1492
  3622  0036' 3000               	movlw	0
  3623  0037' 0088'              	movwf	??___flge
  3624  0038' 3000               	movlw	0
  3625  0039' 0089'              	movwf	??___flge+1
  3626  003A' 3000               	movlw	0
  3627  003B' 008A'              	movwf	??___flge+2
  3628  003C' 3080               	movlw	128
  3629  003D' 008B'              	movwf	??___flge+3
  3630  003E' 0800'              	movf	___flge@ff1,w
  3631  003F' 0288'              	subwf	??___flge,f
  3632  0040' 0801'              	movf	___flge@ff1+1,w
  3633  0041' 1C03               	skipc
  3634  0042' 0F01'              	incfsz	___flge@ff1+1,w
  3635  0043' 2800'              	goto	u1891
  3636  0044' 2800'              	goto	u1892
  3637  0045'                    u1891:	
  3638  0045' 0289'              	subwf	??___flge+1,f
  3639  0046'                    u1892:	
  3640  0046' 0802'              	movf	___flge@ff1+2,w
  3641  0047' 1C03               	skipc
  3642  0048' 0F02'              	incfsz	___flge@ff1+2,w
  3643  0049' 2800'              	goto	u1893
  3644  004A' 2800'              	goto	u1894
  3645  004B'                    u1893:	
  3646  004B' 028A'              	subwf	??___flge+2,f
  3647  004C'                    u1894:	
  3648  004C' 0803'              	movf	___flge@ff1+3,w
  3649  004D' 1C03               	skipc
  3650  004E' 0F03'              	incfsz	___flge@ff1+3,w
  3651  004F' 2800'              	goto	u1895
  3652  0050' 2800'              	goto	u1896
  3653  0051'                    u1895:	
  3654  0051' 028B'              	subwf	??___flge+3,f
  3655  0052'                    u1896:	
  3656  0052' 080B'              	movf	??___flge+3,w
  3657  0053' 0083'              	movwf	___flge@ff1+3
  3658  0054' 080A'              	movf	??___flge+2,w
  3659  0055' 0082'              	movwf	___flge@ff1+2
  3660  0056' 0809'              	movf	??___flge+1,w
  3661  0057' 0081'              	movwf	___flge@ff1+1
  3662  0058' 0808'              	movf	??___flge,w
  3663  0059' 0080'              	movwf	___flge@ff1
  3664  005A'                    l1492:	
  3665  005A' 1F87'              	btfss	___flge@ff2+3,7
  3666  005B' 2800'              	goto	l323
  3667  005C' 3000               	movlw	0
  3668  005D' 0088'              	movwf	??___flge
  3669  005E' 3000               	movlw	0
  3670  005F' 0089'              	movwf	??___flge+1
  3671  0060' 3000               	movlw	0
  3672  0061' 008A'              	movwf	??___flge+2
  3673  0062' 3080               	movlw	128
  3674  0063' 008B'              	movwf	??___flge+3
  3675  0064' 0804'              	movf	___flge@ff2,w
  3676  0065' 0288'              	subwf	??___flge,f
  3677  0066' 0805'              	movf	___flge@ff2+1,w
  3678  0067' 1C03               	skipc
  3679  0068' 0F05'              	incfsz	___flge@ff2+1,w
  3680  0069' 2800'              	goto	u1911
  3681  006A' 2800'              	goto	u1912
  3682  006B'                    u1911:	
  3683  006B' 0289'              	subwf	??___flge+1,f
  3684  006C'                    u1912:	
  3685  006C' 0806'              	movf	___flge@ff2+2,w
  3686  006D' 1C03               	skipc
  3687  006E' 0F06'              	incfsz	___flge@ff2+2,w
  3688  006F' 2800'              	goto	u1913
  3689  0070' 2800'              	goto	u1914
  3690  0071'                    u1913:	
  3691  0071' 028A'              	subwf	??___flge+2,f
  3692  0072'                    u1914:	
  3693  0072' 0807'              	movf	___flge@ff2+3,w
  3694  0073' 1C03               	skipc
  3695  0074' 0F07'              	incfsz	___flge@ff2+3,w
  3696  0075' 2800'              	goto	u1915
  3697  0076' 2800'              	goto	u1916
  3698  0077'                    u1915:	
  3699  0077' 028B'              	subwf	??___flge+3,f
  3700  0078'                    u1916:	
  3701  0078' 080B'              	movf	??___flge+3,w
  3702  0079' 0087'              	movwf	___flge@ff2+3
  3703  007A' 080A'              	movf	??___flge+2,w
  3704  007B' 0086'              	movwf	___flge@ff2+2
  3705  007C' 0809'              	movf	??___flge+1,w
  3706  007D' 0085'              	movwf	___flge@ff2+1
  3707  007E' 0808'              	movf	??___flge,w
  3708  007F' 0084'              	movwf	___flge@ff2
  3709  0080'                    l323:	
  3710  0080' 3080               	movlw	128
  3711  0081' 0683'              	xorwf	___flge@ff1+3,f
  3712  0082' 3080               	movlw	128
  3713  0083' 0687'              	xorwf	___flge@ff2+3,f
  3714  0084' 0807'              	movf	___flge@ff2+3,w
  3715  0085' 0203'              	subwf	___flge@ff1+3,w
  3716  0086' 1D03               	skipz
  3717  0087' 0008               	return
  3718  0088' 0806'              	movf	___flge@ff2+2,w
  3719  0089' 0202'              	subwf	___flge@ff1+2,w
  3720  008A' 1D03               	skipz
  3721  008B' 0008               	return
  3722  008C' 0805'              	movf	___flge@ff2+1,w
  3723  008D' 0201'              	subwf	___flge@ff1+1,w
  3724  008E' 1D03               	skipz
  3725  008F' 0008               	return
  3726  0090' 0804'              	movf	___flge@ff2,w
  3727  0091' 0200'              	subwf	___flge@ff1,w
  3728  0092' 0008               	return
  3729  0093'                    __end_of___flge:	
  3730  007E                     btemp	set	126	;btemp
  3731  007E                     wtemp0	set	126


Data Sizes:
    Strings     75
    Constant    0
    Data        0
    BSS         8
    Persistent  0
    Stack       0

Auto Spaces:
    Space          Size  Autos    Used
    COMMON           14     14      14
    BANK0            80     60      68
    BANK1            80      0       0
    BANK3            96      0       0
    BANK2            96      0       0

Pointer List with Targets:

    lcd_puts$0	PTR unsigned char  size(1) Largest target is 18
		 -> STR_13(CODE[6]), STR_12(CODE[15]), STR_11(CODE[6]), STR_10(CODE[15]), 
		 -> STR_9(CODE[6]), STR_8(CODE[2]), STR_7(CODE[15]), STR_6(CODE[6]), 
		 -> STR_5(CODE[2]), STR_4(CODE[15]), STR_3(CODE[17]), STR_2(CODE[17]), 
		 -> STR_1(CODE[18]), 


Critical Paths under _main in COMMON

    _main->___xxtofl
    ___fltol->___xxtofl
    ___flsub->___fladd
    ___flmul->___xxtofl

Critical Paths under _main in BANK0

    _main->___fltol
    ___fltol->___flmul
    ___flsub->___fladd

Critical Paths under _main in BANK1

    None.

Critical Paths under _main in BANK3

    None.

Critical Paths under _main in BANK2

    None.

Call Graph Tables:

 ---------------------------------------------------------------------------------
 (Depth) Function   	        Calls       Base Space   Used Autos Params    Refs
 ---------------------------------------------------------------------------------
 (0) _main                                                23    23      0    8334
                                             37 BANK0     23    23      0
                             ___flge
                            ___flmul
                            ___flsub
                            ___fltol
                             ___wmul
                           ___xxtofl
                            _lcd_bcd
                            _lcd_com
                           _lcd_data
                           _lcd_init
                           _lcd_puts
                           _ow_reset
                          _read_byte
                         _write_byte
 ---------------------------------------------------------------------------------
 (1) _write_byte                                           0     0      0       0
 ---------------------------------------------------------------------------------
 (1) _read_byte                                            0     0      0       0
 ---------------------------------------------------------------------------------
 (1) _ow_reset                                             0     0      0       0
 ---------------------------------------------------------------------------------
 (1) _lcd_puts                                             0     0      0     117
 ---------------------------------------------------------------------------------
 (1) _lcd_init                                             0     0      0       0
 ---------------------------------------------------------------------------------
 (1) _lcd_data                                             0     0      0       0
 ---------------------------------------------------------------------------------
 (1) _lcd_com                                              0     0      0       0
 ---------------------------------------------------------------------------------
 (1) _lcd_bcd                                              2     0      2      48
 ---------------------------------------------------------------------------------
 (1) ___xxtofl                                            14    10      4     550
                                              0 COMMON    14    10      4
 ---------------------------------------------------------------------------------
 (1) ___wmul                                               6     2      4     244
                                              0 COMMON     6     2      4
 ---------------------------------------------------------------------------------
 (1) ___fltol                                             11     7      4     609
                                             26 BANK0     11     7      4
                            ___flmul (ARG)
                           ___xxtofl (ARG)
 ---------------------------------------------------------------------------------
 (1) ___flsub                                              8     0      8    2789
                                              8 BANK0      8     0      8
                            ___fladd
 ---------------------------------------------------------------------------------
 (2) ___fladd                                             20    12      8    2136
                                              0 COMMON    12     4      8
                                              0 BANK0      8     8      0
 ---------------------------------------------------------------------------------
 (1) ___flmul                                             26    18      8    2569
                                              0 BANK0     26    18      8
                          __Umul8_16
                           ___xxtofl (ARG)
 ---------------------------------------------------------------------------------
 (2) __Umul8_16                                            9     7      2     799
                                              0 COMMON     9     7      2
 ---------------------------------------------------------------------------------
 (1) ___flge                                              12     4      8     790
                                              0 COMMON    12     4      8
 ---------------------------------------------------------------------------------
 Estimated maximum stack depth 2
 ---------------------------------------------------------------------------------

 Call Graph Graphs:

 _main (ROOT)
   ___flge
   ___flmul
     __Umul8_16
     ___xxtofl (ARG)
   ___flsub
     ___fladd
   ___fltol
     ___flmul (ARG)
       __Umul8_16
       ___xxtofl (ARG)
     ___xxtofl (ARG)
   ___wmul
   ___xxtofl
   _lcd_bcd
   _lcd_com
   _lcd_data
   _lcd_init
   _lcd_puts
   _ow_reset
   _read_byte
   _write_byte

 Address spaces:
Name               Size   Autos  Total    Cost      Usage
BITCOMMON            E      0       0       0        0.0%
EEDATA             100      0       0       0        0.0%
NULL                 0      0       0       0        0.0%
CODE                 0      0       0       0        0.0%
COMMON               E      E       E       1      100.0%
BITSFR0              0      0       0       1        0.0%
SFR0                 0      0       0       1        0.0%
BITSFR1              0      0       0       2        0.0%
SFR1                 0      0       0       2        0.0%
STACK                0      0       0       2        0.0%
ABS                  0      0      52       3        0.0%
BITBANK0            50      0       0       4        0.0%
BITSFR3              0      0       0       4        0.0%
SFR3                 0      0       0       4        0.0%
BANK0               50     3C      44       5       85.0%
BITSFR2              0      0       0       5        0.0%
SFR2                 0      0       0       5        0.0%
BITBANK1            50      0       0       6        0.0%
BANK1               50      0       0       7        0.0%
BITBANK3            60      0       0       8        0.0%
BANK3               60      0       0       9        0.0%
BITBANK2            60      0       0      10        0.0%
BANK2               60      0       0      11        0.0%
DATA                 0      0      52      12        0.0%


Microchip Technology PIC Macro Assembler V2.05 build -831301201 
Symbol Table                                                                                   Sat Nov 30 10:21:14 2019

                      pc 0002              __CFG_CP$OFF 0000                       l34 0015  
                     fsr 0004      ___wmul@multiplicand 0002      __Umul8_16@word_mpld 0006  
                    l320 001A                      l146 000A                      l323 0080  
                    l443 00ED                      l339 004F                      l460 01AC  
                    l445 00C9                      l439 0052                      l481 0232  
                    l473 0218                      l547 0308                      l573 001D  
                    l592 0012                      l586 0073                      l587 007D  
                    l579 005D             __CFG_CPD$OFF 0000             __CFG_FOSC$HS 0000  
           ___flmul@aexp 0012             ___flmul@bexp 0013             ___flmul@sign 000D  
           ___flmul@temp 0018             ___flmul@prod 0014             __CFG_LVP$OFF 0000  
           ___fltol@exp1 0024                     l1302 004A                     l1400 01BE  
                   l1308 005C                     l1422 01E1                     l1414 01D6  
                   l1408 01CF                     l1416 01D8                     l1280 0028  
                   l1504 000B                     l1426 01E3                     l1346 00D6  
                   l1338 0098                     l1274 001D                     l1444 0228  
                   l1372 011E                     l1364 00FB                     l1348 00D8  
                   l1356 00E9                     l1524 003B                     l1508 0014  
                   l1700 0030                     l1374 0120                     l1382 0132  
                   l1278 0020                     l1534 005E                     l1526 004B  
                   l1470 0002                     l1710 0071                     l1702 0042  
                   l1640 025A                     l1560 001F                     l1448 022C  
                   l1392 019E                     l1712 0062                     l1458 000A  
                   l1642 0277                     l1562 0027                     l1298 0047  
                   l1492 005A                     l1652 0290                     l1580 004C  
                   l1724 009A                     l1740 0036                     l1662 02C2  
                   l1558 001D                     l1822 02FB                     l1806 0209  
                   l1742 006A                     l1488 0034                     l1672 02F1  
                   l1648 028E                     l1576 0042                     l1808 0249  
                   l1666 02D8                     l1578 0044                     l1690 0015  
                   l1588 005A                     l1836 033F                     l1790 01BF  
                   l1696 002C                     STR_1 0006                     STR_2 0029  
                   STR_3 0018                     STR_4 003A                     STR_5 004F  
                   STR_6 0049                     STR_7 003A                     STR_8 004F  
                   STR_9 0049                     u2005 0054                     u1430 00B6  
                   u1440 00B7                     u2225 0203                     u1425 00AC  
                   u2155 010A                     u2245 0228                     u2265 0246  
                   u2185 0167                     u1625 01C2                     u2275 025E  
                   u1571 015F                     u1563 0144                     u1555 0126  
                   u1475 00DE                     u2515 0085                     u2435 0039  
                   u1580 0173                     u1572 0160                     u1805 0013  
                   u2365 02AD                     u1725 0202                     u1581 0174  
                   u1573 0165                     u1582 0179                     u1574 0166  
                   u1911 006B                     u2375 02CB                     u2295 0269  
                   u1583 017A                     u1575 016B                     u2455 0055  
                   u1912 006C                     u1576 016C                     u1913 0071  
                   u2385 02E3                     u1914 0072                     u1915 0077  
                   u1835 000B                     u2475 006A                     u1916 0078  
                   u1845 0012                     u2637 007A                     u2575 00B3  
                   u1945 001D                     u2585 00CA                     u1891 0045  
                   u1892 0046                     u1893 004B                     u1894 004C  
                   u1895 0051                     u1975 003C                     u1896 0052  
           __CFG_WRT$OFF 0000                     _main 0000                     btemp 007E  
          __CFG_BOREN$ON 0000                     start 0000*           ___fltol@sign1 0023  
        __end_of___fladd 023F                    ?_main 0000                    STR_10 003A  
                  STR_11 0049                    STR_12 003A                    STR_13 0049  
          __CFG_WDTE$OFF 0000          __end_of___flmul 0315          __end_of___flsub 0022  
        __end_of___fltol 006D                    _TRISA 0085                    _TRISB 0086  
                  _TRISD 0088                    main@i 0038                    main@t 0036  
                  pclath 000A                    status 0003                    wtemp0 007E  
        __initialization 0000             __end_of_main 0379                   ??_main 0025  
       __end_of___xxtofl 00A3           __CFG_PWRTE$OFF 0000                   ___flge 0000  
              ??___fladd 0000                   ___wmul 0000                ??___flmul 0008  
              ??___flsub 000C                ??___fltol 001E                   main@t2 0034  
              ??_lcd_bcd 0000                ??_lcd_com 0000       __size_of__Umul8_16 0023  
             ___flge@ff1 0000               ___flge@ff2 0004             ___xxtofl@arg 000A  
           ___xxtofl@exp 0009             ___xxtofl@val 0000  __end_of__initialization 000A  
             ___fltol@f1 001A           __pcstackCOMMON 0000               __pbssBANK0 0000  
      __end_of__Umul8_16 0023               __pmaintext 0000                  ?___flge 0000  
                ?___wmul 0000                ?___xxtofl 0000               _lcd_puts$0 0000  
              ?_lcd_data 0000                ?_lcd_init 0000                ?_lcd_puts 0000  
             __stringtab 0000                ?_ow_reset 0000          __size_of___flge 0093  
                ___fladd 0000                  ___flmul 0000                  ___flsub 0000  
                ___fltol 0000          __size_of___wmul 0021                  _aft_val 0000  
                __ptext1 0000                  __ptext2 0000                  __ptext3 0000  
                __ptext4 0000                  __ptext5 0000                  __ptext6 0000  
                __ptext7 0000                  __ptext8 0000                  _lcd_bcd 0000* 
                _lcd_com 0000*              ??___xxtofl 0004                  _pre_val 0004  
             ??_lcd_data 0000               ??_lcd_init 0000               ??_lcd_puts 0000  
   end_of_initialization 000A               ??_ow_reset 0000              ___fladd@grs 000B  
          ___xxtofl@sign 0008              ___flmul@grs 000E           __end_of___flge 0093  
         __end_of___wmul 0021               _write_byte 0000*     start_initialization 0000  
        main@difference1 0028          main@difference2 002C                 ??___flge 0008  
               ??___wmul 0004                __Umul8_16 0000                ___fladd@a 0004  
              ___fladd@b 0000                ___flmul@a 0004                ___flmul@b 0000  
              ___flsub@a 0008                ___flsub@b 000C                ___latbits 0002  
          __pcstackBANK0 0000        __size_of___xxtofl 00A3                 ?___fladd 0000  
               ?___flmul 0000                 ?___flsub 0008                 ?___fltol 001A  
              _lcd_bcd$1 0000               ?__Umul8_16 0000              ?_write_byte 0000  
              __pstrings 0000                 ?_lcd_bcd 0000                 ?_lcd_com 0000  
              _read_byte 0000*          ___wmul@product 0004              __stringbase 0005  
      ___wmul@multiplier 0000                main@TempH 0032                main@TempL 0030  
             ?_read_byte 0000              ??__Umul8_16 0002         __size_of___fladd 023F  
       __size_of___flmul 0315         __size_of___flsub 0022         __size_of___fltol 006D  
     __end_of__stringtab 0006                 ___xxtofl 0000                 _lcd_data 0000* 
               _lcd_init 0000*                _lcd_puts 0000*           __size_of_main 0379  
               _ow_reset 0000*             ??_read_byte 0000                stringcode 0000  
           ??_write_byte 0000   __Umul8_16@multiplicand 0000                 stringdir 0000  
               stringtab 0000            ___fladd@signs 0008             ___fladd@aexp 0009  
           ___fladd@bexp 000A     __Umul8_16@multiplier 0008        __Umul8_16@product 0004  
