

Microchip MPLAB XC8 Assembler V2.05 build -831301201 
                                                                                               Tue Jul 30 19:35:13 2019

Microchip MPLAB XC8 C Compiler v2.05 (Free license) build 20181220022703 Og1 
     1                           	processor	16F877A
     2                           	opt	pw 120
     3                           	opt	flic
     4                           	psect	idataBANK1,global,class=CODE,delta=2
     5                           	psect	idataBANK2,global,class=CODE,delta=2
     6                           	psect	strings,global,class=STRING,delta=2
     7                           	psect	cinit,global,class=CODE,merge=1,delta=2
     8                           	psect	bssBANK1,global,class=BANK1,space=1,delta=1
     9                           	psect	dataBANK1,global,class=BANK1,space=1,delta=1
    10                           	psect	dataBANK2,global,class=BANK2,space=1,delta=1
    11                           	psect	inittext,global,class=CODE,delta=2
    12                           	psect	cstackBANK3,global,class=BANK3,space=1,delta=1
    13                           	psect	cstackBANK2,global,class=BANK2,space=1,delta=1
    14                           	psect	cstackBANK1,global,class=BANK1,space=1,delta=1
    15                           	psect	cstackCOMMON,global,class=COMMON,space=1,delta=1
    16                           	psect	cstackBANK0,global,class=BANK0,space=1,delta=1
    17                           	psect	maintext,global,class=CODE,split=1,delta=2
    18                           	psect	text1,local,class=CODE,merge=1,delta=2,group=2
    19                           	psect	text2,local,class=CODE,merge=1,delta=2,group=2
    20                           	psect	text3,local,class=CODE,merge=1,delta=2,group=1
    21                           	psect	text4,local,class=CODE,merge=1,delta=2,group=2
    22                           	psect	text5,local,class=CODE,merge=1,delta=2,group=2
    23                           	psect	text6,local,class=CODE,merge=1,delta=2,group=1
    24                           	psect	text7,local,class=CODE,merge=1,delta=2,group=1
    25                           	psect	text8,local,class=CODE,merge=1,delta=2,group=2
    26                           	psect	text9,local,class=CODE,merge=1,delta=2,group=1
    27                           	psect	text10,local,class=CODE,merge=1,delta=2,group=1
    28                           	psect	text11,local,class=CODE,merge=1,delta=2
    29                           	psect	text12,local,class=CODE,merge=1,delta=2
    30                           	psect	text13,local,class=CODE,merge=1,delta=2
    31                           	psect	text14,local,class=CODE,merge=1,delta=2
    32                           	psect	text15,local,class=CODE,merge=1,delta=2,group=1
    33                           	psect	text16,local,class=CODE,merge=1,delta=2,group=1
    34                           	psect	text17,local,class=CODE,merge=1,delta=2,group=1
    35                           	psect	text18,local,class=CODE,merge=1,delta=2,group=1
    36                           	psect	text19,local,class=CODE,merge=1,delta=2,group=1
    37                           	psect	text20,local,class=CODE,merge=1,delta=2,group=1
    38                           	psect	text21,local,class=CODE,merge=1,delta=2,group=1
    39                           	psect	text22,local,class=CODE,merge=1,delta=2,group=1
    40                           	psect	text23,local,class=CODE,merge=1,delta=2
    41                           	psect	text24,local,class=CODE,merge=1,delta=2
    42                           	psect	text25,local,class=CODE,merge=1,delta=2
    43                           	psect	text26,local,class=CODE,merge=1,delta=2
    44                           	psect	text27,local,class=CODE,merge=1,delta=2
    45                           	psect	text28,local,class=CODE,merge=1,delta=2
    46                           	psect	text29,local,class=CODE,merge=1,delta=2
    47                           	psect	maintext_split_1,global,class=CODE,split=1,delta=2
    48                           	dabs	1,0x7E,2
    49  0000                     
    50                           ; Version 2.05
    51                           ; Generated 20/12/2018 GMT
    52                           ; 
    53                           ; Copyright © 2018, Microchip Technology Inc. and its subsidiaries ("Microchip")
    54                           ; All rights reserved.
    55                           ; 
    56                           ; This software is developed by Microchip Technology Inc. and its subsidiaries ("Microch
      +                          ip").
    57                           ; 
    58                           ; Redistribution and use in source and binary forms, with or without modification, are
    59                           ; permitted provided that the following conditions are met:
    60                           ; 
    61                           ;     1. Redistributions of source code must retain the above copyright notice, this lis
      +                          t of
    62                           ;        conditions and the following disclaimer.
    63                           ; 
    64                           ;     2. Redistributions in binary form must reproduce the above copyright notice, this 
      +                          list
    65                           ;        of conditions and the following disclaimer in the documentation and/or other
    66                           ;        materials provided with the distribution.
    67                           ; 
    68                           ;     3. Microchip's name may not be used to endorse or promote products derived from th
      +                          is
    69                           ;        software without specific prior written permission.
    70                           ; 
    71                           ; THIS SOFTWARE IS PROVIDED BY MICROCHIP "AS IS" AND ANY EXPRESS OR IMPLIED WARRANTIES,
    72                           ; INCLUDING, BUT NOT LIMITED TO, THE IMPLIED WARRANTIES OF MERCHANTABILITY AND FITNESS F
      +                          OR
    73                           ; PURPOSE ARE DISCLAIMED.  IN NO EVENT SHALL MICROCHIP BE LIABLE FOR ANY DIRECT, INDIREC
      +                          T,
    74                           ; INCIDENTAL, SPECIAL, EXEMPLARY, OR CONSEQUENTIAL DAMAGES (INCLUDING BUT NOT LIMITED TO
    75                           ; PROCUREMENT OF SUBSTITUTE GOODS OR SERVICES; LOSS OF USE, DATA OR PROFITS; OR BUSINESS
    76                           ; INTERRUPTION) HOWSOEVER CAUSED AND ON ANY THEORY OF LIABILITY, WHETHER IN CONTRACT, ST
      +                          RICT
    77                           ; LIABILITY, OR TORT (INCLUDING NEGLIGENCE OR OTHERWISE) ARISING IN ANY WAY OUT OF THE U
      +                          SE OF
    78                           ; THIS SOFTWARE, EVEN IF ADVISED OF THE POSSIBILITY OF SUCH DAMAGE.
    79                           ; 
    80                           ; 
    81                           ; Code-generator required, PIC16F877A Definitions
    82                           ; 
    83                           ; SFR Addresses
    84  0000                     	;# 
    85  0001                     	;# 
    86  0002                     	;# 
    87  0003                     	;# 
    88  0004                     	;# 
    89  0005                     	;# 
    90  0006                     	;# 
    91  0007                     	;# 
    92  0008                     	;# 
    93  0009                     	;# 
    94  000A                     	;# 
    95  000B                     	;# 
    96  000C                     	;# 
    97  000D                     	;# 
    98  000E                     	;# 
    99  000E                     	;# 
   100  000F                     	;# 
   101  0010                     	;# 
   102  0011                     	;# 
   103  0012                     	;# 
   104  0013                     	;# 
   105  0014                     	;# 
   106  0015                     	;# 
   107  0015                     	;# 
   108  0016                     	;# 
   109  0017                     	;# 
   110  0018                     	;# 
   111  0019                     	;# 
   112  001A                     	;# 
   113  001B                     	;# 
   114  001B                     	;# 
   115  001C                     	;# 
   116  001D                     	;# 
   117  001E                     	;# 
   118  001F                     	;# 
   119  0081                     	;# 
   120  0085                     	;# 
   121  0086                     	;# 
   122  0087                     	;# 
   123  0088                     	;# 
   124  0089                     	;# 
   125  008C                     	;# 
   126  008D                     	;# 
   127  008E                     	;# 
   128  0091                     	;# 
   129  0092                     	;# 
   130  0093                     	;# 
   131  0094                     	;# 
   132  0098                     	;# 
   133  0099                     	;# 
   134  009C                     	;# 
   135  009D                     	;# 
   136  009E                     	;# 
   137  009F                     	;# 
   138  010C                     	;# 
   139  010D                     	;# 
   140  010E                     	;# 
   141  010F                     	;# 
   142  018C                     	;# 
   143  018D                     	;# 
   144  0000                     	;# 
   145  0001                     	;# 
   146  0002                     	;# 
   147  0003                     	;# 
   148  0004                     	;# 
   149  0005                     	;# 
   150  0006                     	;# 
   151  0007                     	;# 
   152  0008                     	;# 
   153  0009                     	;# 
   154  000A                     	;# 
   155  000B                     	;# 
   156  000C                     	;# 
   157  000D                     	;# 
   158  000E                     	;# 
   159  000E                     	;# 
   160  000F                     	;# 
   161  0010                     	;# 
   162  0011                     	;# 
   163  0012                     	;# 
   164  0013                     	;# 
   165  0014                     	;# 
   166  0015                     	;# 
   167  0015                     	;# 
   168  0016                     	;# 
   169  0017                     	;# 
   170  0018                     	;# 
   171  0019                     	;# 
   172  001A                     	;# 
   173  001B                     	;# 
   174  001B                     	;# 
   175  001C                     	;# 
   176  001D                     	;# 
   177  001E                     	;# 
   178  001F                     	;# 
   179  0081                     	;# 
   180  0085                     	;# 
   181  0086                     	;# 
   182  0087                     	;# 
   183  0088                     	;# 
   184  0089                     	;# 
   185  008C                     	;# 
   186  008D                     	;# 
   187  008E                     	;# 
   188  0091                     	;# 
   189  0092                     	;# 
   190  0093                     	;# 
   191  0094                     	;# 
   192  0098                     	;# 
   193  0099                     	;# 
   194  009C                     	;# 
   195  009D                     	;# 
   196  009E                     	;# 
   197  009F                     	;# 
   198  010C                     	;# 
   199  010D                     	;# 
   200  010E                     	;# 
   201  010F                     	;# 
   202  018C                     	;# 
   203  018D                     	;# 
   204                           
   205                           	psect	idataBANK1
   206  0806                     __pidataBANK1:	
   207                           
   208                           ;initializer for main@F1018
   209  0806  3445               	retlw	69
   210  0807  343D               	retlw	61
   211  0808  3400               	retlw	0
   212                           
   213                           	psect	idataBANK2
   214  1A48                     __pidataBANK2:	
   215                           
   216                           ;initializer for main@F1016
   217  1A48  3444               	retlw	68
   218  1A49  343D               	retlw	61
   219  1A4A  3400               	retlw	0
   220                           
   221                           ;initializer for main@F1014
   222  1A4B  3443               	retlw	67
   223  1A4C  343D               	retlw	61
   224  1A4D  3400               	retlw	0
   225                           
   226                           ;initializer for main@F1012
   227  1A4E  3442               	retlw	66
   228  1A4F  343D               	retlw	61
   229  1A50  3400               	retlw	0
   230                           
   231                           ;initializer for main@F1010
   232  1A51  3441               	retlw	65
   233  1A52  343D               	retlw	61
   234  1A53  3400               	retlw	0
   235                           
   236                           	psect	strings
   237  0003                     __pstrings:	
   238  0003                     stringtab:	
   239  0003                     __stringtab:	
   240  0003                     stringcode:	
   241                           ;	String table - string pointers are 1 byte each
   242                           
   243  0003                     stringdir:	
   244  0003  3000               	movlw	high stringdir
   245  0004  008A               	movwf	10
   246  0005  0804               	movf	4,w
   247  0006  0A84               	incf	4,f
   248  0007  0782               	addwf	2,f
   249  0008                     __stringbase:	
   250  0008  3400               	retlw	0
   251  0009                     __end_of__stringtab:	
   252  0009                     _dpowers:	
   253  0009  3401               	retlw	1
   254  000A  3400               	retlw	0
   255  000B  340A               	retlw	10
   256  000C  3400               	retlw	0
   257  000D  3464               	retlw	100
   258  000E  3400               	retlw	0
   259  000F  34E8               	retlw	232
   260  0010  3403               	retlw	3
   261  0011  3410               	retlw	16
   262  0012  3427               	retlw	39
   263  0013                     __end_of_dpowers:	
   264  0013                     atan@coeff_a:	
   265  0013  3406               	retlw	6
   266  0014  343C               	retlw	60
   267  0015  3404               	retlw	4
   268  0016  3442               	retlw	66
   269  0017  347D               	retlw	125
   270  0018  349F               	retlw	159
   271  0019  346A               	retlw	106
   272  001A  3442               	retlw	66
   273  001B  345C               	retlw	92
   274  001C  3490               	retlw	144
   275  001D  3401               	retlw	1
   276  001E  3442               	retlw	66
   277  001F  3460               	retlw	96
   278  0020  344D               	retlw	77
   279  0021  34BB               	retlw	187
   280  0022  3440               	retlw	64
   281  0023  3451               	retlw	81
   282  0024  34EC               	retlw	236
   283  0025  3447               	retlw	71
   284  0026  343E               	retlw	62
   285  0027  34DE               	retlw	222
   286  0028  348D               	retlw	141
   287  0029  341F               	retlw	31
   288  002A  34BB               	retlw	187
   289  002B                     __end_ofatan@coeff_a:	
   290  002B                     atan@coeff_b:	
   291  002B  3406               	retlw	6
   292  002C  343C               	retlw	60
   293  002D  3404               	retlw	4
   294  002E  3442               	retlw	66
   295  002F  34C0               	retlw	192
   296  0030  3459               	retlw	89
   297  0031  348B               	retlw	139
   298  0032  3442               	retlw	66
   299  0033  3474               	retlw	116
   300  0034  3404               	retlw	4
   301  0035  3444               	retlw	68
   302  0036  3442               	retlw	66
   303  0037  34F9               	retlw	249
   304  0038  349B               	retlw	155
   305  0039  344F               	retlw	79
   306  003A  3441               	retlw	65
   307  003B  3400               	retlw	0
   308  003C  3400               	retlw	0
   309  003D  3480               	retlw	128
   310  003E  343F               	retlw	63
   311  003F                     __end_ofatan@coeff_b:	
   312  001E                     _ADRESH	set	30
   313  001F                     _ADCON0	set	31
   314  0043                     _RD3	set	67
   315  0042                     _RD2	set	66
   316  0047                     _RD7	set	71
   317  0046                     _RD6	set	70
   318  0045                     _RD5	set	69
   319  0044                     _RD4	set	68
   320  00FA                     _GO_nDONE	set	250
   321  00F8                     _ADON	set	248
   322  0088                     _TRISD	set	136
   323  009E                     _ADRESL	set	158
   324  009F                     _ADCON1	set	159
   325  0430                     _TRISB0	set	1072
   326  003F                     STR_1:	
   327  003F  3425               	retlw	37	;'%'
   328  0040  3464               	retlw	100	;'d'
   329  0041  342E               	retlw	46	;'.'
   330  0042  3425               	retlw	37	;'%'
   331  0043  3464               	retlw	100	;'d'
   332  0044  3400               	retlw	0
   333                           
   334                           ; #config settings
   335  0000                     
   336                           	psect	cinit
   337  07DC                     start_initialization:	
   338  07DC                     __initialization:	
   339                           
   340                           ; Initialize objects allocated to BANK2
   341  07DC  1783               	bsf	3,7	;select IRP bank2
   342  07DD  306F               	movlw	low (__pdataBANK2+12)
   343  07DE  00FD               	movwf	btemp+-1
   344  07DF  301A               	movlw	high __pidataBANK2
   345  07E0  00FE               	movwf	btemp
   346  07E1  3048               	movlw	low __pidataBANK2
   347  07E2  00FF               	movwf	btemp+1
   348  07E3  3063               	movlw	low __pdataBANK2
   349  07E4  0084               	movwf	4
   350  07E5  160A  158A  2258  120A  118A  	fcall	init_ram0
   351                           
   352                           ; Initialize objects allocated to BANK1
   353  07EA  1383               	bcf	3,7	;select IRP bank0
   354  07EB  30E9               	movlw	low (__pdataBANK1+3)
   355  07EC  00FD               	movwf	btemp+-1
   356  07ED  3008               	movlw	high __pidataBANK1
   357  07EE  00FE               	movwf	btemp
   358  07EF  3006               	movlw	low __pidataBANK1
   359  07F0  00FF               	movwf	btemp+1
   360  07F1  30E6               	movlw	low __pdataBANK1
   361  07F2  0084               	movwf	4
   362  07F3  160A  158A  2258   	fcall	init_ram0
   363                           
   364                           ; Clear objects allocated to BANK1
   365  07F6  1683               	bsf	3,5	;RP0=1, select bank1
   366  07F7  1303               	bcf	3,6	;RP1=0, select bank1
   367  07F8  01E2               	clrf	__pbssBANK1& (0+127)
   368  07F9  01E3               	clrf	(__pbssBANK1+1)& (0+127)
   369  07FA  01E4               	clrf	(__pbssBANK1+2)& (0+127)
   370  07FB  01E5               	clrf	(__pbssBANK1+3)& (0+127)
   371  07FC                     end_of_initialization:	
   372                           ;End of C runtime variable initialization code
   373                           
   374  07FC                     __end_of__initialization:	
   375  07FC  0183               	clrf	3
   376  07FD  160A  158A  2D60   	ljmp	_main	;jump to C main() function
   377                           
   378                           	psect	bssBANK1
   379  00E2                     __pbssBANK1:	
   380  00E2                     _errno:	
   381  00E2                     	ds	2
   382  00E4                     _i:	
   383  00E4                     	ds	2
   384                           
   385                           	psect	dataBANK1
   386  00E6                     __pdataBANK1:	
   387  00E6                     main@F1018:	
   388  00E6                     	ds	3
   389                           
   390                           	psect	dataBANK2
   391  0163                     __pdataBANK2:	
   392  0163                     main@F1016:	
   393  0163                     	ds	3
   394  0166                     main@F1014:	
   395  0166                     	ds	3
   396  0169                     main@F1012:	
   397  0169                     	ds	3
   398  016C                     main@F1010:	
   399  016C                     	ds	3
   400                           
   401                           	psect	inittext
   402  1A54                     init_fetch0:	
   403                           ;	Called with low address in FSR and high address in W
   404                           
   405  1A54  087E               	movf	126,w
   406  1A55  008A               	movwf	10
   407  1A56  087F               	movf	127,w
   408  1A57  0082               	movwf	2
   409  1A58                     init_ram0:	
   410                           ;Called with:
   411                           ;	high address of idata address in btemp 
   412                           ;	low address of idata address in btemp+1 
   413                           ;	low address of data in FSR
   414                           ;	high address + 1 of data in btemp-1
   415                           
   416  1A58  2254  160A  158A   	fcall	init_fetch0
   417  1A5B  0080               	movwf	0
   418  1A5C  0A84               	incf	4,f
   419  1A5D  0804               	movf	4,w
   420  1A5E  067D               	xorwf	125,w
   421  1A5F  1903               	btfsc	3,2
   422  1A60  3400               	retlw	0
   423  1A61  0AFF               	incf	127,f
   424  1A62  1903               	btfsc	3,2
   425  1A63  0AFE               	incf	126,f
   426  1A64  2A58               	goto	init_ram0
   427                           
   428                           	psect	cstackBANK3
   429  0190                     __pcstackBANK3:	
   430  0190                     Lcd_Print_Ang@str:	
   431                           
   432                           ; 80 bytes @ 0x0
   433  0190                     	ds	80
   434  01E0                     Lcd_Print_Ang@fval:	
   435                           
   436                           ; 4 bytes @ 0x50
   437  01E0                     	ds	4
   438  01E4                     Lcd_Print_Ang@ival:	
   439                           
   440                           ; 2 bytes @ 0x54
   441  01E4                     	ds	2
   442                           
   443                           	psect	cstackBANK2
   444  0110                     __pcstackBANK2:	
   445  0110                     main@a:	
   446                           
   447                           ; 3 bytes @ 0x0
   448  0110                     	ds	3
   449  0113                     main@b:	
   450                           
   451                           ; 3 bytes @ 0x3
   452  0113                     	ds	3
   453  0116                     main@c:	
   454                           
   455                           ; 3 bytes @ 0x6
   456  0116                     	ds	3
   457  0119                     main@d:	
   458                           
   459                           ; 3 bytes @ 0x9
   460  0119                     	ds	3
   461  011C                     main@e:	
   462                           
   463                           ; 3 bytes @ 0xC
   464  011C                     	ds	3
   465  011F                     _main$874:	
   466                           
   467                           ; 4 bytes @ 0xF
   468  011F                     	ds	4
   469  0123                     _main$875:	
   470                           
   471                           ; 4 bytes @ 0x13
   472  0123                     	ds	4
   473  0127                     _main$876:	
   474                           
   475                           ; 4 bytes @ 0x17
   476  0127                     	ds	4
   477  012B                     _main$877:	
   478                           
   479                           ; 4 bytes @ 0x1B
   480  012B                     	ds	4
   481  012F                     main@A:	
   482                           
   483                           ; 4 bytes @ 0x1F
   484  012F                     	ds	4
   485  0133                     main@B:	
   486                           
   487                           ; 4 bytes @ 0x23
   488  0133                     	ds	4
   489  0137                     main@C:	
   490                           
   491                           ; 4 bytes @ 0x27
   492  0137                     	ds	4
   493  013B                     main@D:	
   494                           
   495                           ; 4 bytes @ 0x2B
   496  013B                     	ds	4
   497  013F                     main@E:	
   498                           
   499                           ; 4 bytes @ 0x2F
   500  013F                     	ds	4
   501  0143                     main@x:	
   502                           
   503                           ; 4 bytes @ 0x33
   504  0143                     	ds	4
   505  0147                     main@y:	
   506                           
   507                           ; 4 bytes @ 0x37
   508  0147                     	ds	4
   509  014B                     main@z:	
   510                           
   511                           ; 4 bytes @ 0x3B
   512  014B                     	ds	4
   513  014F                     main@negx:	
   514                           
   515                           ; 4 bytes @ 0x3F
   516  014F                     	ds	4
   517  0153                     main@negy:	
   518                           
   519                           ; 4 bytes @ 0x43
   520  0153                     	ds	4
   521  0157                     main@r:	
   522                           
   523                           ; 4 bytes @ 0x47
   524  0157                     	ds	4
   525  015B                     _main$878:	
   526                           
   527                           ; 4 bytes @ 0x4B
   528  015B                     	ds	4
   529  015F                     _main$879:	
   530                           
   531                           ; 4 bytes @ 0x4F
   532  015F                     	ds	4
   533                           
   534                           	psect	cstackBANK1
   535  00A0                     __pcstackBANK1:	
   536  00A0                     ??_sprintf:	
   537  00A0                     ??_eval_poly:	
   538                           ; 1 bytes @ 0x0
   539                           
   540  00A0                     ?_sqrt:	
   541                           ; 1 bytes @ 0x0
   542                           
   543  00A0                     sqrt@a:	
   544                           ; 4 bytes @ 0x0
   545                           
   546                           
   547                           ; 4 bytes @ 0x0
   548  00A0                     	ds	3
   549  00A3                     sprintf@ap:	
   550                           
   551                           ; 1 bytes @ 0x3
   552  00A3                     	ds	1
   553  00A4                     ??_sqrt:	
   554  00A4                     sprintf@flag:	
   555                           ; 1 bytes @ 0x4
   556                           
   557                           
   558                           ; 1 bytes @ 0x4
   559  00A4                     	ds	1
   560  00A5                     sprintf@prec:	
   561  00A5                     eval_poly@res:	
   562                           ; 1 bytes @ 0x5
   563                           
   564                           
   565                           ; 4 bytes @ 0x5
   566  00A5                     	ds	1
   567  00A6                     sprintf@val:	
   568                           
   569                           ; 2 bytes @ 0x6
   570  00A6                     	ds	2
   571  00A8                     sprintf@sp:	
   572  00A8                     sqrt@sign:	
   573                           ; 1 bytes @ 0x8
   574                           
   575                           
   576                           ; 1 bytes @ 0x8
   577  00A8                     	ds	1
   578  00A9                     ?_atan:	
   579  00A9                     sprintf@c:	
   580                           ; 4 bytes @ 0x9
   581                           
   582  00A9                     sqrt@i:	
   583                           ; 1 bytes @ 0x9
   584                           
   585  00A9                     atan@f:	
   586                           ; 1 bytes @ 0x9
   587                           
   588                           
   589                           ; 4 bytes @ 0x9
   590  00A9                     	ds	1
   591  00AA                     ?_Lcd_Print_Ang:	
   592  00AA                     Lcd_Print_Ang@f:	
   593                           ; 1 bytes @ 0xA
   594                           
   595  00AA                     sqrt@tfrac:	
   596                           ; 4 bytes @ 0xA
   597                           
   598                           
   599                           ; 4 bytes @ 0xA
   600  00AA                     	ds	3
   601  00AD                     atan@y:	
   602                           
   603                           ; 4 bytes @ 0xD
   604  00AD                     	ds	1
   605  00AE                     ??_Lcd_Print_Ang:	
   606  00AE                     sqrt@p:	
   607                           ; 1 bytes @ 0xE
   608                           
   609                           
   610                           ; 1 bytes @ 0xE
   611  00AE                     	ds	1
   612  00AF                     sqrt@grs:	
   613                           
   614                           ; 4 bytes @ 0xF
   615  00AF                     	ds	2
   616  00B1                     atan@x:	
   617                           
   618                           ; 4 bytes @ 0x11
   619  00B1                     	ds	2
   620  00B3                     sqrt@exp:	
   621                           
   622                           ; 2 bytes @ 0x13
   623  00B3                     	ds	2
   624  00B5                     atan@recip:	
   625  00B5                     sqrt@root:	
   626                           ; 1 bytes @ 0x15
   627                           
   628                           
   629                           ; 4 bytes @ 0x15
   630  00B5                     	ds	1
   631  00B6                     atan@val_squared:	
   632                           
   633                           ; 4 bytes @ 0x16
   634  00B6                     	ds	3
   635  00B9                     sqrt@frac:	
   636                           
   637                           ; 4 bytes @ 0x19
   638  00B9                     	ds	1
   639  00BA                     atan@val:	
   640                           
   641                           ; 4 bytes @ 0x1A
   642  00BA                     	ds	4
   643  00BE                     ?_asin:	
   644  00BE                     asin@x:	
   645                           ; 4 bytes @ 0x1E
   646                           
   647                           
   648                           ; 4 bytes @ 0x1E
   649  00BE                     	ds	8
   650  00C6                     _asin$881:	
   651                           
   652                           ; 4 bytes @ 0x26
   653  00C6                     	ds	4
   654  00CA                     _asin$883:	
   655                           
   656                           ; 4 bytes @ 0x2A
   657  00CA                     	ds	4
   658  00CE                     asin@y:	
   659                           
   660                           ; 4 bytes @ 0x2E
   661  00CE                     	ds	4
   662  00D2                     _asin$882:	
   663                           
   664                           ; 4 bytes @ 0x32
   665  00D2                     	ds	4
   666  00D6                     ?_acos:	
   667  00D6                     acos@x:	
   668                           ; 4 bytes @ 0x36
   669                           
   670                           
   671                           ; 4 bytes @ 0x36
   672  00D6                     	ds	4
   673  00DA                     _acos$880:	
   674                           
   675                           ; 4 bytes @ 0x3A
   676  00DA                     	ds	4
   677  00DE                     ??_main:	
   678                           
   679                           ; 1 bytes @ 0x3E
   680  00DE                     	ds	4
   681                           
   682                           	psect	cstackCOMMON
   683  0070                     __pcstackCOMMON:	
   684  0070                     ?___flge:	
   685  0070                     ?_ADC_Initialize:	
   686                           ; 1 bit 
   687                           
   688  0070                     ??_ADC_Initialize:	
   689                           ; 1 bytes @ 0x0
   690                           
   691  0070                     ?_Lcd_SetBit:	
   692                           ; 1 bytes @ 0x0
   693                           
   694  0070                     ??_Lcd_SetBit:	
   695                           ; 1 bytes @ 0x0
   696                           
   697  0070                     ?_Lcd_Cmd:	
   698                           ; 1 bytes @ 0x0
   699                           
   700  0070                     ?_Lcd_Clear:	
   701                           ; 1 bytes @ 0x0
   702                           
   703  0070                     ?_Lcd_Start:	
   704                           ; 1 bytes @ 0x0
   705                           
   706  0070                     ?_Lcd_Print_Char:	
   707                           ; 1 bytes @ 0x0
   708                           
   709  0070                     ?_Lcd_Print_String:	
   710                           ; 1 bytes @ 0x0
   711                           
   712  0070                     ?_main:	
   713                           ; 1 bytes @ 0x0
   714                           
   715  0070                     ?__Umul8_16:	
   716                           ; 1 bytes @ 0x0
   717                           
   718  0070                     ?_ADC_Read:	
   719                           ; 2 bytes @ 0x0
   720                           
   721  0070                     ?___lwdiv:	
   722                           ; 2 bytes @ 0x0
   723                           
   724  0070                     ?___fltol:	
   725                           ; 2 bytes @ 0x0
   726                           
   727  0070                     Lcd_SetBit@data_bit:	
   728                           ; 4 bytes @ 0x0
   729                           
   730  0070                     __Umul8_16@multiplicand:	
   731                           ; 1 bytes @ 0x0
   732                           
   733  0070                     ___lwdiv@divisor:	
   734                           ; 1 bytes @ 0x0
   735                           
   736  0070                     ___flge@ff1:	
   737                           ; 2 bytes @ 0x0
   738                           
   739  0070                     ___fltol@f1:	
   740                           ; 4 bytes @ 0x0
   741                           
   742                           
   743                           ; 4 bytes @ 0x0
   744  0070                     	ds	1
   745  0071                     ??_Lcd_Cmd:	
   746  0071                     ??_Lcd_Print_Char:	
   747                           ; 1 bytes @ 0x1
   748                           
   749                           
   750                           ; 1 bytes @ 0x1
   751  0071                     	ds	1
   752  0072                     ??__Umul8_16:	
   753  0072                     ??_ADC_Read:	
   754                           ; 1 bytes @ 0x2
   755                           
   756  0072                     Lcd_Print_Char@Lower_Nibble:	
   757                           ; 1 bytes @ 0x2
   758                           
   759  0072                     ___lwdiv@dividend:	
   760                           ; 1 bytes @ 0x2
   761                           
   762                           
   763                           ; 2 bytes @ 0x2
   764  0072                     	ds	1
   765  0073                     Lcd_Cmd@a:	
   766  0073                     Lcd_Print_Char@Upper_Nibble:	
   767                           ; 1 bytes @ 0x3
   768                           
   769                           
   770                           ; 1 bytes @ 0x3
   771  0073                     	ds	1
   772  0074                     ??_Lcd_Clear:	
   773  0074                     ?_Lcd_Set_Cursor:	
   774                           ; 1 bytes @ 0x4
   775                           
   776  0074                     ??_Lcd_Start:	
   777                           ; 1 bytes @ 0x4
   778                           
   779  0074                     ??___fltol:	
   780                           ; 1 bytes @ 0x4
   781                           
   782  0074                     ??___lwdiv:	
   783                           ; 1 bytes @ 0x4
   784                           
   785  0074                     ADC_Read@channel:	
   786                           ; 1 bytes @ 0x4
   787                           
   788  0074                     Lcd_Set_Cursor@b:	
   789                           ; 1 bytes @ 0x4
   790                           
   791  0074                     Lcd_Print_Char@data:	
   792                           ; 1 bytes @ 0x4
   793                           
   794  0074                     __Umul8_16@product:	
   795                           ; 1 bytes @ 0x4
   796                           
   797  0074                     ___flge@ff2:	
   798                           ; 2 bytes @ 0x4
   799                           
   800                           
   801                           ; 4 bytes @ 0x4
   802  0074                     	ds	1
   803  0075                     ??_Lcd_Set_Cursor:	
   804  0075                     ?___xxtofl:	
   805                           ; 1 bytes @ 0x5
   806                           
   807  0075                     ___lwdiv@quotient:	
   808                           ; 4 bytes @ 0x5
   809                           
   810  0075                     ___xxtofl@val:	
   811                           ; 2 bytes @ 0x5
   812                           
   813                           
   814                           ; 4 bytes @ 0x5
   815  0075                     	ds	1
   816  0076                     __Umul8_16@word_mpld:	
   817                           
   818                           ; 2 bytes @ 0x6
   819  0076                     	ds	1
   820  0077                     Lcd_Set_Cursor@a:	
   821  0077                     ___lwdiv@counter:	
   822                           ; 1 bytes @ 0x7
   823                           
   824                           
   825                           ; 1 bytes @ 0x7
   826  0077                     	ds	1
   827  0078                     ??___flge:	
   828  0078                     ?___lwmod:	
   829                           ; 1 bytes @ 0x8
   830                           
   831  0078                     Lcd_Set_Cursor@z:	
   832                           ; 2 bytes @ 0x8
   833                           
   834  0078                     __Umul8_16@multiplier:	
   835                           ; 1 bytes @ 0x8
   836                           
   837  0078                     ___lwmod@divisor:	
   838                           ; 1 bytes @ 0x8
   839                           
   840                           
   841                           ; 2 bytes @ 0x8
   842  0078                     	ds	1
   843  0079                     ??___xxtofl:	
   844  0079                     Lcd_Set_Cursor@y:	
   845                           ; 1 bytes @ 0x9
   846                           
   847  0079                     ___fltol@sign1:	
   848                           ; 1 bytes @ 0x9
   849                           
   850  0079                     ___fladd@signs:	
   851                           ; 1 bytes @ 0x9
   852                           
   853                           
   854                           ; 1 bytes @ 0x9
   855  0079                     	ds	1
   856  007A                     Lcd_Set_Cursor@temp:	
   857  007A                     ___fltol@exp1:	
   858                           ; 1 bytes @ 0xA
   859                           
   860  007A                     ___fladd@aexp:	
   861                           ; 1 bytes @ 0xA
   862                           
   863  007A                     ___lwmod@dividend:	
   864                           ; 1 bytes @ 0xA
   865                           
   866                           
   867                           ; 2 bytes @ 0xA
   868  007A                     	ds	1
   869  007B                     ___fladd@bexp:	
   870                           
   871                           ; 1 bytes @ 0xB
   872  007B                     	ds	1
   873  007C                     ??___lwmod:	
   874  007C                     ___fladd@grs:	
   875                           ; 1 bytes @ 0xC
   876                           
   877                           
   878                           ; 1 bytes @ 0xC
   879  007C                     	ds	1
   880  007D                     ??_fabs:	
   881  007D                     ??_atan:	
   882                           ; 1 bytes @ 0xD
   883                           
   884  007D                     ??_Lcd_Print_String:	
   885                           ; 1 bytes @ 0xD
   886                           
   887  007D                     ??___flneg:	
   888                           ; 1 bytes @ 0xD
   889                           
   890  007D                     ??___flsub:	
   891                           ; 1 bytes @ 0xD
   892                           
   893  007D                     ___lwmod@counter:	
   894                           ; 1 bytes @ 0xD
   895                           
   896                           
   897                           ; 1 bytes @ 0xD
   898  007D                     	ds	1
   899  007E                     ??_acos:	
   900  007E                     ??_asin:	
   901                           ; 1 bytes @ 0xE
   902                           
   903                           
   904                           	psect	cstackBANK0
   905  0020                     __pcstackBANK0:	
   906                           ; 1 bytes @ 0xE
   907                           
   908  0020                     ?___fladd:	
   909  0020                     ___xxtofl@sign:	
   910                           ; 4 bytes @ 0x0
   911                           
   912  0020                     Lcd_Print_String@i:	
   913                           ; 1 bytes @ 0x0
   914                           
   915  0020                     ___fladd@b:	
   916                           ; 2 bytes @ 0x0
   917                           
   918                           
   919                           ; 4 bytes @ 0x0
   920  0020                     	ds	1
   921  0021                     ___xxtofl@exp:	
   922                           
   923                           ; 1 bytes @ 0x1
   924  0021                     	ds	1
   925  0022                     Lcd_Print_String@a:	
   926  0022                     ___xxtofl@arg:	
   927                           ; 1 bytes @ 0x2
   928                           
   929                           
   930                           ; 4 bytes @ 0x2
   931  0022                     	ds	2
   932  0024                     ___fladd@a:	
   933                           
   934                           ; 4 bytes @ 0x4
   935  0024                     	ds	4
   936  0028                     ??___fladd:	
   937                           
   938                           ; 1 bytes @ 0x8
   939  0028                     	ds	8
   940  0030                     ?___flneg:	
   941  0030                     ___flneg@f1:	
   942                           ; 4 bytes @ 0x10
   943                           
   944                           
   945                           ; 4 bytes @ 0x10
   946  0030                     	ds	4
   947  0034                     ?_fabs:	
   948  0034                     ?___fldiv:	
   949                           ; 4 bytes @ 0x14
   950                           
   951  0034                     ___fldiv@a:	
   952                           ; 4 bytes @ 0x14
   953                           
   954  0034                     fabs@d:	
   955                           ; 4 bytes @ 0x14
   956                           
   957                           
   958                           ; 4 bytes @ 0x14
   959  0034                     	ds	4
   960  0038                     ?___fleq:	
   961  0038                     ___fleq@ff1:	
   962                           ; 1 bit 
   963                           
   964  0038                     ___fldiv@b:	
   965                           ; 4 bytes @ 0x18
   966                           
   967                           
   968                           ; 4 bytes @ 0x18
   969  0038                     	ds	4
   970  003C                     ??___fldiv:	
   971  003C                     ___fleq@ff2:	
   972                           ; 1 bytes @ 0x1C
   973                           
   974                           
   975                           ; 4 bytes @ 0x1C
   976  003C                     	ds	4
   977  0040                     ??___fleq:	
   978                           
   979                           ; 1 bytes @ 0x20
   980  0040                     	ds	1
   981  0041                     ___fldiv@rem:	
   982                           
   983                           ; 4 bytes @ 0x21
   984  0041                     	ds	4
   985  0045                     ___fldiv@sign:	
   986                           
   987                           ; 1 bytes @ 0x25
   988  0045                     	ds	1
   989  0046                     ___fldiv@new_exp:	
   990                           
   991                           ; 2 bytes @ 0x26
   992  0046                     	ds	2
   993  0048                     ___fldiv@grs:	
   994                           
   995                           ; 4 bytes @ 0x28
   996  0048                     	ds	4
   997  004C                     ___fldiv@bexp:	
   998                           
   999                           ; 1 bytes @ 0x2C
  1000  004C                     	ds	1
  1001  004D                     ___fldiv@aexp:	
  1002                           
  1003                           ; 1 bytes @ 0x2D
  1004  004D                     	ds	1
  1005  004E                     ?___flmul:	
  1006  004E                     ___flmul@b:	
  1007                           ; 4 bytes @ 0x2E
  1008                           
  1009                           
  1010                           ; 4 bytes @ 0x2E
  1011  004E                     	ds	4
  1012  0052                     ___flmul@a:	
  1013                           
  1014                           ; 4 bytes @ 0x32
  1015  0052                     	ds	4
  1016  0056                     ??___flmul:	
  1017                           
  1018                           ; 1 bytes @ 0x36
  1019  0056                     	ds	5
  1020  005B                     ___flmul@sign:	
  1021                           
  1022                           ; 1 bytes @ 0x3B
  1023  005B                     	ds	1
  1024  005C                     ___flmul@grs:	
  1025                           
  1026                           ; 4 bytes @ 0x3C
  1027  005C                     	ds	4
  1028  0060                     ___flmul@aexp:	
  1029                           
  1030                           ; 1 bytes @ 0x40
  1031  0060                     	ds	1
  1032  0061                     ___flmul@bexp:	
  1033                           
  1034                           ; 1 bytes @ 0x41
  1035  0061                     	ds	1
  1036  0062                     ___flmul@prod:	
  1037                           
  1038                           ; 4 bytes @ 0x42
  1039  0062                     	ds	4
  1040  0066                     ___flmul@temp:	
  1041                           
  1042                           ; 2 bytes @ 0x46
  1043  0066                     	ds	2
  1044  0068                     ?_sprintf:	
  1045  0068                     ?_eval_poly:	
  1046                           ; 2 bytes @ 0x48
  1047                           
  1048  0068                     ?___flsub:	
  1049                           ; 4 bytes @ 0x48
  1050                           
  1051  0068                     sprintf@f:	
  1052                           ; 4 bytes @ 0x48
  1053                           
  1054  0068                     ___flsub@a:	
  1055                           ; 1 bytes @ 0x48
  1056                           
  1057  0068                     eval_poly@x:	
  1058                           ; 4 bytes @ 0x48
  1059                           
  1060                           
  1061                           ; 4 bytes @ 0x48
  1062  0068                     	ds	4
  1063  006C                     eval_poly@d:	
  1064  006C                     ___flsub@b:	
  1065                           ; 1 bytes @ 0x4C
  1066                           
  1067                           
  1068                           ; 4 bytes @ 0x4C
  1069  006C                     	ds	1
  1070  006D                     eval_poly@n:	
  1071                           
  1072                           ; 2 bytes @ 0x4D
  1073  006D                     	ds	3
  1074                           
  1075                           	psect	maintext
  1076  1D60                     __pmaintext:	
  1077 ;;
  1078 ;;Main: autosize = 0, tempsize = 4, incstack = 0, save=0
  1079 ;;
  1080 ;; *************** function _main *****************
  1081 ;; Defined at:
  1082 ;;		line 163 in file "sun_main.c"
  1083 ;; Parameters:    Size  Location     Type
  1084 ;;		None
  1085 ;; Auto vars:     Size  Location     Type
  1086 ;;  r               4   71[BANK2 ] float 
  1087 ;;  negy            4   67[BANK2 ] float 
  1088 ;;  negx            4   63[BANK2 ] float 
  1089 ;;  z               4   59[BANK2 ] float 
  1090 ;;  y               4   55[BANK2 ] float 
  1091 ;;  x               4   51[BANK2 ] float 
  1092 ;;  E               4   47[BANK2 ] float 
  1093 ;;  D               4   43[BANK2 ] float 
  1094 ;;  C               4   39[BANK2 ] float 
  1095 ;;  B               4   35[BANK2 ] float 
  1096 ;;  A               4   31[BANK2 ] float 
  1097 ;;  e               3   12[BANK2 ] unsigned char [3]
  1098 ;;  d               3    9[BANK2 ] unsigned char [3]
  1099 ;;  c               3    6[BANK2 ] unsigned char [3]
  1100 ;;  b               3    3[BANK2 ] unsigned char [3]
  1101 ;;  a               3    0[BANK2 ] unsigned char [3]
  1102 ;; Return value:  Size  Location     Type
  1103 ;;                  1    wreg      void 
  1104 ;; Registers used:
  1105 ;;		wreg, fsr0l, fsr0h, status,2, status,0, btemp+1, pclath, cstack
  1106 ;; Tracked objects:
  1107 ;;		On entry : B00/0
  1108 ;;		On exit  : 0/0
  1109 ;;		Unchanged: 0/0
  1110 ;; Data sizes:     COMMON   BANK0   BANK1   BANK3   BANK2
  1111 ;;      Params:         0       0       0       0       0
  1112 ;;      Locals:         0       0       0       0      83
  1113 ;;      Temps:          0       0       4       0       0
  1114 ;;      Totals:         0       0       4       0      83
  1115 ;;Total ram usage:       87 bytes
  1116 ;; Hardware stack levels required when called:    6
  1117 ;; This function calls:
  1118 ;;		_ADC_Initialize
  1119 ;;		_ADC_Read
  1120 ;;		_Lcd_Clear
  1121 ;;		_Lcd_Print_Ang
  1122 ;;		_Lcd_Print_String
  1123 ;;		_Lcd_Set_Cursor
  1124 ;;		_Lcd_Start
  1125 ;;		___fladd
  1126 ;;		___fldiv
  1127 ;;		___flmul
  1128 ;;		___xxtofl
  1129 ;;		_acos
  1130 ;;		_sqrt
  1131 ;; This function is called by:
  1132 ;;		Startup code after reset
  1133 ;; This function uses a non-reentrant model
  1134 ;;
  1135                           
  1136                           
  1137                           ;psect for function _main
  1138  1D60                     _main:	
  1139                           
  1140                           ;incstack = 0
  1141                           ; Regs used in _main: [wreg-fsr0h+status,2+status,0+btemp+1+pclath+cstack]
  1142  1D60  3000               	movlw	0
  1143  1D61  1283               	bcf	3,5	;RP0=0, select bank2
  1144  1D62  1703               	bsf	3,6	;RP1=1, select bank2
  1145  1D63  00B6               	movwf	(main@B+3)^(0+256)
  1146  1D64  3000               	movlw	0
  1147  1D65  00B5               	movwf	(main@B+2)^(0+256)
  1148  1D66  3000               	movlw	0
  1149  1D67  00B4               	movwf	(main@B+1)^(0+256)
  1150  1D68  3000               	movlw	0
  1151  1D69  00B3               	movwf	main@B^(0+256)
  1152  1D6A  3000               	movlw	0
  1153  1D6B  00BA               	movwf	(main@C+3)^(0+256)
  1154  1D6C  3000               	movlw	0
  1155  1D6D  00B9               	movwf	(main@C+2)^(0+256)
  1156  1D6E  3000               	movlw	0
  1157  1D6F  00B8               	movwf	(main@C+1)^(0+256)
  1158  1D70  3000               	movlw	0
  1159  1D71  00B7               	movwf	main@C^(0+256)
  1160  1D72  3000               	movlw	0
  1161  1D73  00BE               	movwf	(main@D+3)^(0+256)
  1162  1D74  3000               	movlw	0
  1163  1D75  00BD               	movwf	(main@D+2)^(0+256)
  1164  1D76  3000               	movlw	0
  1165  1D77  00BC               	movwf	(main@D+1)^(0+256)
  1166  1D78  3000               	movlw	0
  1167  1D79  00BB               	movwf	main@D^(0+256)
  1168  1D7A  3000               	movlw	0
  1169  1D7B  00C2               	movwf	(main@E+3)^(0+256)
  1170  1D7C  3000               	movlw	0
  1171  1D7D  00C1               	movwf	(main@E+2)^(0+256)
  1172  1D7E  3000               	movlw	0
  1173  1D7F  00C0               	movwf	(main@E+1)^(0+256)
  1174  1D80  3000               	movlw	0
  1175  1D81  00BF               	movwf	main@E^(0+256)
  1176                           
  1177                           ;sun_main.c: 168: char a[]="A="; char b[]="B="; char c[]="C=";
  1178  1D82  086C               	movf	main@F1010^(0+256),w
  1179  1D83  0090               	movwf	main@a^(0+256)
  1180  1D84  086D               	movf	(main@F1010+1)^(0+256),w
  1181  1D85  0091               	movwf	(main@a+1)^(0+256)
  1182  1D86  086E               	movf	(main@F1010+2)^(0+256),w
  1183  1D87  0092               	movwf	(main@a+2)^(0+256)
  1184  1D88  0869               	movf	main@F1012^(0+256),w
  1185  1D89  0093               	movwf	main@b^(0+256)
  1186  1D8A  086A               	movf	(main@F1012+1)^(0+256),w
  1187  1D8B  0094               	movwf	(main@b+1)^(0+256)
  1188  1D8C  086B               	movf	(main@F1012+2)^(0+256),w
  1189  1D8D  0095               	movwf	(main@b+2)^(0+256)
  1190  1D8E  0866               	movf	main@F1014^(0+256),w
  1191  1D8F  0096               	movwf	main@c^(0+256)
  1192  1D90  0867               	movf	(main@F1014+1)^(0+256),w
  1193  1D91  0097               	movwf	(main@c+1)^(0+256)
  1194  1D92  0868               	movf	(main@F1014+2)^(0+256),w
  1195  1D93  0098               	movwf	(main@c+2)^(0+256)
  1196                           
  1197                           ;sun_main.c: 169:  char d[]="D="; char e[]="E=";
  1198  1D94  0863               	movf	main@F1016^(0+256),w
  1199  1D95  0099               	movwf	main@d^(0+256)
  1200  1D96  0864               	movf	(main@F1016+1)^(0+256),w
  1201  1D97  009A               	movwf	(main@d+1)^(0+256)
  1202  1D98  0865               	movf	(main@F1016+2)^(0+256),w
  1203  1D99  009B               	movwf	(main@d+2)^(0+256)
  1204  1D9A  1683               	bsf	3,5	;RP0=1, select bank1
  1205  1D9B  1303               	bcf	3,6	;RP1=0, select bank1
  1206  1D9C  0866               	movf	main@F1018^(0+128),w
  1207  1D9D  1283               	bcf	3,5	;RP0=0, select bank2
  1208  1D9E  1703               	bsf	3,6	;RP1=1, select bank2
  1209  1D9F  009C               	movwf	main@e^(0+256)
  1210  1DA0  1683               	bsf	3,5	;RP0=1, select bank1
  1211  1DA1  1303               	bcf	3,6	;RP1=0, select bank1
  1212  1DA2  0867               	movf	(main@F1018+1)^(0+128),w
  1213  1DA3  1283               	bcf	3,5	;RP0=0, select bank2
  1214  1DA4  1703               	bsf	3,6	;RP1=1, select bank2
  1215  1DA5  009D               	movwf	(main@e+1)^(0+256)
  1216  1DA6  1683               	bsf	3,5	;RP0=1, select bank1
  1217  1DA7  1303               	bcf	3,6	;RP1=0, select bank1
  1218  1DA8  0868               	movf	(main@F1018+2)^(0+128),w
  1219  1DA9  1283               	bcf	3,5	;RP0=0, select bank2
  1220  1DAA  1703               	bsf	3,6	;RP1=1, select bank2
  1221  1DAB  009E               	movwf	(main@e+2)^(0+256)
  1222                           
  1223                           ;sun_main.c: 171: TRISD=0x00;
  1224  1DAC  1683               	bsf	3,5	;RP0=1, select bank1
  1225  1DAD  1303               	bcf	3,6	;RP1=0, select bank1
  1226  1DAE  0188               	clrf	8	;volatile
  1227                           
  1228                           ;sun_main.c: 172: TRISB0=1;
  1229  1DAF  1406               	bsf	6,0	;volatile
  1230                           
  1231                           ;sun_main.c: 175: ADC_Initialize();
  1232  1DB0  160A  158A  223C  160A  158A  	fcall	_ADC_Initialize
  1233                           
  1234                           ;sun_main.c: 176: Lcd_Start();
  1235  1DB5  160A  158A  244F  160A  158A  	fcall	_Lcd_Start
  1236  1DBA                     l3206:	
  1237                           
  1238                           ;sun_main.c: 179: {;sun_main.c: 184:      x = (ADC_Read(0));
  1239  1DBA  3000               	movlw	0
  1240  1DBB  160A  158A  2300  160A  158A  	fcall	_ADC_Read
  1241  1DC0  0870               	movf	?_ADC_Read,w
  1242  1DC1  1683               	bsf	3,5	;RP0=1, select bank1
  1243  1DC2  1303               	bcf	3,6	;RP1=0, select bank1
  1244  1DC3  00DE               	movwf	??_main^(0+128)
  1245  1DC4  0871               	movf	?_ADC_Read+1,w
  1246  1DC5  00DF               	movwf	(??_main^(0+128)+1)
  1247  1DC6  01E0               	clrf	(??_main^(0+128)+2)
  1248  1DC7  01E1               	clrf	(??_main^(0+128)+3)
  1249  1DC8  0861               	movf	(??_main+3)^(0+128),w
  1250  1DC9  00F8               	movwf	___xxtofl@val+3
  1251  1DCA  0860               	movf	(??_main+2)^(0+128),w
  1252  1DCB  00F7               	movwf	___xxtofl@val+2
  1253  1DCC  085F               	movf	(??_main+1)^(0+128),w
  1254  1DCD  00F6               	movwf	___xxtofl@val+1
  1255  1DCE  085E               	movf	??_main^(0+128),w
  1256  1DCF  00F5               	movwf	___xxtofl@val
  1257  1DD0  3000               	movlw	0
  1258  1DD1  160A  158A  267B  160A  158A  	fcall	___xxtofl
  1259  1DD6  0878               	movf	?___xxtofl+3,w
  1260  1DD7  1283               	bcf	3,5	;RP0=0, select bank2
  1261  1DD8  1703               	bsf	3,6	;RP1=1, select bank2
  1262  1DD9  00C6               	movwf	(main@x+3)^(0+256)
  1263  1DDA  0877               	movf	?___xxtofl+2,w
  1264  1DDB  00C5               	movwf	(main@x+2)^(0+256)
  1265  1DDC  0876               	movf	?___xxtofl+1,w
  1266  1DDD  00C4               	movwf	(main@x+1)^(0+256)
  1267  1DDE  0875               	movf	?___xxtofl,w
  1268  1DDF  00C3               	movwf	main@x^(0+256)
  1269                           
  1270                           ;sun_main.c: 185:  y = (ADC_Read(1));
  1271  1DE0  3001               	movlw	1
  1272  1DE1  160A  158A  2300   	fcall	_ADC_Read
  1273  1DE4  0870               	movf	?_ADC_Read,w
  1274  1DE5  120A  118A  2845   	ljmp	L5
  1275                           
  1276                           	psect	text1
  1277  1CA2                     __ptext1:	
  1278 ;; *************** function _acos *****************
  1279 ;; Defined at:
  1280 ;;		line 8 in file "C:\Program Files (x86)\Microchip\xc8\v2.05\pic\sources\c90\common\acos.c"
  1281 ;; Parameters:    Size  Location     Type
  1282 ;;  x               4   54[BANK1 ] void 
  1283 ;; Auto vars:     Size  Location     Type
  1284 ;;		None
  1285 ;; Return value:  Size  Location     Type
  1286 ;;                  4   54[BANK1 ] void 
  1287 ;; Registers used:
  1288 ;;		wreg, fsr0l, fsr0h, status,2, status,0, btemp+1, pclath, cstack
  1289 ;; Tracked objects:
  1290 ;;		On entry : 0/0
  1291 ;;		On exit  : 0/0
  1292 ;;		Unchanged: 0/0
  1293 ;; Data sizes:     COMMON   BANK0   BANK1   BANK3   BANK2
  1294 ;;      Params:         0       0       4       0       0
  1295 ;;      Locals:         0       0       4       0       0
  1296 ;;      Temps:          0       0       0       0       0
  1297 ;;      Totals:         0       0       8       0       0
  1298 ;;Total ram usage:        8 bytes
  1299 ;; Hardware stack levels used:    1
  1300 ;; Hardware stack levels required when called:    5
  1301 ;; This function calls:
  1302 ;;		___flsub
  1303 ;;		_asin
  1304 ;; This function is called by:
  1305 ;;		_main
  1306 ;; This function uses a non-reentrant model
  1307 ;;
  1308                           
  1309                           
  1310                           ;psect for function _acos
  1311  1CA2                     _acos:	
  1312                           
  1313                           ;incstack = 0
  1314                           ; Regs used in _acos: [wreg-fsr0h+status,2+status,0+btemp+1+pclath+cstack]
  1315  1CA2  1683               	bsf	3,5	;RP0=1, select bank1
  1316  1CA3  1303               	bcf	3,6	;RP1=0, select bank1
  1317  1CA4  0859               	movf	(acos@x+3)^(0+128),w
  1318  1CA5  00C1               	movwf	(asin@x+3)^(0+128)
  1319  1CA6  0858               	movf	(acos@x+2)^(0+128),w
  1320  1CA7  00C0               	movwf	(asin@x+2)^(0+128)
  1321  1CA8  0857               	movf	(acos@x+1)^(0+128),w
  1322  1CA9  00BF               	movwf	(asin@x+1)^(0+128)
  1323  1CAA  0856               	movf	acos@x^(0+128),w
  1324  1CAB  00BE               	movwf	asin@x^(0+128)
  1325  1CAC  120A  158A  21F9  160A  158A  	fcall	_asin
  1326  1CB1  1683               	bsf	3,5	;RP0=1, select bank1
  1327  1CB2  1303               	bcf	3,6	;RP1=0, select bank1
  1328  1CB3  0841               	movf	(?_asin+3)^(0+128),w
  1329  1CB4  00DD               	movwf	(_acos$880+3)^(0+128)
  1330  1CB5  0840               	movf	(?_asin+2)^(0+128),w
  1331  1CB6  00DC               	movwf	(_acos$880+2)^(0+128)
  1332  1CB7  083F               	movf	(?_asin+1)^(0+128),w
  1333  1CB8  00DB               	movwf	(_acos$880+1)^(0+128)
  1334  1CB9  083E               	movf	?_asin^(0+128),w
  1335  1CBA  00DA               	movwf	_acos$880^(0+128)
  1336  1CBB  085D               	movf	(_acos$880+3)^(0+128),w
  1337  1CBC  1283               	bcf	3,5	;RP0=0, select bank0
  1338  1CBD  1303               	bcf	3,6	;RP1=0, select bank0
  1339  1CBE  00EB               	movwf	___flsub@a+3
  1340  1CBF  1683               	bsf	3,5	;RP0=1, select bank1
  1341  1CC0  1303               	bcf	3,6	;RP1=0, select bank1
  1342  1CC1  085C               	movf	(_acos$880+2)^(0+128),w
  1343  1CC2  1283               	bcf	3,5	;RP0=0, select bank0
  1344  1CC3  1303               	bcf	3,6	;RP1=0, select bank0
  1345  1CC4  00EA               	movwf	___flsub@a+2
  1346  1CC5  1683               	bsf	3,5	;RP0=1, select bank1
  1347  1CC6  1303               	bcf	3,6	;RP1=0, select bank1
  1348  1CC7  085B               	movf	(_acos$880+1)^(0+128),w
  1349  1CC8  1283               	bcf	3,5	;RP0=0, select bank0
  1350  1CC9  1303               	bcf	3,6	;RP1=0, select bank0
  1351  1CCA  00E9               	movwf	___flsub@a+1
  1352  1CCB  1683               	bsf	3,5	;RP0=1, select bank1
  1353  1CCC  1303               	bcf	3,6	;RP1=0, select bank1
  1354  1CCD  085A               	movf	_acos$880^(0+128),w
  1355  1CCE  1283               	bcf	3,5	;RP0=0, select bank0
  1356  1CCF  1303               	bcf	3,6	;RP1=0, select bank0
  1357  1CD0  00E8               	movwf	___flsub@a
  1358  1CD1  303F               	movlw	63
  1359  1CD2  00EF               	movwf	___flsub@b+3
  1360  1CD3  30C9               	movlw	201
  1361  1CD4  00EE               	movwf	___flsub@b+2
  1362  1CD5  300F               	movlw	15
  1363  1CD6  00ED               	movwf	___flsub@b+1
  1364  1CD7  30DB               	movlw	219
  1365  1CD8  00EC               	movwf	___flsub@b
  1366  1CD9  160A  158A  22BB   	fcall	___flsub
  1367  1CDC  1283               	bcf	3,5	;RP0=0, select bank0
  1368  1CDD  1303               	bcf	3,6	;RP1=0, select bank0
  1369  1CDE  086B               	movf	?___flsub+3,w
  1370  1CDF  1683               	bsf	3,5	;RP0=1, select bank1
  1371  1CE0  1303               	bcf	3,6	;RP1=0, select bank1
  1372  1CE1  00D9               	movwf	(?_acos+3)^(0+128)
  1373  1CE2  1283               	bcf	3,5	;RP0=0, select bank0
  1374  1CE3  1303               	bcf	3,6	;RP1=0, select bank0
  1375  1CE4  086A               	movf	?___flsub+2,w
  1376  1CE5  1683               	bsf	3,5	;RP0=1, select bank1
  1377  1CE6  1303               	bcf	3,6	;RP1=0, select bank1
  1378  1CE7  00D8               	movwf	(?_acos+2)^(0+128)
  1379  1CE8  1283               	bcf	3,5	;RP0=0, select bank0
  1380  1CE9  1303               	bcf	3,6	;RP1=0, select bank0
  1381  1CEA  0869               	movf	?___flsub+1,w
  1382  1CEB  1683               	bsf	3,5	;RP0=1, select bank1
  1383  1CEC  1303               	bcf	3,6	;RP1=0, select bank1
  1384  1CED  00D7               	movwf	(?_acos+1)^(0+128)
  1385  1CEE  1283               	bcf	3,5	;RP0=0, select bank0
  1386  1CEF  1303               	bcf	3,6	;RP1=0, select bank0
  1387  1CF0  0868               	movf	?___flsub,w
  1388  1CF1  1683               	bsf	3,5	;RP0=1, select bank1
  1389  1CF2  1303               	bcf	3,6	;RP1=0, select bank1
  1390  1CF3  00D6               	movwf	?_acos^(0+128)
  1391  1CF4  0008               	return
  1392  1CF5                     __end_of_acos:	
  1393                           
  1394                           	psect	text2
  1395  09F9                     __ptext2:	
  1396 ;; *************** function _asin *****************
  1397 ;; Defined at:
  1398 ;;		line 9 in file "C:\Program Files (x86)\Microchip\xc8\v2.05\pic\sources\c90\common\asin.c"
  1399 ;; Parameters:    Size  Location     Type
  1400 ;;  x               4   30[BANK1 ] void 
  1401 ;; Auto vars:     Size  Location     Type
  1402 ;;  y               4   46[BANK1 ] void 
  1403 ;;  sgn             4    0        void 
  1404 ;; Return value:  Size  Location     Type
  1405 ;;                  4   30[BANK1 ] void 
  1406 ;; Registers used:
  1407 ;;		wreg, fsr0l, fsr0h, status,2, status,0, btemp+1, pclath, cstack
  1408 ;; Tracked objects:
  1409 ;;		On entry : 0/0
  1410 ;;		On exit  : 0/0
  1411 ;;		Unchanged: 0/0
  1412 ;; Data sizes:     COMMON   BANK0   BANK1   BANK3   BANK2
  1413 ;;      Params:         0       0       4       0       0
  1414 ;;      Locals:         0       0      20       0       0
  1415 ;;      Temps:          0       0       0       0       0
  1416 ;;      Totals:         0       0      24       0       0
  1417 ;;Total ram usage:       24 bytes
  1418 ;; Hardware stack levels used:    1
  1419 ;; Hardware stack levels required when called:    4
  1420 ;; This function calls:
  1421 ;;		___fldiv
  1422 ;;		___flge
  1423 ;;		___flmul
  1424 ;;		___flneg
  1425 ;;		___flsub
  1426 ;;		_atan
  1427 ;;		_fabs
  1428 ;;		_sqrt
  1429 ;; This function is called by:
  1430 ;;		_acos
  1431 ;; This function uses a non-reentrant model
  1432 ;;
  1433                           
  1434                           
  1435                           ;psect for function _asin
  1436  09F9                     _asin:	
  1437                           
  1438                           ;incstack = 0
  1439                           ; Regs used in _asin: [wreg-fsr0h+status,2+status,0+btemp+1+pclath+cstack]
  1440  09F9  1683               	bsf	3,5	;RP0=1, select bank1
  1441  09FA  1303               	bcf	3,6	;RP1=0, select bank1
  1442  09FB  0841               	movf	(asin@x+3)^(0+128),w
  1443  09FC  1283               	bcf	3,5	;RP0=0, select bank0
  1444  09FD  1303               	bcf	3,6	;RP1=0, select bank0
  1445  09FE  00B7               	movwf	fabs@d+3
  1446  09FF  1683               	bsf	3,5	;RP0=1, select bank1
  1447  0A00  1303               	bcf	3,6	;RP1=0, select bank1
  1448  0A01  0840               	movf	(asin@x+2)^(0+128),w
  1449  0A02  1283               	bcf	3,5	;RP0=0, select bank0
  1450  0A03  1303               	bcf	3,6	;RP1=0, select bank0
  1451  0A04  00B6               	movwf	fabs@d+2
  1452  0A05  1683               	bsf	3,5	;RP0=1, select bank1
  1453  0A06  1303               	bcf	3,6	;RP1=0, select bank1
  1454  0A07  083F               	movf	(asin@x+1)^(0+128),w
  1455  0A08  1283               	bcf	3,5	;RP0=0, select bank0
  1456  0A09  1303               	bcf	3,6	;RP1=0, select bank0
  1457  0A0A  00B5               	movwf	fabs@d+1
  1458  0A0B  1683               	bsf	3,5	;RP0=1, select bank1
  1459  0A0C  1303               	bcf	3,6	;RP1=0, select bank1
  1460  0A0D  083E               	movf	asin@x^(0+128),w
  1461  0A0E  1283               	bcf	3,5	;RP0=0, select bank0
  1462  0A0F  1303               	bcf	3,6	;RP1=0, select bank0
  1463  0A10  00B4               	movwf	fabs@d
  1464  0A11  160A  158A  234E  120A  158A  	fcall	_fabs
  1465  0A16  1283               	bcf	3,5	;RP0=0, select bank0
  1466  0A17  1303               	bcf	3,6	;RP1=0, select bank0
  1467  0A18  0837               	movf	?_fabs+3,w
  1468  0A19  1683               	bsf	3,5	;RP0=1, select bank1
  1469  0A1A  1303               	bcf	3,6	;RP1=0, select bank1
  1470  0A1B  00C9               	movwf	(_asin$881+3)^(0+128)
  1471  0A1C  1283               	bcf	3,5	;RP0=0, select bank0
  1472  0A1D  1303               	bcf	3,6	;RP1=0, select bank0
  1473  0A1E  0836               	movf	?_fabs+2,w
  1474  0A1F  1683               	bsf	3,5	;RP0=1, select bank1
  1475  0A20  1303               	bcf	3,6	;RP1=0, select bank1
  1476  0A21  00C8               	movwf	(_asin$881+2)^(0+128)
  1477  0A22  1283               	bcf	3,5	;RP0=0, select bank0
  1478  0A23  1303               	bcf	3,6	;RP1=0, select bank0
  1479  0A24  0835               	movf	?_fabs+1,w
  1480  0A25  1683               	bsf	3,5	;RP0=1, select bank1
  1481  0A26  1303               	bcf	3,6	;RP1=0, select bank1
  1482  0A27  00C7               	movwf	(_asin$881+1)^(0+128)
  1483  0A28  1283               	bcf	3,5	;RP0=0, select bank0
  1484  0A29  1303               	bcf	3,6	;RP1=0, select bank0
  1485  0A2A  0834               	movf	?_fabs,w
  1486  0A2B  1683               	bsf	3,5	;RP0=1, select bank1
  1487  0A2C  1303               	bcf	3,6	;RP1=0, select bank1
  1488  0A2D  00C6               	movwf	_asin$881^(0+128)
  1489  0A2E  303F               	movlw	63
  1490  0A2F  00F3               	movwf	___flge@ff1+3
  1491  0A30  3080               	movlw	128
  1492  0A31  00F2               	movwf	___flge@ff1+2
  1493  0A32  3000               	movlw	0
  1494  0A33  00F1               	movwf	___flge@ff1+1
  1495  0A34  3000               	movlw	0
  1496  0A35  00F0               	movwf	___flge@ff1
  1497  0A36  0849               	movf	(_asin$881+3)^(0+128),w
  1498  0A37  00F7               	movwf	___flge@ff2+3
  1499  0A38  0848               	movf	(_asin$881+2)^(0+128),w
  1500  0A39  00F6               	movwf	___flge@ff2+2
  1501  0A3A  0847               	movf	(_asin$881+1)^(0+128),w
  1502  0A3B  00F5               	movwf	___flge@ff2+1
  1503  0A3C  0846               	movf	_asin$881^(0+128),w
  1504  0A3D  00F4               	movwf	___flge@ff2
  1505  0A3E  160A  158A  25E8  120A  158A  	fcall	___flge
  1506  0A43  1803               	btfsc	3,0
  1507  0A44  2A54               	goto	l3160
  1508  0A45  3021               	movlw	33
  1509  0A46  1683               	bsf	3,5	;RP0=1, select bank1
  1510  0A47  1303               	bcf	3,6	;RP1=0, select bank1
  1511  0A48  00E2               	movwf	_errno^(0+128)
  1512  0A49  3000               	movlw	0
  1513  0A4A  00E3               	movwf	(_errno^(0+128)+1)
  1514  0A4B  3000               	movlw	0
  1515  0A4C  00C1               	movwf	(?_asin+3)^(0+128)
  1516  0A4D  3000               	movlw	0
  1517  0A4E  00C0               	movwf	(?_asin+2)^(0+128)
  1518  0A4F  3000               	movlw	0
  1519  0A50  00BF               	movwf	(?_asin+1)^(0+128)
  1520  0A51  3000               	movlw	0
  1521  0A52  00BE               	movwf	?_asin^(0+128)
  1522  0A53  0008               	return
  1523  0A54                     l3160:	
  1524  0A54  1683               	bsf	3,5	;RP0=1, select bank1
  1525  0A55  1303               	bcf	3,6	;RP1=0, select bank1
  1526  0A56  0841               	movf	(asin@x+3)^(0+128),w
  1527  0A57  1283               	bcf	3,5	;RP0=0, select bank0
  1528  0A58  1303               	bcf	3,6	;RP1=0, select bank0
  1529  0A59  00D1               	movwf	___flmul@b+3
  1530  0A5A  1683               	bsf	3,5	;RP0=1, select bank1
  1531  0A5B  1303               	bcf	3,6	;RP1=0, select bank1
  1532  0A5C  0840               	movf	(asin@x+2)^(0+128),w
  1533  0A5D  1283               	bcf	3,5	;RP0=0, select bank0
  1534  0A5E  1303               	bcf	3,6	;RP1=0, select bank0
  1535  0A5F  00D0               	movwf	___flmul@b+2
  1536  0A60  1683               	bsf	3,5	;RP0=1, select bank1
  1537  0A61  1303               	bcf	3,6	;RP1=0, select bank1
  1538  0A62  083F               	movf	(asin@x+1)^(0+128),w
  1539  0A63  1283               	bcf	3,5	;RP0=0, select bank0
  1540  0A64  1303               	bcf	3,6	;RP1=0, select bank0
  1541  0A65  00CF               	movwf	___flmul@b+1
  1542  0A66  1683               	bsf	3,5	;RP0=1, select bank1
  1543  0A67  1303               	bcf	3,6	;RP1=0, select bank1
  1544  0A68  083E               	movf	asin@x^(0+128),w
  1545  0A69  1283               	bcf	3,5	;RP0=0, select bank0
  1546  0A6A  1303               	bcf	3,6	;RP1=0, select bank0
  1547  0A6B  00CE               	movwf	___flmul@b
  1548  0A6C  1683               	bsf	3,5	;RP0=1, select bank1
  1549  0A6D  1303               	bcf	3,6	;RP1=0, select bank1
  1550  0A6E  0841               	movf	(asin@x+3)^(0+128),w
  1551  0A6F  1283               	bcf	3,5	;RP0=0, select bank0
  1552  0A70  1303               	bcf	3,6	;RP1=0, select bank0
  1553  0A71  00D5               	movwf	___flmul@a+3
  1554  0A72  1683               	bsf	3,5	;RP0=1, select bank1
  1555  0A73  1303               	bcf	3,6	;RP1=0, select bank1
  1556  0A74  0840               	movf	(asin@x+2)^(0+128),w
  1557  0A75  1283               	bcf	3,5	;RP0=0, select bank0
  1558  0A76  1303               	bcf	3,6	;RP1=0, select bank0
  1559  0A77  00D4               	movwf	___flmul@a+2
  1560  0A78  1683               	bsf	3,5	;RP0=1, select bank1
  1561  0A79  1303               	bcf	3,6	;RP1=0, select bank1
  1562  0A7A  083F               	movf	(asin@x+1)^(0+128),w
  1563  0A7B  1283               	bcf	3,5	;RP0=0, select bank0
  1564  0A7C  1303               	bcf	3,6	;RP1=0, select bank0
  1565  0A7D  00D3               	movwf	___flmul@a+1
  1566  0A7E  1683               	bsf	3,5	;RP0=1, select bank1
  1567  0A7F  1303               	bcf	3,6	;RP1=0, select bank1
  1568  0A80  083E               	movf	asin@x^(0+128),w
  1569  0A81  1283               	bcf	3,5	;RP0=0, select bank0
  1570  0A82  1303               	bcf	3,6	;RP1=0, select bank0
  1571  0A83  00D2               	movwf	___flmul@a
  1572  0A84  120A  158A  24EB  120A  158A  	fcall	___flmul
  1573  0A89  1283               	bcf	3,5	;RP0=0, select bank0
  1574  0A8A  1303               	bcf	3,6	;RP1=0, select bank0
  1575  0A8B  0851               	movf	?___flmul+3,w
  1576  0A8C  00EB               	movwf	___flsub@a+3
  1577  0A8D  0850               	movf	?___flmul+2,w
  1578  0A8E  00EA               	movwf	___flsub@a+2
  1579  0A8F  084F               	movf	?___flmul+1,w
  1580  0A90  00E9               	movwf	___flsub@a+1
  1581  0A91  084E               	movf	?___flmul,w
  1582  0A92  00E8               	movwf	___flsub@a
  1583  0A93  303F               	movlw	63
  1584  0A94  00EF               	movwf	___flsub@b+3
  1585  0A95  3080               	movlw	128
  1586  0A96  00EE               	movwf	___flsub@b+2
  1587  0A97  3000               	movlw	0
  1588  0A98  00ED               	movwf	___flsub@b+1
  1589  0A99  3000               	movlw	0
  1590  0A9A  00EC               	movwf	___flsub@b
  1591  0A9B  160A  158A  22BB  120A  158A  	fcall	___flsub
  1592  0AA0  1283               	bcf	3,5	;RP0=0, select bank0
  1593  0AA1  1303               	bcf	3,6	;RP1=0, select bank0
  1594  0AA2  086B               	movf	?___flsub+3,w
  1595  0AA3  1683               	bsf	3,5	;RP0=1, select bank1
  1596  0AA4  1303               	bcf	3,6	;RP1=0, select bank1
  1597  0AA5  00A3               	movwf	(sqrt@a+3)^(0+128)
  1598  0AA6  1283               	bcf	3,5	;RP0=0, select bank0
  1599  0AA7  1303               	bcf	3,6	;RP1=0, select bank0
  1600  0AA8  086A               	movf	?___flsub+2,w
  1601  0AA9  1683               	bsf	3,5	;RP0=1, select bank1
  1602  0AAA  1303               	bcf	3,6	;RP1=0, select bank1
  1603  0AAB  00A2               	movwf	(sqrt@a+2)^(0+128)
  1604  0AAC  1283               	bcf	3,5	;RP0=0, select bank0
  1605  0AAD  1303               	bcf	3,6	;RP1=0, select bank0
  1606  0AAE  0869               	movf	?___flsub+1,w
  1607  0AAF  1683               	bsf	3,5	;RP0=1, select bank1
  1608  0AB0  1303               	bcf	3,6	;RP1=0, select bank1
  1609  0AB1  00A1               	movwf	(sqrt@a+1)^(0+128)
  1610  0AB2  1283               	bcf	3,5	;RP0=0, select bank0
  1611  0AB3  1303               	bcf	3,6	;RP1=0, select bank0
  1612  0AB4  0868               	movf	?___flsub,w
  1613  0AB5  1683               	bsf	3,5	;RP0=1, select bank1
  1614  0AB6  1303               	bcf	3,6	;RP1=0, select bank1
  1615  0AB7  00A0               	movwf	sqrt@a^(0+128)
  1616  0AB8  120A  158A  203B  120A  158A  	fcall	_sqrt
  1617  0ABD  1683               	bsf	3,5	;RP0=1, select bank1
  1618  0ABE  1303               	bcf	3,6	;RP1=0, select bank1
  1619  0ABF  0823               	movf	(?_sqrt+3)^(0+128),w
  1620  0AC0  00D1               	movwf	(asin@y+3)^(0+128)
  1621  0AC1  0822               	movf	(?_sqrt+2)^(0+128),w
  1622  0AC2  00D0               	movwf	(asin@y+2)^(0+128)
  1623  0AC3  0821               	movf	(?_sqrt+1)^(0+128),w
  1624  0AC4  00CF               	movwf	(asin@y+1)^(0+128)
  1625  0AC5  0820               	movf	?_sqrt^(0+128),w
  1626  0AC6  00CE               	movwf	asin@y^(0+128)
  1627  0AC7  0841               	movf	(asin@x+3)^(0+128),w
  1628  0AC8  1283               	bcf	3,5	;RP0=0, select bank0
  1629  0AC9  1303               	bcf	3,6	;RP1=0, select bank0
  1630  0ACA  00B7               	movwf	fabs@d+3
  1631  0ACB  1683               	bsf	3,5	;RP0=1, select bank1
  1632  0ACC  1303               	bcf	3,6	;RP1=0, select bank1
  1633  0ACD  0840               	movf	(asin@x+2)^(0+128),w
  1634  0ACE  1283               	bcf	3,5	;RP0=0, select bank0
  1635  0ACF  1303               	bcf	3,6	;RP1=0, select bank0
  1636  0AD0  00B6               	movwf	fabs@d+2
  1637  0AD1  1683               	bsf	3,5	;RP0=1, select bank1
  1638  0AD2  1303               	bcf	3,6	;RP1=0, select bank1
  1639  0AD3  083F               	movf	(asin@x+1)^(0+128),w
  1640  0AD4  1283               	bcf	3,5	;RP0=0, select bank0
  1641  0AD5  1303               	bcf	3,6	;RP1=0, select bank0
  1642  0AD6  00B5               	movwf	fabs@d+1
  1643  0AD7  1683               	bsf	3,5	;RP0=1, select bank1
  1644  0AD8  1303               	bcf	3,6	;RP1=0, select bank1
  1645  0AD9  083E               	movf	asin@x^(0+128),w
  1646  0ADA  1283               	bcf	3,5	;RP0=0, select bank0
  1647  0ADB  1303               	bcf	3,6	;RP1=0, select bank0
  1648  0ADC  00B4               	movwf	fabs@d
  1649  0ADD  160A  158A  234E  120A  158A  	fcall	_fabs
  1650  0AE2  1283               	bcf	3,5	;RP0=0, select bank0
  1651  0AE3  1303               	bcf	3,6	;RP1=0, select bank0
  1652  0AE4  0837               	movf	?_fabs+3,w
  1653  0AE5  1683               	bsf	3,5	;RP0=1, select bank1
  1654  0AE6  1303               	bcf	3,6	;RP1=0, select bank1
  1655  0AE7  00C9               	movwf	(_asin$881+3)^(0+128)
  1656  0AE8  1283               	bcf	3,5	;RP0=0, select bank0
  1657  0AE9  1303               	bcf	3,6	;RP1=0, select bank0
  1658  0AEA  0836               	movf	?_fabs+2,w
  1659  0AEB  1683               	bsf	3,5	;RP0=1, select bank1
  1660  0AEC  1303               	bcf	3,6	;RP1=0, select bank1
  1661  0AED  00C8               	movwf	(_asin$881+2)^(0+128)
  1662  0AEE  1283               	bcf	3,5	;RP0=0, select bank0
  1663  0AEF  1303               	bcf	3,6	;RP1=0, select bank0
  1664  0AF0  0835               	movf	?_fabs+1,w
  1665  0AF1  1683               	bsf	3,5	;RP0=1, select bank1
  1666  0AF2  1303               	bcf	3,6	;RP1=0, select bank1
  1667  0AF3  00C7               	movwf	(_asin$881+1)^(0+128)
  1668  0AF4  1283               	bcf	3,5	;RP0=0, select bank0
  1669  0AF5  1303               	bcf	3,6	;RP1=0, select bank0
  1670  0AF6  0834               	movf	?_fabs,w
  1671  0AF7  1683               	bsf	3,5	;RP0=1, select bank1
  1672  0AF8  1303               	bcf	3,6	;RP1=0, select bank1
  1673  0AF9  00C6               	movwf	_asin$881^(0+128)
  1674  0AFA  0849               	movf	(_asin$881+3)^(0+128),w
  1675  0AFB  00F3               	movwf	___flge@ff1+3
  1676  0AFC  0848               	movf	(_asin$881+2)^(0+128),w
  1677  0AFD  00F2               	movwf	___flge@ff1+2
  1678  0AFE  0847               	movf	(_asin$881+1)^(0+128),w
  1679  0AFF  00F1               	movwf	___flge@ff1+1
  1680  0B00  0846               	movf	_asin$881^(0+128),w
  1681  0B01  00F0               	movwf	___flge@ff1
  1682  0B02  303F               	movlw	63
  1683  0B03  00F7               	movwf	___flge@ff2+3
  1684  0B04  3035               	movlw	53
  1685  0B05  00F6               	movwf	___flge@ff2+2
  1686  0B06  30C2               	movlw	194
  1687  0B07  00F5               	movwf	___flge@ff2+1
  1688  0B08  308F               	movlw	143
  1689  0B09  00F4               	movwf	___flge@ff2
  1690  0B0A  160A  158A  25E8  120A  158A  	fcall	___flge
  1691  0B0F  1803               	btfsc	3,0
  1692  0B10  2B74               	goto	l3172
  1693  0B11  1683               	bsf	3,5	;RP0=1, select bank1
  1694  0B12  1303               	bcf	3,6	;RP1=0, select bank1
  1695  0B13  0851               	movf	(asin@y+3)^(0+128),w
  1696  0B14  1283               	bcf	3,5	;RP0=0, select bank0
  1697  0B15  1303               	bcf	3,6	;RP1=0, select bank0
  1698  0B16  00B7               	movwf	___fldiv@a+3
  1699  0B17  1683               	bsf	3,5	;RP0=1, select bank1
  1700  0B18  1303               	bcf	3,6	;RP1=0, select bank1
  1701  0B19  0850               	movf	(asin@y+2)^(0+128),w
  1702  0B1A  1283               	bcf	3,5	;RP0=0, select bank0
  1703  0B1B  1303               	bcf	3,6	;RP1=0, select bank0
  1704  0B1C  00B6               	movwf	___fldiv@a+2
  1705  0B1D  1683               	bsf	3,5	;RP0=1, select bank1
  1706  0B1E  1303               	bcf	3,6	;RP1=0, select bank1
  1707  0B1F  084F               	movf	(asin@y+1)^(0+128),w
  1708  0B20  1283               	bcf	3,5	;RP0=0, select bank0
  1709  0B21  1303               	bcf	3,6	;RP1=0, select bank0
  1710  0B22  00B5               	movwf	___fldiv@a+1
  1711  0B23  1683               	bsf	3,5	;RP0=1, select bank1
  1712  0B24  1303               	bcf	3,6	;RP1=0, select bank1
  1713  0B25  084E               	movf	asin@y^(0+128),w
  1714  0B26  1283               	bcf	3,5	;RP0=0, select bank0
  1715  0B27  1303               	bcf	3,6	;RP1=0, select bank0
  1716  0B28  00B4               	movwf	___fldiv@a
  1717  0B29  1683               	bsf	3,5	;RP0=1, select bank1
  1718  0B2A  1303               	bcf	3,6	;RP1=0, select bank1
  1719  0B2B  0841               	movf	(asin@x+3)^(0+128),w
  1720  0B2C  1283               	bcf	3,5	;RP0=0, select bank0
  1721  0B2D  1303               	bcf	3,6	;RP1=0, select bank0
  1722  0B2E  00BB               	movwf	___fldiv@b+3
  1723  0B2F  1683               	bsf	3,5	;RP0=1, select bank1
  1724  0B30  1303               	bcf	3,6	;RP1=0, select bank1
  1725  0B31  0840               	movf	(asin@x+2)^(0+128),w
  1726  0B32  1283               	bcf	3,5	;RP0=0, select bank0
  1727  0B33  1303               	bcf	3,6	;RP1=0, select bank0
  1728  0B34  00BA               	movwf	___fldiv@b+2
  1729  0B35  1683               	bsf	3,5	;RP0=1, select bank1
  1730  0B36  1303               	bcf	3,6	;RP1=0, select bank1
  1731  0B37  083F               	movf	(asin@x+1)^(0+128),w
  1732  0B38  1283               	bcf	3,5	;RP0=0, select bank0
  1733  0B39  1303               	bcf	3,6	;RP1=0, select bank0
  1734  0B3A  00B9               	movwf	___fldiv@b+1
  1735  0B3B  1683               	bsf	3,5	;RP0=1, select bank1
  1736  0B3C  1303               	bcf	3,6	;RP1=0, select bank1
  1737  0B3D  083E               	movf	asin@x^(0+128),w
  1738  0B3E  1283               	bcf	3,5	;RP0=0, select bank0
  1739  0B3F  1303               	bcf	3,6	;RP1=0, select bank0
  1740  0B40  00B8               	movwf	___fldiv@b
  1741  0B41  160A  118A  219B  120A  158A  	fcall	___fldiv
  1742  0B46  1283               	bcf	3,5	;RP0=0, select bank0
  1743  0B47  1303               	bcf	3,6	;RP1=0, select bank0
  1744  0B48  0837               	movf	?___fldiv+3,w
  1745  0B49  1683               	bsf	3,5	;RP0=1, select bank1
  1746  0B4A  1303               	bcf	3,6	;RP1=0, select bank1
  1747  0B4B  00D5               	movwf	(_asin$882+3)^(0+128)
  1748  0B4C  1283               	bcf	3,5	;RP0=0, select bank0
  1749  0B4D  1303               	bcf	3,6	;RP1=0, select bank0
  1750  0B4E  0836               	movf	?___fldiv+2,w
  1751  0B4F  1683               	bsf	3,5	;RP0=1, select bank1
  1752  0B50  1303               	bcf	3,6	;RP1=0, select bank1
  1753  0B51  00D4               	movwf	(_asin$882+2)^(0+128)
  1754  0B52  1283               	bcf	3,5	;RP0=0, select bank0
  1755  0B53  1303               	bcf	3,6	;RP1=0, select bank0
  1756  0B54  0835               	movf	?___fldiv+1,w
  1757  0B55  1683               	bsf	3,5	;RP0=1, select bank1
  1758  0B56  1303               	bcf	3,6	;RP1=0, select bank1
  1759  0B57  00D3               	movwf	(_asin$882+1)^(0+128)
  1760  0B58  1283               	bcf	3,5	;RP0=0, select bank0
  1761  0B59  1303               	bcf	3,6	;RP1=0, select bank0
  1762  0B5A  0834               	movf	?___fldiv,w
  1763  0B5B  1683               	bsf	3,5	;RP0=1, select bank1
  1764  0B5C  1303               	bcf	3,6	;RP1=0, select bank1
  1765  0B5D  00D2               	movwf	_asin$882^(0+128)
  1766  0B5E  0855               	movf	(_asin$882+3)^(0+128),w
  1767  0B5F  00AC               	movwf	(atan@f+3)^(0+128)
  1768  0B60  0854               	movf	(_asin$882+2)^(0+128),w
  1769  0B61  00AB               	movwf	(atan@f+2)^(0+128)
  1770  0B62  0853               	movf	(_asin$882+1)^(0+128),w
  1771  0B63  00AA               	movwf	(atan@f+1)^(0+128)
  1772  0B64  0852               	movf	_asin$882^(0+128),w
  1773  0B65  00A9               	movwf	atan@f^(0+128)
  1774  0B66  160A  118A  2575   	fcall	_atan
  1775  0B69  1683               	bsf	3,5	;RP0=1, select bank1
  1776  0B6A  1303               	bcf	3,6	;RP1=0, select bank1
  1777  0B6B  082C               	movf	(?_atan+3)^(0+128),w
  1778  0B6C  00C1               	movwf	(?_asin+3)^(0+128)
  1779  0B6D  082B               	movf	(?_atan+2)^(0+128),w
  1780  0B6E  00C0               	movwf	(?_asin+2)^(0+128)
  1781  0B6F  082A               	movf	(?_atan+1)^(0+128),w
  1782  0B70  00BF               	movwf	(?_asin+1)^(0+128)
  1783  0B71  0829               	movf	?_atan^(0+128),w
  1784  0B72  00BE               	movwf	?_asin^(0+128)
  1785  0B73  0008               	return
  1786  0B74                     l3172:	
  1787  0B74  1683               	bsf	3,5	;RP0=1, select bank1
  1788  0B75  1303               	bcf	3,6	;RP1=0, select bank1
  1789  0B76  0841               	movf	(asin@x+3)^(0+128),w
  1790  0B77  00F3               	movwf	___flge@ff1+3
  1791  0B78  0840               	movf	(asin@x+2)^(0+128),w
  1792  0B79  00F2               	movwf	___flge@ff1+2
  1793  0B7A  083F               	movf	(asin@x+1)^(0+128),w
  1794  0B7B  00F1               	movwf	___flge@ff1+1
  1795  0B7C  083E               	movf	asin@x^(0+128),w
  1796  0B7D  00F0               	movwf	___flge@ff1
  1797  0B7E  3000               	movlw	0
  1798  0B7F  00F7               	movwf	___flge@ff2+3
  1799  0B80  3000               	movlw	0
  1800  0B81  00F6               	movwf	___flge@ff2+2
  1801  0B82  3000               	movlw	0
  1802  0B83  00F5               	movwf	___flge@ff2+1
  1803  0B84  3000               	movlw	0
  1804  0B85  00F4               	movwf	___flge@ff2
  1805  0B86  160A  158A  25E8  120A  158A  	fcall	___flge
  1806  0B8B  1803               	btfsc	3,0
  1807  0B8C  2C4D               	goto	l3182
  1808  0B8D  1683               	bsf	3,5	;RP0=1, select bank1
  1809  0B8E  1303               	bcf	3,6	;RP1=0, select bank1
  1810  0B8F  0851               	movf	(asin@y+3)^(0+128),w
  1811  0B90  1283               	bcf	3,5	;RP0=0, select bank0
  1812  0B91  1303               	bcf	3,6	;RP1=0, select bank0
  1813  0B92  00B3               	movwf	___flneg@f1+3
  1814  0B93  1683               	bsf	3,5	;RP0=1, select bank1
  1815  0B94  1303               	bcf	3,6	;RP1=0, select bank1
  1816  0B95  0850               	movf	(asin@y+2)^(0+128),w
  1817  0B96  1283               	bcf	3,5	;RP0=0, select bank0
  1818  0B97  1303               	bcf	3,6	;RP1=0, select bank0
  1819  0B98  00B2               	movwf	___flneg@f1+2
  1820  0B99  1683               	bsf	3,5	;RP0=1, select bank1
  1821  0B9A  1303               	bcf	3,6	;RP1=0, select bank1
  1822  0B9B  084F               	movf	(asin@y+1)^(0+128),w
  1823  0B9C  1283               	bcf	3,5	;RP0=0, select bank0
  1824  0B9D  1303               	bcf	3,6	;RP1=0, select bank0
  1825  0B9E  00B1               	movwf	___flneg@f1+1
  1826  0B9F  1683               	bsf	3,5	;RP0=1, select bank1
  1827  0BA0  1303               	bcf	3,6	;RP1=0, select bank1
  1828  0BA1  084E               	movf	asin@y^(0+128),w
  1829  0BA2  1283               	bcf	3,5	;RP0=0, select bank0
  1830  0BA3  1303               	bcf	3,6	;RP1=0, select bank0
  1831  0BA4  00B0               	movwf	___flneg@f1
  1832  0BA5  160A  158A  2231  120A  158A  	fcall	___flneg
  1833  0BAA  1283               	bcf	3,5	;RP0=0, select bank0
  1834  0BAB  1303               	bcf	3,6	;RP1=0, select bank0
  1835  0BAC  0833               	movf	?___flneg+3,w
  1836  0BAD  00BB               	movwf	___fldiv@b+3
  1837  0BAE  0832               	movf	?___flneg+2,w
  1838  0BAF  00BA               	movwf	___fldiv@b+2
  1839  0BB0  0831               	movf	?___flneg+1,w
  1840  0BB1  00B9               	movwf	___fldiv@b+1
  1841  0BB2  0830               	movf	?___flneg,w
  1842  0BB3  00B8               	movwf	___fldiv@b
  1843  0BB4  1683               	bsf	3,5	;RP0=1, select bank1
  1844  0BB5  1303               	bcf	3,6	;RP1=0, select bank1
  1845  0BB6  0841               	movf	(asin@x+3)^(0+128),w
  1846  0BB7  1283               	bcf	3,5	;RP0=0, select bank0
  1847  0BB8  1303               	bcf	3,6	;RP1=0, select bank0
  1848  0BB9  00B7               	movwf	___fldiv@a+3
  1849  0BBA  1683               	bsf	3,5	;RP0=1, select bank1
  1850  0BBB  1303               	bcf	3,6	;RP1=0, select bank1
  1851  0BBC  0840               	movf	(asin@x+2)^(0+128),w
  1852  0BBD  1283               	bcf	3,5	;RP0=0, select bank0
  1853  0BBE  1303               	bcf	3,6	;RP1=0, select bank0
  1854  0BBF  00B6               	movwf	___fldiv@a+2
  1855  0BC0  1683               	bsf	3,5	;RP0=1, select bank1
  1856  0BC1  1303               	bcf	3,6	;RP1=0, select bank1
  1857  0BC2  083F               	movf	(asin@x+1)^(0+128),w
  1858  0BC3  1283               	bcf	3,5	;RP0=0, select bank0
  1859  0BC4  1303               	bcf	3,6	;RP1=0, select bank0
  1860  0BC5  00B5               	movwf	___fldiv@a+1
  1861  0BC6  1683               	bsf	3,5	;RP0=1, select bank1
  1862  0BC7  1303               	bcf	3,6	;RP1=0, select bank1
  1863  0BC8  083E               	movf	asin@x^(0+128),w
  1864  0BC9  1283               	bcf	3,5	;RP0=0, select bank0
  1865  0BCA  1303               	bcf	3,6	;RP1=0, select bank0
  1866  0BCB  00B4               	movwf	___fldiv@a
  1867  0BCC  160A  118A  219B  120A  158A  	fcall	___fldiv
  1868  0BD1  1283               	bcf	3,5	;RP0=0, select bank0
  1869  0BD2  1303               	bcf	3,6	;RP1=0, select bank0
  1870  0BD3  0837               	movf	?___fldiv+3,w
  1871  0BD4  1683               	bsf	3,5	;RP0=1, select bank1
  1872  0BD5  1303               	bcf	3,6	;RP1=0, select bank1
  1873  0BD6  00D5               	movwf	(_asin$882+3)^(0+128)
  1874  0BD7  1283               	bcf	3,5	;RP0=0, select bank0
  1875  0BD8  1303               	bcf	3,6	;RP1=0, select bank0
  1876  0BD9  0836               	movf	?___fldiv+2,w
  1877  0BDA  1683               	bsf	3,5	;RP0=1, select bank1
  1878  0BDB  1303               	bcf	3,6	;RP1=0, select bank1
  1879  0BDC  00D4               	movwf	(_asin$882+2)^(0+128)
  1880  0BDD  1283               	bcf	3,5	;RP0=0, select bank0
  1881  0BDE  1303               	bcf	3,6	;RP1=0, select bank0
  1882  0BDF  0835               	movf	?___fldiv+1,w
  1883  0BE0  1683               	bsf	3,5	;RP0=1, select bank1
  1884  0BE1  1303               	bcf	3,6	;RP1=0, select bank1
  1885  0BE2  00D3               	movwf	(_asin$882+1)^(0+128)
  1886  0BE3  1283               	bcf	3,5	;RP0=0, select bank0
  1887  0BE4  1303               	bcf	3,6	;RP1=0, select bank0
  1888  0BE5  0834               	movf	?___fldiv,w
  1889  0BE6  1683               	bsf	3,5	;RP0=1, select bank1
  1890  0BE7  1303               	bcf	3,6	;RP1=0, select bank1
  1891  0BE8  00D2               	movwf	_asin$882^(0+128)
  1892  0BE9  0855               	movf	(_asin$882+3)^(0+128),w
  1893  0BEA  00AC               	movwf	(atan@f+3)^(0+128)
  1894  0BEB  0854               	movf	(_asin$882+2)^(0+128),w
  1895  0BEC  00AB               	movwf	(atan@f+2)^(0+128)
  1896  0BED  0853               	movf	(_asin$882+1)^(0+128),w
  1897  0BEE  00AA               	movwf	(atan@f+1)^(0+128)
  1898  0BEF  0852               	movf	_asin$882^(0+128),w
  1899  0BF0  00A9               	movwf	atan@f^(0+128)
  1900  0BF1  160A  118A  2575  120A  158A  	fcall	_atan
  1901  0BF6  1683               	bsf	3,5	;RP0=1, select bank1
  1902  0BF7  1303               	bcf	3,6	;RP1=0, select bank1
  1903  0BF8  082C               	movf	(?_atan+3)^(0+128),w
  1904  0BF9  00CD               	movwf	(_asin$883+3)^(0+128)
  1905  0BFA  082B               	movf	(?_atan+2)^(0+128),w
  1906  0BFB  00CC               	movwf	(_asin$883+2)^(0+128)
  1907  0BFC  082A               	movf	(?_atan+1)^(0+128),w
  1908  0BFD  00CB               	movwf	(_asin$883+1)^(0+128)
  1909  0BFE  0829               	movf	?_atan^(0+128),w
  1910  0BFF  00CA               	movwf	_asin$883^(0+128)
  1911  0C00  303F               	movlw	63
  1912  0C01  1283               	bcf	3,5	;RP0=0, select bank0
  1913  0C02  1303               	bcf	3,6	;RP1=0, select bank0
  1914  0C03  00EF               	movwf	___flsub@b+3
  1915  0C04  30C9               	movlw	201
  1916  0C05  00EE               	movwf	___flsub@b+2
  1917  0C06  300F               	movlw	15
  1918  0C07  00ED               	movwf	___flsub@b+1
  1919  0C08  30DB               	movlw	219
  1920  0C09  00EC               	movwf	___flsub@b
  1921  0C0A  1683               	bsf	3,5	;RP0=1, select bank1
  1922  0C0B  1303               	bcf	3,6	;RP1=0, select bank1
  1923  0C0C  084D               	movf	(_asin$883+3)^(0+128),w
  1924  0C0D  1283               	bcf	3,5	;RP0=0, select bank0
  1925  0C0E  1303               	bcf	3,6	;RP1=0, select bank0
  1926  0C0F  00EB               	movwf	___flsub@a+3
  1927  0C10  1683               	bsf	3,5	;RP0=1, select bank1
  1928  0C11  1303               	bcf	3,6	;RP1=0, select bank1
  1929  0C12  084C               	movf	(_asin$883+2)^(0+128),w
  1930  0C13  1283               	bcf	3,5	;RP0=0, select bank0
  1931  0C14  1303               	bcf	3,6	;RP1=0, select bank0
  1932  0C15  00EA               	movwf	___flsub@a+2
  1933  0C16  1683               	bsf	3,5	;RP0=1, select bank1
  1934  0C17  1303               	bcf	3,6	;RP1=0, select bank1
  1935  0C18  084B               	movf	(_asin$883+1)^(0+128),w
  1936  0C19  1283               	bcf	3,5	;RP0=0, select bank0
  1937  0C1A  1303               	bcf	3,6	;RP1=0, select bank0
  1938  0C1B  00E9               	movwf	___flsub@a+1
  1939  0C1C  1683               	bsf	3,5	;RP0=1, select bank1
  1940  0C1D  1303               	bcf	3,6	;RP1=0, select bank1
  1941  0C1E  084A               	movf	_asin$883^(0+128),w
  1942  0C1F  1283               	bcf	3,5	;RP0=0, select bank0
  1943  0C20  1303               	bcf	3,6	;RP1=0, select bank0
  1944  0C21  00E8               	movwf	___flsub@a
  1945  0C22  160A  158A  22BB  120A  158A  	fcall	___flsub
  1946  0C27  1283               	bcf	3,5	;RP0=0, select bank0
  1947  0C28  1303               	bcf	3,6	;RP1=0, select bank0
  1948  0C29  086B               	movf	?___flsub+3,w
  1949  0C2A  00B3               	movwf	___flneg@f1+3
  1950  0C2B  086A               	movf	?___flsub+2,w
  1951  0C2C  00B2               	movwf	___flneg@f1+2
  1952  0C2D  0869               	movf	?___flsub+1,w
  1953  0C2E  00B1               	movwf	___flneg@f1+1
  1954  0C2F  0868               	movf	?___flsub,w
  1955  0C30  00B0               	movwf	___flneg@f1
  1956  0C31  160A  158A  2231   	fcall	___flneg
  1957  0C34  1283               	bcf	3,5	;RP0=0, select bank0
  1958  0C35  1303               	bcf	3,6	;RP1=0, select bank0
  1959  0C36  0833               	movf	?___flneg+3,w
  1960  0C37  1683               	bsf	3,5	;RP0=1, select bank1
  1961  0C38  1303               	bcf	3,6	;RP1=0, select bank1
  1962  0C39  00C1               	movwf	(?_asin+3)^(0+128)
  1963  0C3A  1283               	bcf	3,5	;RP0=0, select bank0
  1964  0C3B  1303               	bcf	3,6	;RP1=0, select bank0
  1965  0C3C  0832               	movf	?___flneg+2,w
  1966  0C3D  1683               	bsf	3,5	;RP0=1, select bank1
  1967  0C3E  1303               	bcf	3,6	;RP1=0, select bank1
  1968  0C3F  00C0               	movwf	(?_asin+2)^(0+128)
  1969  0C40  1283               	bcf	3,5	;RP0=0, select bank0
  1970  0C41  1303               	bcf	3,6	;RP1=0, select bank0
  1971  0C42  0831               	movf	?___flneg+1,w
  1972  0C43  1683               	bsf	3,5	;RP0=1, select bank1
  1973  0C44  1303               	bcf	3,6	;RP1=0, select bank1
  1974  0C45  00BF               	movwf	(?_asin+1)^(0+128)
  1975  0C46  1283               	bcf	3,5	;RP0=0, select bank0
  1976  0C47  1303               	bcf	3,6	;RP1=0, select bank0
  1977  0C48  0830               	movf	?___flneg,w
  1978  0C49  1683               	bsf	3,5	;RP0=1, select bank1
  1979  0C4A  1303               	bcf	3,6	;RP1=0, select bank1
  1980  0C4B  00BE               	movwf	?_asin^(0+128)
  1981  0C4C  0008               	return
  1982  0C4D                     l3182:	
  1983  0C4D  1683               	bsf	3,5	;RP0=1, select bank1
  1984  0C4E  1303               	bcf	3,6	;RP1=0, select bank1
  1985  0C4F  0841               	movf	(asin@x+3)^(0+128),w
  1986  0C50  1283               	bcf	3,5	;RP0=0, select bank0
  1987  0C51  1303               	bcf	3,6	;RP1=0, select bank0
  1988  0C52  00B7               	movwf	___fldiv@a+3
  1989  0C53  1683               	bsf	3,5	;RP0=1, select bank1
  1990  0C54  1303               	bcf	3,6	;RP1=0, select bank1
  1991  0C55  0840               	movf	(asin@x+2)^(0+128),w
  1992  0C56  1283               	bcf	3,5	;RP0=0, select bank0
  1993  0C57  1303               	bcf	3,6	;RP1=0, select bank0
  1994  0C58  00B6               	movwf	___fldiv@a+2
  1995  0C59  1683               	bsf	3,5	;RP0=1, select bank1
  1996  0C5A  1303               	bcf	3,6	;RP1=0, select bank1
  1997  0C5B  083F               	movf	(asin@x+1)^(0+128),w
  1998  0C5C  1283               	bcf	3,5	;RP0=0, select bank0
  1999  0C5D  1303               	bcf	3,6	;RP1=0, select bank0
  2000  0C5E  00B5               	movwf	___fldiv@a+1
  2001  0C5F  1683               	bsf	3,5	;RP0=1, select bank1
  2002  0C60  1303               	bcf	3,6	;RP1=0, select bank1
  2003  0C61  083E               	movf	asin@x^(0+128),w
  2004  0C62  1283               	bcf	3,5	;RP0=0, select bank0
  2005  0C63  1303               	bcf	3,6	;RP1=0, select bank0
  2006  0C64  00B4               	movwf	___fldiv@a
  2007  0C65  1683               	bsf	3,5	;RP0=1, select bank1
  2008  0C66  1303               	bcf	3,6	;RP1=0, select bank1
  2009  0C67  0851               	movf	(asin@y+3)^(0+128),w
  2010  0C68  1283               	bcf	3,5	;RP0=0, select bank0
  2011  0C69  1303               	bcf	3,6	;RP1=0, select bank0
  2012  0C6A  00BB               	movwf	___fldiv@b+3
  2013  0C6B  1683               	bsf	3,5	;RP0=1, select bank1
  2014  0C6C  1303               	bcf	3,6	;RP1=0, select bank1
  2015  0C6D  0850               	movf	(asin@y+2)^(0+128),w
  2016  0C6E  1283               	bcf	3,5	;RP0=0, select bank0
  2017  0C6F  1303               	bcf	3,6	;RP1=0, select bank0
  2018  0C70  00BA               	movwf	___fldiv@b+2
  2019  0C71  1683               	bsf	3,5	;RP0=1, select bank1
  2020  0C72  1303               	bcf	3,6	;RP1=0, select bank1
  2021  0C73  084F               	movf	(asin@y+1)^(0+128),w
  2022  0C74  1283               	bcf	3,5	;RP0=0, select bank0
  2023  0C75  1303               	bcf	3,6	;RP1=0, select bank0
  2024  0C76  00B9               	movwf	___fldiv@b+1
  2025  0C77  1683               	bsf	3,5	;RP0=1, select bank1
  2026  0C78  1303               	bcf	3,6	;RP1=0, select bank1
  2027  0C79  084E               	movf	asin@y^(0+128),w
  2028  0C7A  1283               	bcf	3,5	;RP0=0, select bank0
  2029  0C7B  1303               	bcf	3,6	;RP1=0, select bank0
  2030  0C7C  00B8               	movwf	___fldiv@b
  2031  0C7D  160A  118A  219B  120A  158A  	fcall	___fldiv
  2032  0C82  1283               	bcf	3,5	;RP0=0, select bank0
  2033  0C83  1303               	bcf	3,6	;RP1=0, select bank0
  2034  0C84  0837               	movf	?___fldiv+3,w
  2035  0C85  1683               	bsf	3,5	;RP0=1, select bank1
  2036  0C86  1303               	bcf	3,6	;RP1=0, select bank1
  2037  0C87  00D5               	movwf	(_asin$882+3)^(0+128)
  2038  0C88  1283               	bcf	3,5	;RP0=0, select bank0
  2039  0C89  1303               	bcf	3,6	;RP1=0, select bank0
  2040  0C8A  0836               	movf	?___fldiv+2,w
  2041  0C8B  1683               	bsf	3,5	;RP0=1, select bank1
  2042  0C8C  1303               	bcf	3,6	;RP1=0, select bank1
  2043  0C8D  00D4               	movwf	(_asin$882+2)^(0+128)
  2044  0C8E  1283               	bcf	3,5	;RP0=0, select bank0
  2045  0C8F  1303               	bcf	3,6	;RP1=0, select bank0
  2046  0C90  0835               	movf	?___fldiv+1,w
  2047  0C91  1683               	bsf	3,5	;RP0=1, select bank1
  2048  0C92  1303               	bcf	3,6	;RP1=0, select bank1
  2049  0C93  00D3               	movwf	(_asin$882+1)^(0+128)
  2050  0C94  1283               	bcf	3,5	;RP0=0, select bank0
  2051  0C95  1303               	bcf	3,6	;RP1=0, select bank0
  2052  0C96  0834               	movf	?___fldiv,w
  2053  0C97  1683               	bsf	3,5	;RP0=1, select bank1
  2054  0C98  1303               	bcf	3,6	;RP1=0, select bank1
  2055  0C99  00D2               	movwf	_asin$882^(0+128)
  2056  0C9A  0855               	movf	(_asin$882+3)^(0+128),w
  2057  0C9B  00AC               	movwf	(atan@f+3)^(0+128)
  2058  0C9C  0854               	movf	(_asin$882+2)^(0+128),w
  2059  0C9D  00AB               	movwf	(atan@f+2)^(0+128)
  2060  0C9E  0853               	movf	(_asin$882+1)^(0+128),w
  2061  0C9F  00AA               	movwf	(atan@f+1)^(0+128)
  2062  0CA0  0852               	movf	_asin$882^(0+128),w
  2063  0CA1  00A9               	movwf	atan@f^(0+128)
  2064  0CA2  160A  118A  2575  120A  158A  	fcall	_atan
  2065  0CA7  1683               	bsf	3,5	;RP0=1, select bank1
  2066  0CA8  1303               	bcf	3,6	;RP1=0, select bank1
  2067  0CA9  082C               	movf	(?_atan+3)^(0+128),w
  2068  0CAA  00CD               	movwf	(_asin$883+3)^(0+128)
  2069  0CAB  082B               	movf	(?_atan+2)^(0+128),w
  2070  0CAC  00CC               	movwf	(_asin$883+2)^(0+128)
  2071  0CAD  082A               	movf	(?_atan+1)^(0+128),w
  2072  0CAE  00CB               	movwf	(_asin$883+1)^(0+128)
  2073  0CAF  0829               	movf	?_atan^(0+128),w
  2074  0CB0  00CA               	movwf	_asin$883^(0+128)
  2075  0CB1  084D               	movf	(_asin$883+3)^(0+128),w
  2076  0CB2  1283               	bcf	3,5	;RP0=0, select bank0
  2077  0CB3  1303               	bcf	3,6	;RP1=0, select bank0
  2078  0CB4  00EB               	movwf	___flsub@a+3
  2079  0CB5  1683               	bsf	3,5	;RP0=1, select bank1
  2080  0CB6  1303               	bcf	3,6	;RP1=0, select bank1
  2081  0CB7  084C               	movf	(_asin$883+2)^(0+128),w
  2082  0CB8  1283               	bcf	3,5	;RP0=0, select bank0
  2083  0CB9  1303               	bcf	3,6	;RP1=0, select bank0
  2084  0CBA  00EA               	movwf	___flsub@a+2
  2085  0CBB  1683               	bsf	3,5	;RP0=1, select bank1
  2086  0CBC  1303               	bcf	3,6	;RP1=0, select bank1
  2087  0CBD  084B               	movf	(_asin$883+1)^(0+128),w
  2088  0CBE  1283               	bcf	3,5	;RP0=0, select bank0
  2089  0CBF  1303               	bcf	3,6	;RP1=0, select bank0
  2090  0CC0  00E9               	movwf	___flsub@a+1
  2091  0CC1  1683               	bsf	3,5	;RP0=1, select bank1
  2092  0CC2  1303               	bcf	3,6	;RP1=0, select bank1
  2093  0CC3  084A               	movf	_asin$883^(0+128),w
  2094  0CC4  1283               	bcf	3,5	;RP0=0, select bank0
  2095  0CC5  1303               	bcf	3,6	;RP1=0, select bank0
  2096  0CC6  00E8               	movwf	___flsub@a
  2097  0CC7  303F               	movlw	63
  2098  0CC8  00EF               	movwf	___flsub@b+3
  2099  0CC9  30C9               	movlw	201
  2100  0CCA  00EE               	movwf	___flsub@b+2
  2101  0CCB  300F               	movlw	15
  2102  0CCC  00ED               	movwf	___flsub@b+1
  2103  0CCD  30DB               	movlw	219
  2104  0CCE  00EC               	movwf	___flsub@b
  2105  0CCF  160A  158A  22BB   	fcall	___flsub
  2106  0CD2  1283               	bcf	3,5	;RP0=0, select bank0
  2107  0CD3  1303               	bcf	3,6	;RP1=0, select bank0
  2108  0CD4  086B               	movf	?___flsub+3,w
  2109  0CD5  1683               	bsf	3,5	;RP0=1, select bank1
  2110  0CD6  1303               	bcf	3,6	;RP1=0, select bank1
  2111  0CD7  00C1               	movwf	(?_asin+3)^(0+128)
  2112  0CD8  1283               	bcf	3,5	;RP0=0, select bank0
  2113  0CD9  1303               	bcf	3,6	;RP1=0, select bank0
  2114  0CDA  086A               	movf	?___flsub+2,w
  2115  0CDB  1683               	bsf	3,5	;RP0=1, select bank1
  2116  0CDC  1303               	bcf	3,6	;RP1=0, select bank1
  2117  0CDD  00C0               	movwf	(?_asin+2)^(0+128)
  2118  0CDE  1283               	bcf	3,5	;RP0=0, select bank0
  2119  0CDF  1303               	bcf	3,6	;RP1=0, select bank0
  2120  0CE0  0869               	movf	?___flsub+1,w
  2121  0CE1  1683               	bsf	3,5	;RP0=1, select bank1
  2122  0CE2  1303               	bcf	3,6	;RP1=0, select bank1
  2123  0CE3  00BF               	movwf	(?_asin+1)^(0+128)
  2124  0CE4  1283               	bcf	3,5	;RP0=0, select bank0
  2125  0CE5  1303               	bcf	3,6	;RP1=0, select bank0
  2126  0CE6  0868               	movf	?___flsub,w
  2127  0CE7  1683               	bsf	3,5	;RP0=1, select bank1
  2128  0CE8  1303               	bcf	3,6	;RP1=0, select bank1
  2129  0CE9  00BE               	movwf	?_asin^(0+128)
  2130  0CEA  0008               	return
  2131  0CEB                     __end_of_asin:	
  2132                           
  2133                           	psect	text3
  2134  083B                     __ptext3:	
  2135 ;; *************** function _sqrt *****************
  2136 ;; Defined at:
  2137 ;;		line 9 in file "C:\Program Files (x86)\Microchip\xc8\v2.05\pic\sources\c90\common\sprcsqrt.c"
  2138 ;; Parameters:    Size  Location     Type
  2139 ;;  a               4    0[BANK1 ] void 
  2140 ;; Auto vars:     Size  Location     Type
  2141 ;;  frac            4   25[BANK1 ] unsigned long 
  2142 ;;  root            4   21[BANK1 ] struct .
  2143 ;;  grs             4   15[BANK1 ] unsigned long 
  2144 ;;  tfrac           4   10[BANK1 ] unsigned long 
  2145 ;;  exp             2   19[BANK1 ] int 
  2146 ;;  p               1   14[BANK1 ] unsigned char 
  2147 ;;  i               1    9[BANK1 ] unsigned char 
  2148 ;;  sign            1    8[BANK1 ] unsigned char 
  2149 ;; Return value:  Size  Location     Type
  2150 ;;                  4    0[BANK1 ] unsigned char 
  2151 ;; Registers used:
  2152 ;;		wreg, status,2, status,0, btemp+1
  2153 ;; Tracked objects:
  2154 ;;		On entry : 0/0
  2155 ;;		On exit  : 0/0
  2156 ;;		Unchanged: 0/0
  2157 ;; Data sizes:     COMMON   BANK0   BANK1   BANK3   BANK2
  2158 ;;      Params:         0       0       4       0       0
  2159 ;;      Locals:         0       0      21       0       0
  2160 ;;      Temps:          0       0       4       0       0
  2161 ;;      Totals:         0       0      29       0       0
  2162 ;;Total ram usage:       29 bytes
  2163 ;; Hardware stack levels used:    1
  2164 ;; This function calls:
  2165 ;;		Nothing
  2166 ;; This function is called by:
  2167 ;;		_main
  2168 ;;		_asin
  2169 ;; This function uses a non-reentrant model
  2170 ;;
  2171                           
  2172                           
  2173                           ;psect for function _sqrt
  2174  083B                     _sqrt:	
  2175                           
  2176                           ;incstack = 0
  2177                           ; Regs used in _sqrt: [wreg+status,2+status,0+btemp+1]
  2178  083B  1683               	bsf	3,5	;RP0=1, select bank1
  2179  083C  1303               	bcf	3,6	;RP1=0, select bank1
  2180  083D  0823               	movf	(sqrt@a^(0+128)+3),w
  2181  083E  3980               	andlw	128
  2182  083F  00A4               	movwf	??_sqrt^(0+128)
  2183  0840  0824               	movf	??_sqrt^(0+128),w
  2184  0841  00A8               	movwf	sqrt@sign^(0+128)
  2185  0842  0823               	movf	(sqrt@a^(0+128)+3),w
  2186  0843  00A4               	movwf	??_sqrt^(0+128)
  2187  0844  0724               	addwf	??_sqrt^(0+128),w
  2188  0845  00A5               	movwf	(??_sqrt+1)^(0+128)
  2189  0846  0825               	movf	(??_sqrt+1)^(0+128),w
  2190  0847  00AE               	movwf	sqrt@p^(0+128)
  2191  0848  1BA2               	btfsc	(sqrt@a^(0+128)+2),7
  2192  0849  142E               	bsf	sqrt@p^(0+128),0
  2193  084A  082E               	movf	sqrt@p^(0+128),w
  2194  084B  00A4               	movwf	??_sqrt^(0+128)
  2195  084C  01A5               	clrf	(??_sqrt^(0+128)+1)
  2196  084D  0824               	movf	??_sqrt^(0+128),w
  2197  084E  00B3               	movwf	sqrt@exp^(0+128)
  2198  084F  0825               	movf	(??_sqrt+1)^(0+128),w
  2199  0850  00B4               	movwf	(sqrt@exp+1)^(0+128)
  2200  0851  30FF               	movlw	255
  2201  0852  0520               	andwf	sqrt@a^(0+128),w
  2202  0853  00B9               	movwf	sqrt@frac^(0+128)
  2203  0854  30FF               	movlw	255
  2204  0855  0521               	andwf	(sqrt@a+1)^(0+128),w
  2205  0856  00BA               	movwf	(sqrt@frac+1)^(0+128)
  2206  0857  307F               	movlw	127
  2207  0858  0522               	andwf	(sqrt@a+2)^(0+128),w
  2208  0859  00BB               	movwf	(sqrt@frac+2)^(0+128)
  2209  085A  3000               	movlw	0
  2210  085B  0523               	andwf	(sqrt@a+3)^(0+128),w
  2211  085C  00BC               	movwf	(sqrt@frac+3)^(0+128)
  2212  085D  0833               	movf	sqrt@exp^(0+128),w
  2213  085E  0434               	iorwf	(sqrt@exp+1)^(0+128),w
  2214  085F  1903               	btfsc	3,2
  2215  0860  2866               	goto	l2604
  2216  0861  17BB               	bsf	(sqrt@frac^(0+128)+2),7
  2217  0862  0A33               	incf	sqrt@exp^(0+128),w
  2218  0863  0434               	iorwf	(sqrt@exp+1)^(0+128),w
  2219  0864  1D03               	btfss	3,2
  2220  0865  286E               	goto	l2608
  2221  0866                     l2604:	
  2222  0866  3000               	movlw	0
  2223  0867  00BC               	movwf	(sqrt@frac+3)^(0+128)
  2224  0868  3000               	movlw	0
  2225  0869  00BB               	movwf	(sqrt@frac+2)^(0+128)
  2226  086A  3000               	movlw	0
  2227  086B  00BA               	movwf	(sqrt@frac+1)^(0+128)
  2228  086C  3000               	movlw	0
  2229  086D  00B9               	movwf	sqrt@frac^(0+128)
  2230  086E                     l2608:	
  2231  086E  0833               	movf	sqrt@exp^(0+128),w
  2232  086F  0434               	iorwf	(sqrt@exp+1)^(0+128),w
  2233  0870  1D03               	btfss	3,2
  2234  0871  287B               	goto	l2614
  2235  0872  3000               	movlw	0
  2236  0873  00A3               	movwf	(?_sqrt+3)^(0+128)
  2237  0874  3000               	movlw	0
  2238  0875  00A2               	movwf	(?_sqrt+2)^(0+128)
  2239  0876  3000               	movlw	0
  2240  0877  00A1               	movwf	(?_sqrt+1)^(0+128)
  2241  0878  3000               	movlw	0
  2242  0879  00A0               	movwf	?_sqrt^(0+128)
  2243  087A  0008               	return
  2244  087B                     l2614:	
  2245  087B  0828               	movf	sqrt@sign^(0+128),w
  2246  087C  1903               	btfsc	3,2
  2247  087D  2897               	goto	l2620
  2248  087E  3000               	movlw	0
  2249  087F  00B8               	movwf	(sqrt@root+3)^(0+128)
  2250  0880  3040               	movlw	64
  2251  0881  00B7               	movwf	(sqrt@root+2)^(0+128)
  2252  0882  3000               	movlw	0
  2253  0883  00B6               	movwf	(sqrt@root+1)^(0+128)
  2254  0884  3000               	movlw	0
  2255  0885  00B5               	movwf	sqrt@root^(0+128)
  2256  0886  3080               	movlw	128
  2257  0887  04B7               	iorwf	(sqrt@root^(0+128)+2),f
  2258  0888  30FF               	movlw	255
  2259  0889  04B8               	iorwf	((sqrt@root+1)^(0+128)+2),f
  2260  088A  3021               	movlw	33
  2261  088B  00E2               	movwf	_errno^(0+128)
  2262  088C  3000               	movlw	0
  2263  088D  00E3               	movwf	(_errno^(0+128)+1)
  2264  088E  0838               	movf	(sqrt@root+3)^(0+128),w
  2265  088F  00A3               	movwf	(?_sqrt+3)^(0+128)
  2266  0890  0837               	movf	(sqrt@root+2)^(0+128),w
  2267  0891  00A2               	movwf	(?_sqrt+2)^(0+128)
  2268  0892  0836               	movf	(sqrt@root+1)^(0+128),w
  2269  0893  00A1               	movwf	(?_sqrt+1)^(0+128)
  2270  0894  0835               	movf	sqrt@root^(0+128),w
  2271  0895  00A0               	movwf	?_sqrt^(0+128)
  2272  0896  0008               	return
  2273  0897                     l2620:	
  2274  0897  0A33               	incf	sqrt@exp^(0+128),w
  2275  0898  0434               	iorwf	(sqrt@exp+1)^(0+128),w
  2276  0899  1D03               	btfss	3,2
  2277  089A  28AC               	goto	l2626
  2278  089B  307F               	movlw	127
  2279  089C  00B8               	movwf	(sqrt@root+3)^(0+128)
  2280  089D  3080               	movlw	128
  2281  089E  00B7               	movwf	(sqrt@root+2)^(0+128)
  2282  089F  3000               	movlw	0
  2283  08A0  00B6               	movwf	(sqrt@root+1)^(0+128)
  2284  08A1  3000               	movlw	0
  2285  08A2  00B5               	movwf	sqrt@root^(0+128)
  2286  08A3  0838               	movf	(sqrt@root+3)^(0+128),w
  2287  08A4  00A3               	movwf	(?_sqrt+3)^(0+128)
  2288  08A5  0837               	movf	(sqrt@root+2)^(0+128),w
  2289  08A6  00A2               	movwf	(?_sqrt+2)^(0+128)
  2290  08A7  0836               	movf	(sqrt@root+1)^(0+128),w
  2291  08A8  00A1               	movwf	(?_sqrt+1)^(0+128)
  2292  08A9  0835               	movf	sqrt@root^(0+128),w
  2293  08AA  00A0               	movwf	?_sqrt^(0+128)
  2294  08AB  0008               	return
  2295  08AC                     l2626:	
  2296  08AC  3081               	movlw	129
  2297  08AD  07B3               	addwf	sqrt@exp^(0+128),f
  2298  08AE  1803               	skipnc
  2299  08AF  0AB4               	incf	(sqrt@exp+1)^(0+128),f
  2300  08B0  30FF               	movlw	255
  2301  08B1  07B4               	addwf	(sqrt@exp+1)^(0+128),f
  2302  08B2  0833               	movf	sqrt@exp^(0+128),w
  2303  08B3  3901               	andlw	1
  2304  08B4  00A4               	movwf	??_sqrt^(0+128)
  2305  08B5  0824               	movf	??_sqrt^(0+128),w
  2306  08B6  00AE               	movwf	sqrt@p^(0+128)
  2307  08B7  3001               	movlw	1
  2308  08B8  00FF               	movwf	127
  2309  08B9                     u3575:	
  2310  08B9  0D34               	rlf	(sqrt@exp+1)^(0+128),w
  2311  08BA  0CB4               	rrf	(sqrt@exp+1)^(0+128),f
  2312  08BB  0CB3               	rrf	sqrt@exp^(0+128),f
  2313  08BC  0BFF               	decfsz	127,f
  2314  08BD  28B9               	goto	u3575
  2315  08BE  307F               	movlw	127
  2316  08BF  07B3               	addwf	sqrt@exp^(0+128),f
  2317  08C0  1803               	skipnc
  2318  08C1  0AB4               	incf	(sqrt@exp+1)^(0+128),f
  2319  08C2  3000               	movlw	0
  2320  08C3  07B4               	addwf	(sqrt@exp+1)^(0+128),f
  2321  08C4  1003               	clrc
  2322  08C5  0D39               	rlf	sqrt@frac^(0+128),w
  2323  08C6  00AA               	movwf	sqrt@tfrac^(0+128)
  2324  08C7  0D3A               	rlf	(sqrt@frac+1)^(0+128),w
  2325  08C8  00AB               	movwf	(sqrt@tfrac+1)^(0+128)
  2326  08C9  0D3B               	rlf	(sqrt@frac+2)^(0+128),w
  2327  08CA  00AC               	movwf	(sqrt@tfrac+2)^(0+128)
  2328  08CB  0D3C               	rlf	(sqrt@frac+3)^(0+128),w
  2329  08CC  00AD               	movwf	(sqrt@tfrac+3)^(0+128)
  2330  08CD  3000               	movlw	0
  2331  08CE  00BC               	movwf	(sqrt@frac+3)^(0+128)
  2332  08CF  3000               	movlw	0
  2333  08D0  00BB               	movwf	(sqrt@frac+2)^(0+128)
  2334  08D1  3000               	movlw	0
  2335  08D2  00BA               	movwf	(sqrt@frac+1)^(0+128)
  2336  08D3  3000               	movlw	0
  2337  08D4  00B9               	movwf	sqrt@frac^(0+128)
  2338  08D5  3001               	movlw	1
  2339  08D6  00B2               	movwf	(sqrt@grs+3)^(0+128)
  2340  08D7  3000               	movlw	0
  2341  08D8  00B1               	movwf	(sqrt@grs+2)^(0+128)
  2342  08D9  3000               	movlw	0
  2343  08DA  00B0               	movwf	(sqrt@grs+1)^(0+128)
  2344  08DB  3000               	movlw	0
  2345  08DC  00AF               	movwf	sqrt@grs^(0+128)
  2346  08DD  082E               	movf	sqrt@p^(0+128),w
  2347  08DE  1903               	btfsc	3,2
  2348  08DF  28E9               	goto	l2644
  2349  08E0  3001               	movlw	1
  2350  08E1  00A4               	movwf	??_sqrt^(0+128)
  2351  08E2                     u3595:	
  2352  08E2  1003               	clrc
  2353  08E3  0DAA               	rlf	sqrt@tfrac^(0+128),f
  2354  08E4  0DAB               	rlf	(sqrt@tfrac+1)^(0+128),f
  2355  08E5  0DAC               	rlf	(sqrt@tfrac+2)^(0+128),f
  2356  08E6  0DAD               	rlf	(sqrt@tfrac+3)^(0+128),f
  2357  08E7  0BA4               	decfsz	??_sqrt^(0+128),f
  2358  08E8  28E2               	goto	u3595
  2359  08E9                     l2644:	
  2360  08E9  01A9               	clrf	sqrt@i^(0+128)
  2361  08EA                     l2652:	
  2362  08EA  3019               	movlw	25
  2363  08EB  0229               	subwf	sqrt@i^(0+128),w
  2364  08EC  1803               	btfsc	3,0
  2365  08ED  2960               	goto	l2654
  2366  08EE  082F               	movf	sqrt@grs^(0+128),w
  2367  08EF  04B9               	iorwf	sqrt@frac^(0+128),f
  2368  08F0  0830               	movf	(sqrt@grs+1)^(0+128),w
  2369  08F1  04BA               	iorwf	(sqrt@frac+1)^(0+128),f
  2370  08F2  0831               	movf	(sqrt@grs+2)^(0+128),w
  2371  08F3  04BB               	iorwf	(sqrt@frac+2)^(0+128),f
  2372  08F4  0832               	movf	(sqrt@grs+3)^(0+128),w
  2373  08F5  04BC               	iorwf	(sqrt@frac+3)^(0+128),f
  2374  08F6  083C               	movf	(sqrt@frac+3)^(0+128),w
  2375  08F7  022D               	subwf	(sqrt@tfrac+3)^(0+128),w
  2376  08F8  1D03               	skipz
  2377  08F9  2904               	goto	u3605
  2378  08FA  083B               	movf	(sqrt@frac+2)^(0+128),w
  2379  08FB  022C               	subwf	(sqrt@tfrac+2)^(0+128),w
  2380  08FC  1D03               	skipz
  2381  08FD  2904               	goto	u3605
  2382  08FE  083A               	movf	(sqrt@frac+1)^(0+128),w
  2383  08FF  022B               	subwf	(sqrt@tfrac+1)^(0+128),w
  2384  0900  1D03               	skipz
  2385  0901  2904               	goto	u3605
  2386  0902  0839               	movf	sqrt@frac^(0+128),w
  2387  0903  022A               	subwf	sqrt@tfrac^(0+128),w
  2388  0904                     u3605:	
  2389  0904  1C03               	skipc
  2390  0905  2929               	goto	l2650
  2391  0906  0839               	movf	sqrt@frac^(0+128),w
  2392  0907  02AA               	subwf	sqrt@tfrac^(0+128),f
  2393  0908  083A               	movf	(sqrt@frac+1)^(0+128),w
  2394  0909  1C03               	skipc
  2395  090A  0F3A               	incfsz	(sqrt@frac+1)^(0+128),w
  2396  090B  02AB               	subwf	(sqrt@tfrac+1)^(0+128),f
  2397  090C  083B               	movf	(sqrt@frac+2)^(0+128),w
  2398  090D  1C03               	skipc
  2399  090E  0F3B               	incfsz	(sqrt@frac+2)^(0+128),w
  2400  090F  02AC               	subwf	(sqrt@tfrac+2)^(0+128),f
  2401  0910  083C               	movf	(sqrt@frac+3)^(0+128),w
  2402  0911  1C03               	skipc
  2403  0912  0F3C               	incfsz	(sqrt@frac+3)^(0+128),w
  2404  0913  02AD               	subwf	(sqrt@tfrac+3)^(0+128),f
  2405  0914  082F               	movf	sqrt@grs^(0+128),w
  2406  0915  07B9               	addwf	sqrt@frac^(0+128),f
  2407  0916  0830               	movf	(sqrt@grs+1)^(0+128),w
  2408  0917  1103               	clrz
  2409  0918  1803               	skipnc
  2410  0919  3E01               	addlw	1
  2411  091A  1D03               	btfss	3,2
  2412  091B  07BA               	addwf	(sqrt@frac+1)^(0+128),f
  2413  091C  0831               	movf	(sqrt@grs+2)^(0+128),w
  2414  091D  1103               	clrz
  2415  091E  1803               	skipnc
  2416  091F  3E01               	addlw	1
  2417  0920  1D03               	btfss	3,2
  2418  0921  07BB               	addwf	(sqrt@frac+2)^(0+128),f
  2419  0922  0832               	movf	(sqrt@grs+3)^(0+128),w
  2420  0923  1103               	clrz
  2421  0924  1803               	skipnc
  2422  0925  3E01               	addlw	1
  2423  0926  1D03               	btfss	3,2
  2424  0927  07BC               	addwf	(sqrt@frac+3)^(0+128),f
  2425  0928  2939               	goto	l646
  2426  0929                     l2650:	
  2427  0929  092F               	comf	sqrt@grs^(0+128),w
  2428  092A  00A4               	movwf	??_sqrt^(0+128)
  2429  092B  0930               	comf	(sqrt@grs+1)^(0+128),w
  2430  092C  00A5               	movwf	(??_sqrt^(0+128)+1)
  2431  092D  0931               	comf	(sqrt@grs+2)^(0+128),w
  2432  092E  00A6               	movwf	(??_sqrt^(0+128)+2)
  2433  092F  0932               	comf	(sqrt@grs+3)^(0+128),w
  2434  0930  00A7               	movwf	(??_sqrt^(0+128)+3)
  2435  0931  0824               	movf	??_sqrt^(0+128),w
  2436  0932  05B9               	andwf	sqrt@frac^(0+128),f
  2437  0933  0825               	movf	(??_sqrt+1)^(0+128),w
  2438  0934  05BA               	andwf	(sqrt@frac+1)^(0+128),f
  2439  0935  0826               	movf	(??_sqrt+2)^(0+128),w
  2440  0936  05BB               	andwf	(sqrt@frac+2)^(0+128),f
  2441  0937  0827               	movf	(??_sqrt+3)^(0+128),w
  2442  0938  05BC               	andwf	(sqrt@frac+3)^(0+128),f
  2443  0939                     l646:	
  2444  0939  082F               	movf	sqrt@grs^(0+128),w
  2445  093A  00A4               	movwf	??_sqrt^(0+128)
  2446  093B  0830               	movf	(sqrt@grs+1)^(0+128),w
  2447  093C  00A5               	movwf	(??_sqrt^(0+128)+1)
  2448  093D  0831               	movf	(sqrt@grs+2)^(0+128),w
  2449  093E  00A6               	movwf	(??_sqrt^(0+128)+2)
  2450  093F  0832               	movf	(sqrt@grs+3)^(0+128),w
  2451  0940  00A7               	movwf	(??_sqrt^(0+128)+3)
  2452  0941  3001               	movlw	1
  2453  0942                     u3625:	
  2454  0942  1003               	clrc
  2455  0943  0CA7               	rrf	(??_sqrt^(0+128)+3),f
  2456  0944  0CA6               	rrf	(??_sqrt^(0+128)+2),f
  2457  0945  0CA5               	rrf	(??_sqrt^(0+128)+1),f
  2458  0946  0CA4               	rrf	??_sqrt^(0+128),f
  2459  0947  3EFF               	addlw	-1
  2460  0948  1D03               	skipz
  2461  0949  2942               	goto	u3625
  2462  094A  0827               	movf	(??_sqrt+3)^(0+128),w
  2463  094B  00B2               	movwf	(sqrt@grs+3)^(0+128)
  2464  094C  0826               	movf	(??_sqrt+2)^(0+128),w
  2465  094D  00B1               	movwf	(sqrt@grs+2)^(0+128)
  2466  094E  0825               	movf	(??_sqrt+1)^(0+128),w
  2467  094F  00B0               	movwf	(sqrt@grs+1)^(0+128)
  2468  0950  0824               	movf	??_sqrt^(0+128),w
  2469  0951  00AF               	movwf	sqrt@grs^(0+128)
  2470  0952  3001               	movlw	1
  2471  0953  00A4               	movwf	??_sqrt^(0+128)
  2472  0954                     u3635:	
  2473  0954  1003               	clrc
  2474  0955  0DAA               	rlf	sqrt@tfrac^(0+128),f
  2475  0956  0DAB               	rlf	(sqrt@tfrac+1)^(0+128),f
  2476  0957  0DAC               	rlf	(sqrt@tfrac+2)^(0+128),f
  2477  0958  0DAD               	rlf	(sqrt@tfrac+3)^(0+128),f
  2478  0959  0BA4               	decfsz	??_sqrt^(0+128),f
  2479  095A  2954               	goto	u3635
  2480  095B  3001               	movlw	1
  2481  095C  00A4               	movwf	??_sqrt^(0+128)
  2482  095D  0824               	movf	??_sqrt^(0+128),w
  2483  095E  07A9               	addwf	sqrt@i^(0+128),f
  2484  095F  28EA               	goto	l2652
  2485  0960                     l2654:	
  2486  0960  0839               	movf	sqrt@frac^(0+128),w
  2487  0961  00A4               	movwf	??_sqrt^(0+128)
  2488  0962  083A               	movf	(sqrt@frac+1)^(0+128),w
  2489  0963  00A5               	movwf	(??_sqrt^(0+128)+1)
  2490  0964  083B               	movf	(sqrt@frac+2)^(0+128),w
  2491  0965  00A6               	movwf	(??_sqrt^(0+128)+2)
  2492  0966  083C               	movf	(sqrt@frac+3)^(0+128),w
  2493  0967  00A7               	movwf	(??_sqrt^(0+128)+3)
  2494  0968  3001               	movlw	1
  2495  0969                     u3655:	
  2496  0969  1003               	clrc
  2497  096A  0CA7               	rrf	(??_sqrt^(0+128)+3),f
  2498  096B  0CA6               	rrf	(??_sqrt^(0+128)+2),f
  2499  096C  0CA5               	rrf	(??_sqrt^(0+128)+1),f
  2500  096D  0CA4               	rrf	??_sqrt^(0+128),f
  2501  096E  3EFF               	addlw	-1
  2502  096F  1D03               	skipz
  2503  0970  2969               	goto	u3655
  2504  0971  0827               	movf	(??_sqrt+3)^(0+128),w
  2505  0972  00BC               	movwf	(sqrt@frac+3)^(0+128)
  2506  0973  0826               	movf	(??_sqrt+2)^(0+128),w
  2507  0974  00BB               	movwf	(sqrt@frac+2)^(0+128)
  2508  0975  0825               	movf	(??_sqrt+1)^(0+128),w
  2509  0976  00BA               	movwf	(sqrt@frac+1)^(0+128)
  2510  0977  0824               	movf	??_sqrt^(0+128),w
  2511  0978  00B9               	movwf	sqrt@frac^(0+128)
  2512  0979  3001               	movlw	1
  2513  097A  0539               	andwf	sqrt@frac^(0+128),w
  2514  097B  00AF               	movwf	sqrt@grs^(0+128)
  2515  097C  3000               	movlw	0
  2516  097D  053A               	andwf	(sqrt@frac+1)^(0+128),w
  2517  097E  00B0               	movwf	(sqrt@grs+1)^(0+128)
  2518  097F  3000               	movlw	0
  2519  0980  053B               	andwf	(sqrt@frac+2)^(0+128),w
  2520  0981  00B1               	movwf	(sqrt@grs+2)^(0+128)
  2521  0982  3000               	movlw	0
  2522  0983  053C               	andwf	(sqrt@frac+3)^(0+128),w
  2523  0984  00B2               	movwf	(sqrt@grs+3)^(0+128)
  2524  0985  0839               	movf	sqrt@frac^(0+128),w
  2525  0986  00A4               	movwf	??_sqrt^(0+128)
  2526  0987  083A               	movf	(sqrt@frac+1)^(0+128),w
  2527  0988  00A5               	movwf	(??_sqrt^(0+128)+1)
  2528  0989  083B               	movf	(sqrt@frac+2)^(0+128),w
  2529  098A  00A6               	movwf	(??_sqrt^(0+128)+2)
  2530  098B  083C               	movf	(sqrt@frac+3)^(0+128),w
  2531  098C  00A7               	movwf	(??_sqrt^(0+128)+3)
  2532  098D  3001               	movlw	1
  2533  098E                     u3665:	
  2534  098E  1003               	clrc
  2535  098F  0CA7               	rrf	(??_sqrt^(0+128)+3),f
  2536  0990  0CA6               	rrf	(??_sqrt^(0+128)+2),f
  2537  0991  0CA5               	rrf	(??_sqrt^(0+128)+1),f
  2538  0992  0CA4               	rrf	??_sqrt^(0+128),f
  2539  0993  3EFF               	addlw	-1
  2540  0994  1D03               	skipz
  2541  0995  298E               	goto	u3665
  2542  0996  0827               	movf	(??_sqrt+3)^(0+128),w
  2543  0997  00BC               	movwf	(sqrt@frac+3)^(0+128)
  2544  0998  0826               	movf	(??_sqrt+2)^(0+128),w
  2545  0999  00BB               	movwf	(sqrt@frac+2)^(0+128)
  2546  099A  0825               	movf	(??_sqrt+1)^(0+128),w
  2547  099B  00BA               	movwf	(sqrt@frac+1)^(0+128)
  2548  099C  0824               	movf	??_sqrt^(0+128),w
  2549  099D  00B9               	movwf	sqrt@frac^(0+128)
  2550  099E  082F               	movf	sqrt@grs^(0+128),w
  2551  099F  07B9               	addwf	sqrt@frac^(0+128),f
  2552  09A0  0830               	movf	(sqrt@grs+1)^(0+128),w
  2553  09A1  1103               	clrz
  2554  09A2  1803               	skipnc
  2555  09A3  3E01               	addlw	1
  2556  09A4  1D03               	btfss	3,2
  2557  09A5  07BA               	addwf	(sqrt@frac+1)^(0+128),f
  2558  09A6  0831               	movf	(sqrt@grs+2)^(0+128),w
  2559  09A7  1103               	clrz
  2560  09A8  1803               	skipnc
  2561  09A9  3E01               	addlw	1
  2562  09AA  1D03               	btfss	3,2
  2563  09AB  07BB               	addwf	(sqrt@frac+2)^(0+128),f
  2564  09AC  0832               	movf	(sqrt@grs+3)^(0+128),w
  2565  09AD  1103               	clrz
  2566  09AE  1803               	skipnc
  2567  09AF  3E01               	addlw	1
  2568  09B0  1D03               	btfss	3,2
  2569  09B1  07BC               	addwf	(sqrt@frac+3)^(0+128),f
  2570  09B2  1C3C               	btfss	(sqrt@frac+3)^(0+128),0
  2571  09B3  29D3               	goto	l2666
  2572  09B4  0839               	movf	sqrt@frac^(0+128),w
  2573  09B5  00A4               	movwf	??_sqrt^(0+128)
  2574  09B6  083A               	movf	(sqrt@frac+1)^(0+128),w
  2575  09B7  00A5               	movwf	(??_sqrt^(0+128)+1)
  2576  09B8  083B               	movf	(sqrt@frac+2)^(0+128),w
  2577  09B9  00A6               	movwf	(??_sqrt^(0+128)+2)
  2578  09BA  083C               	movf	(sqrt@frac+3)^(0+128),w
  2579  09BB  00A7               	movwf	(??_sqrt^(0+128)+3)
  2580  09BC  3001               	movlw	1
  2581  09BD                     u3695:	
  2582  09BD  1003               	clrc
  2583  09BE  0CA7               	rrf	(??_sqrt^(0+128)+3),f
  2584  09BF  0CA6               	rrf	(??_sqrt^(0+128)+2),f
  2585  09C0  0CA5               	rrf	(??_sqrt^(0+128)+1),f
  2586  09C1  0CA4               	rrf	??_sqrt^(0+128),f
  2587  09C2  3EFF               	addlw	-1
  2588  09C3  1D03               	skipz
  2589  09C4  29BD               	goto	u3695
  2590  09C5  0827               	movf	(??_sqrt+3)^(0+128),w
  2591  09C6  00BC               	movwf	(sqrt@frac+3)^(0+128)
  2592  09C7  0826               	movf	(??_sqrt+2)^(0+128),w
  2593  09C8  00BB               	movwf	(sqrt@frac+2)^(0+128)
  2594  09C9  0825               	movf	(??_sqrt+1)^(0+128),w
  2595  09CA  00BA               	movwf	(sqrt@frac+1)^(0+128)
  2596  09CB  0824               	movf	??_sqrt^(0+128),w
  2597  09CC  00B9               	movwf	sqrt@frac^(0+128)
  2598  09CD  3001               	movlw	1
  2599  09CE  07B3               	addwf	sqrt@exp^(0+128),f
  2600  09CF  1803               	skipnc
  2601  09D0  0AB4               	incf	(sqrt@exp+1)^(0+128),f
  2602  09D1  3000               	movlw	0
  2603  09D2  07B4               	addwf	(sqrt@exp+1)^(0+128),f
  2604  09D3                     l2666:	
  2605  09D3  30FF               	movlw	255
  2606  09D4  0539               	andwf	sqrt@frac^(0+128),w
  2607  09D5  00B5               	movwf	sqrt@root^(0+128)
  2608  09D6  30FF               	movlw	255
  2609  09D7  053A               	andwf	(sqrt@frac+1)^(0+128),w
  2610  09D8  00B6               	movwf	(sqrt@root+1)^(0+128)
  2611  09D9  307F               	movlw	127
  2612  09DA  053B               	andwf	(sqrt@frac+2)^(0+128),w
  2613  09DB  00B7               	movwf	(sqrt@root+2)^(0+128)
  2614  09DC  3000               	movlw	0
  2615  09DD  053C               	andwf	(sqrt@frac+3)^(0+128),w
  2616  09DE  00B8               	movwf	(sqrt@root+3)^(0+128)
  2617  09DF  0833               	movf	sqrt@exp^(0+128),w
  2618  09E0  00A4               	movwf	??_sqrt^(0+128)
  2619  09E1  0824               	movf	??_sqrt^(0+128),w
  2620  09E2  00AE               	movwf	sqrt@p^(0+128)
  2621  09E3  182E               	btfsc	sqrt@p^(0+128),0
  2622  09E4  17B7               	bsf	(sqrt@root^(0+128)+2),7
  2623  09E5  082E               	movf	sqrt@p^(0+128),w
  2624  09E6  00A4               	movwf	??_sqrt^(0+128)
  2625  09E7  1003               	clrc
  2626  09E8  0C24               	rrf	??_sqrt^(0+128),w
  2627  09E9  00A5               	movwf	(??_sqrt+1)^(0+128)
  2628  09EA  0825               	movf	(??_sqrt+1)^(0+128),w
  2629  09EB  00B8               	movwf	(sqrt@root^(0+128)+3)
  2630  09EC  307F               	movlw	127
  2631  09ED  00A4               	movwf	??_sqrt^(0+128)
  2632  09EE  0824               	movf	??_sqrt^(0+128),w
  2633  09EF  05B8               	andwf	(sqrt@root^(0+128)+3),f
  2634  09F0  0838               	movf	(sqrt@root+3)^(0+128),w
  2635  09F1  00A3               	movwf	(?_sqrt+3)^(0+128)
  2636  09F2  0837               	movf	(sqrt@root+2)^(0+128),w
  2637  09F3  00A2               	movwf	(?_sqrt+2)^(0+128)
  2638  09F4  0836               	movf	(sqrt@root+1)^(0+128),w
  2639  09F5  00A1               	movwf	(?_sqrt+1)^(0+128)
  2640  09F6  0835               	movf	sqrt@root^(0+128),w
  2641  09F7  00A0               	movwf	?_sqrt^(0+128)
  2642  09F8  0008               	return
  2643  09F9                     __end_of_sqrt:	
  2644                           
  2645                           	psect	text4
  2646  1575                     __ptext4:	
  2647 ;; *************** function _atan *****************
  2648 ;; Defined at:
  2649 ;;		line 8 in file "C:\Program Files (x86)\Microchip\xc8\v2.05\pic\sources\c90\common\atan.c"
  2650 ;; Parameters:    Size  Location     Type
  2651 ;;  f               4    9[BANK1 ] unsigned char 
  2652 ;; Auto vars:     Size  Location     Type
  2653 ;;  val             4   26[BANK1 ] unsigned char 
  2654 ;;  val_squared     4   22[BANK1 ] unsigned char 
  2655 ;;  x               4   17[BANK1 ] unsigned char 
  2656 ;;  y               4   13[BANK1 ] unsigned char 
  2657 ;;  recip           1   21[BANK1 ] unsigned char 
  2658 ;; Return value:  Size  Location     Type
  2659 ;;                  4    9[BANK1 ] unsigned char 
  2660 ;; Registers used:
  2661 ;;		wreg, fsr0l, fsr0h, status,2, status,0, btemp+1, pclath, cstack
  2662 ;; Tracked objects:
  2663 ;;		On entry : 0/0
  2664 ;;		On exit  : 0/0
  2665 ;;		Unchanged: 0/0
  2666 ;; Data sizes:     COMMON   BANK0   BANK1   BANK3   BANK2
  2667 ;;      Params:         0       0       4       0       0
  2668 ;;      Locals:         0       0      17       0       0
  2669 ;;      Temps:          1       0       0       0       0
  2670 ;;      Totals:         1       0      21       0       0
  2671 ;;Total ram usage:       22 bytes
  2672 ;; Hardware stack levels used:    1
  2673 ;; Hardware stack levels required when called:    3
  2674 ;; This function calls:
  2675 ;;		___fldiv
  2676 ;;		___fleq
  2677 ;;		___flge
  2678 ;;		___flmul
  2679 ;;		___flneg
  2680 ;;		___flsub
  2681 ;;		_eval_poly
  2682 ;;		_fabs
  2683 ;; This function is called by:
  2684 ;;		_asin
  2685 ;; This function uses a non-reentrant model
  2686 ;;
  2687                           
  2688                           
  2689                           ;psect for function _atan
  2690  1575                     _atan:	
  2691                           
  2692                           ;incstack = 0
  2693                           ; Regs used in _atan: [wreg-fsr0h+status,2+status,0+btemp+1+pclath+cstack]
  2694  1575  1683               	bsf	3,5	;RP0=1, select bank1
  2695  1576  1303               	bcf	3,6	;RP1=0, select bank1
  2696  1577  082C               	movf	(atan@f+3)^(0+128),w
  2697  1578  1283               	bcf	3,5	;RP0=0, select bank0
  2698  1579  1303               	bcf	3,6	;RP1=0, select bank0
  2699  157A  00B7               	movwf	fabs@d+3
  2700  157B  1683               	bsf	3,5	;RP0=1, select bank1
  2701  157C  1303               	bcf	3,6	;RP1=0, select bank1
  2702  157D  082B               	movf	(atan@f+2)^(0+128),w
  2703  157E  1283               	bcf	3,5	;RP0=0, select bank0
  2704  157F  1303               	bcf	3,6	;RP1=0, select bank0
  2705  1580  00B6               	movwf	fabs@d+2
  2706  1581  1683               	bsf	3,5	;RP0=1, select bank1
  2707  1582  1303               	bcf	3,6	;RP1=0, select bank1
  2708  1583  082A               	movf	(atan@f+1)^(0+128),w
  2709  1584  1283               	bcf	3,5	;RP0=0, select bank0
  2710  1585  1303               	bcf	3,6	;RP1=0, select bank0
  2711  1586  00B5               	movwf	fabs@d+1
  2712  1587  1683               	bsf	3,5	;RP0=1, select bank1
  2713  1588  1303               	bcf	3,6	;RP1=0, select bank1
  2714  1589  0829               	movf	atan@f^(0+128),w
  2715  158A  1283               	bcf	3,5	;RP0=0, select bank0
  2716  158B  1303               	bcf	3,6	;RP1=0, select bank0
  2717  158C  00B4               	movwf	fabs@d
  2718  158D  160A  158A  234E  160A  118A  	fcall	_fabs
  2719  1592  1283               	bcf	3,5	;RP0=0, select bank0
  2720  1593  1303               	bcf	3,6	;RP1=0, select bank0
  2721  1594  0837               	movf	?_fabs+3,w
  2722  1595  1683               	bsf	3,5	;RP0=1, select bank1
  2723  1596  1303               	bcf	3,6	;RP1=0, select bank1
  2724  1597  00BD               	movwf	(atan@val+3)^(0+128)
  2725  1598  1283               	bcf	3,5	;RP0=0, select bank0
  2726  1599  1303               	bcf	3,6	;RP1=0, select bank0
  2727  159A  0836               	movf	?_fabs+2,w
  2728  159B  1683               	bsf	3,5	;RP0=1, select bank1
  2729  159C  1303               	bcf	3,6	;RP1=0, select bank1
  2730  159D  00BC               	movwf	(atan@val+2)^(0+128)
  2731  159E  1283               	bcf	3,5	;RP0=0, select bank0
  2732  159F  1303               	bcf	3,6	;RP1=0, select bank0
  2733  15A0  0835               	movf	?_fabs+1,w
  2734  15A1  1683               	bsf	3,5	;RP0=1, select bank1
  2735  15A2  1303               	bcf	3,6	;RP1=0, select bank1
  2736  15A3  00BB               	movwf	(atan@val+1)^(0+128)
  2737  15A4  1283               	bcf	3,5	;RP0=0, select bank0
  2738  15A5  1303               	bcf	3,6	;RP1=0, select bank0
  2739  15A6  0834               	movf	?_fabs,w
  2740  15A7  1683               	bsf	3,5	;RP0=1, select bank1
  2741  15A8  1303               	bcf	3,6	;RP1=0, select bank1
  2742  15A9  00BA               	movwf	atan@val^(0+128)
  2743  15AA  083D               	movf	(atan@val+3)^(0+128),w
  2744  15AB  1283               	bcf	3,5	;RP0=0, select bank0
  2745  15AC  1303               	bcf	3,6	;RP1=0, select bank0
  2746  15AD  00BB               	movwf	___fleq@ff1+3
  2747  15AE  1683               	bsf	3,5	;RP0=1, select bank1
  2748  15AF  1303               	bcf	3,6	;RP1=0, select bank1
  2749  15B0  083C               	movf	(atan@val+2)^(0+128),w
  2750  15B1  1283               	bcf	3,5	;RP0=0, select bank0
  2751  15B2  1303               	bcf	3,6	;RP1=0, select bank0
  2752  15B3  00BA               	movwf	___fleq@ff1+2
  2753  15B4  1683               	bsf	3,5	;RP0=1, select bank1
  2754  15B5  1303               	bcf	3,6	;RP1=0, select bank1
  2755  15B6  083B               	movf	(atan@val+1)^(0+128),w
  2756  15B7  1283               	bcf	3,5	;RP0=0, select bank0
  2757  15B8  1303               	bcf	3,6	;RP1=0, select bank0
  2758  15B9  00B9               	movwf	___fleq@ff1+1
  2759  15BA  1683               	bsf	3,5	;RP0=1, select bank1
  2760  15BB  1303               	bcf	3,6	;RP1=0, select bank1
  2761  15BC  083A               	movf	atan@val^(0+128),w
  2762  15BD  1283               	bcf	3,5	;RP0=0, select bank0
  2763  15BE  1303               	bcf	3,6	;RP1=0, select bank0
  2764  15BF  00B8               	movwf	___fleq@ff1
  2765  15C0  3000               	movlw	0
  2766  15C1  00BF               	movwf	___fleq@ff2+3
  2767  15C2  3000               	movlw	0
  2768  15C3  00BE               	movwf	___fleq@ff2+2
  2769  15C4  3000               	movlw	0
  2770  15C5  00BD               	movwf	___fleq@ff2+1
  2771  15C6  3000               	movlw	0
  2772  15C7  00BC               	movwf	___fleq@ff2
  2773  15C8  160A  158A  2405  160A  118A  	fcall	___fleq
  2774  15CD  1C03               	btfss	3,0
  2775  15CE  2DDA               	goto	l2734
  2776  15CF  3000               	movlw	0
  2777  15D0  1683               	bsf	3,5	;RP0=1, select bank1
  2778  15D1  1303               	bcf	3,6	;RP1=0, select bank1
  2779  15D2  00AC               	movwf	(?_atan+3)^(0+128)
  2780  15D3  3000               	movlw	0
  2781  15D4  00AB               	movwf	(?_atan+2)^(0+128)
  2782  15D5  3000               	movlw	0
  2783  15D6  00AA               	movwf	(?_atan+1)^(0+128)
  2784  15D7  3000               	movlw	0
  2785  15D8  00A9               	movwf	?_atan^(0+128)
  2786  15D9  0008               	return
  2787  15DA                     l2734:	
  2788  15DA  303F               	movlw	63
  2789  15DB  00F3               	movwf	___flge@ff1+3
  2790  15DC  3080               	movlw	128
  2791  15DD  00F2               	movwf	___flge@ff1+2
  2792  15DE  3000               	movlw	0
  2793  15DF  00F1               	movwf	___flge@ff1+1
  2794  15E0  3000               	movlw	0
  2795  15E1  00F0               	movwf	___flge@ff1
  2796  15E2  1683               	bsf	3,5	;RP0=1, select bank1
  2797  15E3  1303               	bcf	3,6	;RP1=0, select bank1
  2798  15E4  083D               	movf	(atan@val+3)^(0+128),w
  2799  15E5  00F7               	movwf	___flge@ff2+3
  2800  15E6  083C               	movf	(atan@val+2)^(0+128),w
  2801  15E7  00F6               	movwf	___flge@ff2+2
  2802  15E8  083B               	movf	(atan@val+1)^(0+128),w
  2803  15E9  00F5               	movwf	___flge@ff2+1
  2804  15EA  083A               	movf	atan@val^(0+128),w
  2805  15EB  00F4               	movwf	___flge@ff2
  2806  15EC  160A  158A  25E8  160A  118A  	fcall	___flge
  2807  15F1  1803               	btfsc	3,0
  2808  15F2  2DF5               	goto	u3850
  2809  15F3  3001               	movlw	1
  2810  15F4  2DF6               	goto	u3860
  2811  15F5                     u3850:	
  2812  15F5  3000               	movlw	0
  2813  15F6                     u3860:	
  2814  15F6  00FD               	movwf	??_atan
  2815  15F7  087D               	movf	??_atan,w
  2816  15F8  1683               	bsf	3,5	;RP0=1, select bank1
  2817  15F9  1303               	bcf	3,6	;RP1=0, select bank1
  2818  15FA  00B5               	movwf	atan@recip^(0+128)
  2819  15FB  0835               	movf	atan@recip^(0+128),w
  2820  15FC  1903               	btfsc	3,2
  2821  15FD  2E39               	goto	l719
  2822  15FE  083D               	movf	(atan@val+3)^(0+128),w
  2823  15FF  1283               	bcf	3,5	;RP0=0, select bank0
  2824  1600  1303               	bcf	3,6	;RP1=0, select bank0
  2825  1601  00B7               	movwf	___fldiv@a+3
  2826  1602  1683               	bsf	3,5	;RP0=1, select bank1
  2827  1603  1303               	bcf	3,6	;RP1=0, select bank1
  2828  1604  083C               	movf	(atan@val+2)^(0+128),w
  2829  1605  1283               	bcf	3,5	;RP0=0, select bank0
  2830  1606  1303               	bcf	3,6	;RP1=0, select bank0
  2831  1607  00B6               	movwf	___fldiv@a+2
  2832  1608  1683               	bsf	3,5	;RP0=1, select bank1
  2833  1609  1303               	bcf	3,6	;RP1=0, select bank1
  2834  160A  083B               	movf	(atan@val+1)^(0+128),w
  2835  160B  1283               	bcf	3,5	;RP0=0, select bank0
  2836  160C  1303               	bcf	3,6	;RP1=0, select bank0
  2837  160D  00B5               	movwf	___fldiv@a+1
  2838  160E  1683               	bsf	3,5	;RP0=1, select bank1
  2839  160F  1303               	bcf	3,6	;RP1=0, select bank1
  2840  1610  083A               	movf	atan@val^(0+128),w
  2841  1611  1283               	bcf	3,5	;RP0=0, select bank0
  2842  1612  1303               	bcf	3,6	;RP1=0, select bank0
  2843  1613  00B4               	movwf	___fldiv@a
  2844  1614  303F               	movlw	63
  2845  1615  00BB               	movwf	___fldiv@b+3
  2846  1616  3080               	movlw	128
  2847  1617  00BA               	movwf	___fldiv@b+2
  2848  1618  3000               	movlw	0
  2849  1619  00B9               	movwf	___fldiv@b+1
  2850  161A  3000               	movlw	0
  2851  161B  00B8               	movwf	___fldiv@b
  2852  161C  160A  118A  219B  160A  118A  	fcall	___fldiv
  2853  1621  1283               	bcf	3,5	;RP0=0, select bank0
  2854  1622  1303               	bcf	3,6	;RP1=0, select bank0
  2855  1623  0837               	movf	?___fldiv+3,w
  2856  1624  1683               	bsf	3,5	;RP0=1, select bank1
  2857  1625  1303               	bcf	3,6	;RP1=0, select bank1
  2858  1626  00BD               	movwf	(atan@val+3)^(0+128)
  2859  1627  1283               	bcf	3,5	;RP0=0, select bank0
  2860  1628  1303               	bcf	3,6	;RP1=0, select bank0
  2861  1629  0836               	movf	?___fldiv+2,w
  2862  162A  1683               	bsf	3,5	;RP0=1, select bank1
  2863  162B  1303               	bcf	3,6	;RP1=0, select bank1
  2864  162C  00BC               	movwf	(atan@val+2)^(0+128)
  2865  162D  1283               	bcf	3,5	;RP0=0, select bank0
  2866  162E  1303               	bcf	3,6	;RP1=0, select bank0
  2867  162F  0835               	movf	?___fldiv+1,w
  2868  1630  1683               	bsf	3,5	;RP0=1, select bank1
  2869  1631  1303               	bcf	3,6	;RP1=0, select bank1
  2870  1632  00BB               	movwf	(atan@val+1)^(0+128)
  2871  1633  1283               	bcf	3,5	;RP0=0, select bank0
  2872  1634  1303               	bcf	3,6	;RP1=0, select bank0
  2873  1635  0834               	movf	?___fldiv,w
  2874  1636  1683               	bsf	3,5	;RP0=1, select bank1
  2875  1637  1303               	bcf	3,6	;RP1=0, select bank1
  2876  1638  00BA               	movwf	atan@val^(0+128)
  2877  1639                     l719:	
  2878  1639  083D               	movf	(atan@val+3)^(0+128),w
  2879  163A  1283               	bcf	3,5	;RP0=0, select bank0
  2880  163B  1303               	bcf	3,6	;RP1=0, select bank0
  2881  163C  00D1               	movwf	___flmul@b+3
  2882  163D  1683               	bsf	3,5	;RP0=1, select bank1
  2883  163E  1303               	bcf	3,6	;RP1=0, select bank1
  2884  163F  083C               	movf	(atan@val+2)^(0+128),w
  2885  1640  1283               	bcf	3,5	;RP0=0, select bank0
  2886  1641  1303               	bcf	3,6	;RP1=0, select bank0
  2887  1642  00D0               	movwf	___flmul@b+2
  2888  1643  1683               	bsf	3,5	;RP0=1, select bank1
  2889  1644  1303               	bcf	3,6	;RP1=0, select bank1
  2890  1645  083B               	movf	(atan@val+1)^(0+128),w
  2891  1646  1283               	bcf	3,5	;RP0=0, select bank0
  2892  1647  1303               	bcf	3,6	;RP1=0, select bank0
  2893  1648  00CF               	movwf	___flmul@b+1
  2894  1649  1683               	bsf	3,5	;RP0=1, select bank1
  2895  164A  1303               	bcf	3,6	;RP1=0, select bank1
  2896  164B  083A               	movf	atan@val^(0+128),w
  2897  164C  1283               	bcf	3,5	;RP0=0, select bank0
  2898  164D  1303               	bcf	3,6	;RP1=0, select bank0
  2899  164E  00CE               	movwf	___flmul@b
  2900  164F  1683               	bsf	3,5	;RP0=1, select bank1
  2901  1650  1303               	bcf	3,6	;RP1=0, select bank1
  2902  1651  083D               	movf	(atan@val+3)^(0+128),w
  2903  1652  1283               	bcf	3,5	;RP0=0, select bank0
  2904  1653  1303               	bcf	3,6	;RP1=0, select bank0
  2905  1654  00D5               	movwf	___flmul@a+3
  2906  1655  1683               	bsf	3,5	;RP0=1, select bank1
  2907  1656  1303               	bcf	3,6	;RP1=0, select bank1
  2908  1657  083C               	movf	(atan@val+2)^(0+128),w
  2909  1658  1283               	bcf	3,5	;RP0=0, select bank0
  2910  1659  1303               	bcf	3,6	;RP1=0, select bank0
  2911  165A  00D4               	movwf	___flmul@a+2
  2912  165B  1683               	bsf	3,5	;RP0=1, select bank1
  2913  165C  1303               	bcf	3,6	;RP1=0, select bank1
  2914  165D  083B               	movf	(atan@val+1)^(0+128),w
  2915  165E  1283               	bcf	3,5	;RP0=0, select bank0
  2916  165F  1303               	bcf	3,6	;RP1=0, select bank0
  2917  1660  00D3               	movwf	___flmul@a+1
  2918  1661  1683               	bsf	3,5	;RP0=1, select bank1
  2919  1662  1303               	bcf	3,6	;RP1=0, select bank1
  2920  1663  083A               	movf	atan@val^(0+128),w
  2921  1664  1283               	bcf	3,5	;RP0=0, select bank0
  2922  1665  1303               	bcf	3,6	;RP1=0, select bank0
  2923  1666  00D2               	movwf	___flmul@a
  2924  1667  120A  158A  24EB  160A  118A  	fcall	___flmul
  2925  166C  1283               	bcf	3,5	;RP0=0, select bank0
  2926  166D  1303               	bcf	3,6	;RP1=0, select bank0
  2927  166E  0851               	movf	?___flmul+3,w
  2928  166F  1683               	bsf	3,5	;RP0=1, select bank1
  2929  1670  1303               	bcf	3,6	;RP1=0, select bank1
  2930  1671  00B9               	movwf	(atan@val_squared+3)^(0+128)
  2931  1672  1283               	bcf	3,5	;RP0=0, select bank0
  2932  1673  1303               	bcf	3,6	;RP1=0, select bank0
  2933  1674  0850               	movf	?___flmul+2,w
  2934  1675  1683               	bsf	3,5	;RP0=1, select bank1
  2935  1676  1303               	bcf	3,6	;RP1=0, select bank1
  2936  1677  00B8               	movwf	(atan@val_squared+2)^(0+128)
  2937  1678  1283               	bcf	3,5	;RP0=0, select bank0
  2938  1679  1303               	bcf	3,6	;RP1=0, select bank0
  2939  167A  084F               	movf	?___flmul+1,w
  2940  167B  1683               	bsf	3,5	;RP0=1, select bank1
  2941  167C  1303               	bcf	3,6	;RP1=0, select bank1
  2942  167D  00B7               	movwf	(atan@val_squared+1)^(0+128)
  2943  167E  1283               	bcf	3,5	;RP0=0, select bank0
  2944  167F  1303               	bcf	3,6	;RP1=0, select bank0
  2945  1680  084E               	movf	?___flmul,w
  2946  1681  1683               	bsf	3,5	;RP0=1, select bank1
  2947  1682  1303               	bcf	3,6	;RP1=0, select bank1
  2948  1683  00B6               	movwf	atan@val_squared^(0+128)
  2949  1684  0839               	movf	(atan@val_squared+3)^(0+128),w
  2950  1685  1283               	bcf	3,5	;RP0=0, select bank0
  2951  1686  1303               	bcf	3,6	;RP1=0, select bank0
  2952  1687  00EB               	movwf	eval_poly@x+3
  2953  1688  1683               	bsf	3,5	;RP0=1, select bank1
  2954  1689  1303               	bcf	3,6	;RP1=0, select bank1
  2955  168A  0838               	movf	(atan@val_squared+2)^(0+128),w
  2956  168B  1283               	bcf	3,5	;RP0=0, select bank0
  2957  168C  1303               	bcf	3,6	;RP1=0, select bank0
  2958  168D  00EA               	movwf	eval_poly@x+2
  2959  168E  1683               	bsf	3,5	;RP0=1, select bank1
  2960  168F  1303               	bcf	3,6	;RP1=0, select bank1
  2961  1690  0837               	movf	(atan@val_squared+1)^(0+128),w
  2962  1691  1283               	bcf	3,5	;RP0=0, select bank0
  2963  1692  1303               	bcf	3,6	;RP1=0, select bank0
  2964  1693  00E9               	movwf	eval_poly@x+1
  2965  1694  1683               	bsf	3,5	;RP0=1, select bank1
  2966  1695  1303               	bcf	3,6	;RP1=0, select bank1
  2967  1696  0836               	movf	atan@val_squared^(0+128),w
  2968  1697  1283               	bcf	3,5	;RP0=0, select bank0
  2969  1698  1303               	bcf	3,6	;RP1=0, select bank0
  2970  1699  00E8               	movwf	eval_poly@x
  2971  169A  3023               	movlw	(low ((atan@coeff_b-__stringbase)| (0+32768)))& (0+255)
  2972  169B  00FD               	movwf	??_atan
  2973  169C  087D               	movf	??_atan,w
  2974  169D  00EC               	movwf	eval_poly@d
  2975  169E  3004               	movlw	4
  2976  169F  00ED               	movwf	eval_poly@n
  2977  16A0  3000               	movlw	0
  2978  16A1  00EE               	movwf	eval_poly@n+1
  2979  16A2  160A  118A  20B6  160A  118A  	fcall	_eval_poly
  2980  16A7  1283               	bcf	3,5	;RP0=0, select bank0
  2981  16A8  1303               	bcf	3,6	;RP1=0, select bank0
  2982  16A9  086B               	movf	?_eval_poly+3,w
  2983  16AA  1683               	bsf	3,5	;RP0=1, select bank1
  2984  16AB  1303               	bcf	3,6	;RP1=0, select bank1
  2985  16AC  00B0               	movwf	(atan@y+3)^(0+128)
  2986  16AD  1283               	bcf	3,5	;RP0=0, select bank0
  2987  16AE  1303               	bcf	3,6	;RP1=0, select bank0
  2988  16AF  086A               	movf	?_eval_poly+2,w
  2989  16B0  1683               	bsf	3,5	;RP0=1, select bank1
  2990  16B1  1303               	bcf	3,6	;RP1=0, select bank1
  2991  16B2  00AF               	movwf	(atan@y+2)^(0+128)
  2992  16B3  1283               	bcf	3,5	;RP0=0, select bank0
  2993  16B4  1303               	bcf	3,6	;RP1=0, select bank0
  2994  16B5  0869               	movf	?_eval_poly+1,w
  2995  16B6  1683               	bsf	3,5	;RP0=1, select bank1
  2996  16B7  1303               	bcf	3,6	;RP1=0, select bank1
  2997  16B8  00AE               	movwf	(atan@y+1)^(0+128)
  2998  16B9  1283               	bcf	3,5	;RP0=0, select bank0
  2999  16BA  1303               	bcf	3,6	;RP1=0, select bank0
  3000  16BB  0868               	movf	?_eval_poly,w
  3001  16BC  1683               	bsf	3,5	;RP0=1, select bank1
  3002  16BD  1303               	bcf	3,6	;RP1=0, select bank1
  3003  16BE  00AD               	movwf	atan@y^(0+128)
  3004  16BF  0839               	movf	(atan@val_squared+3)^(0+128),w
  3005  16C0  1283               	bcf	3,5	;RP0=0, select bank0
  3006  16C1  1303               	bcf	3,6	;RP1=0, select bank0
  3007  16C2  00EB               	movwf	eval_poly@x+3
  3008  16C3  1683               	bsf	3,5	;RP0=1, select bank1
  3009  16C4  1303               	bcf	3,6	;RP1=0, select bank1
  3010  16C5  0838               	movf	(atan@val_squared+2)^(0+128),w
  3011  16C6  1283               	bcf	3,5	;RP0=0, select bank0
  3012  16C7  1303               	bcf	3,6	;RP1=0, select bank0
  3013  16C8  00EA               	movwf	eval_poly@x+2
  3014  16C9  1683               	bsf	3,5	;RP0=1, select bank1
  3015  16CA  1303               	bcf	3,6	;RP1=0, select bank1
  3016  16CB  0837               	movf	(atan@val_squared+1)^(0+128),w
  3017  16CC  1283               	bcf	3,5	;RP0=0, select bank0
  3018  16CD  1303               	bcf	3,6	;RP1=0, select bank0
  3019  16CE  00E9               	movwf	eval_poly@x+1
  3020  16CF  1683               	bsf	3,5	;RP0=1, select bank1
  3021  16D0  1303               	bcf	3,6	;RP1=0, select bank1
  3022  16D1  0836               	movf	atan@val_squared^(0+128),w
  3023  16D2  1283               	bcf	3,5	;RP0=0, select bank0
  3024  16D3  1303               	bcf	3,6	;RP1=0, select bank0
  3025  16D4  00E8               	movwf	eval_poly@x
  3026  16D5  300B               	movlw	(low ((atan@coeff_a-__stringbase)| (0+32768)))& (0+255)
  3027  16D6  00FD               	movwf	??_atan
  3028  16D7  087D               	movf	??_atan,w
  3029  16D8  00EC               	movwf	eval_poly@d
  3030  16D9  3005               	movlw	5
  3031  16DA  00ED               	movwf	eval_poly@n
  3032  16DB  3000               	movlw	0
  3033  16DC  00EE               	movwf	eval_poly@n+1
  3034  16DD  160A  118A  20B6  160A  118A  	fcall	_eval_poly
  3035  16E2  1283               	bcf	3,5	;RP0=0, select bank0
  3036  16E3  1303               	bcf	3,6	;RP1=0, select bank0
  3037  16E4  086B               	movf	?_eval_poly+3,w
  3038  16E5  1683               	bsf	3,5	;RP0=1, select bank1
  3039  16E6  1303               	bcf	3,6	;RP1=0, select bank1
  3040  16E7  00B4               	movwf	(atan@x+3)^(0+128)
  3041  16E8  1283               	bcf	3,5	;RP0=0, select bank0
  3042  16E9  1303               	bcf	3,6	;RP1=0, select bank0
  3043  16EA  086A               	movf	?_eval_poly+2,w
  3044  16EB  1683               	bsf	3,5	;RP0=1, select bank1
  3045  16EC  1303               	bcf	3,6	;RP1=0, select bank1
  3046  16ED  00B3               	movwf	(atan@x+2)^(0+128)
  3047  16EE  1283               	bcf	3,5	;RP0=0, select bank0
  3048  16EF  1303               	bcf	3,6	;RP1=0, select bank0
  3049  16F0  0869               	movf	?_eval_poly+1,w
  3050  16F1  1683               	bsf	3,5	;RP0=1, select bank1
  3051  16F2  1303               	bcf	3,6	;RP1=0, select bank1
  3052  16F3  00B2               	movwf	(atan@x+1)^(0+128)
  3053  16F4  1283               	bcf	3,5	;RP0=0, select bank0
  3054  16F5  1303               	bcf	3,6	;RP1=0, select bank0
  3055  16F6  0868               	movf	?_eval_poly,w
  3056  16F7  1683               	bsf	3,5	;RP0=1, select bank1
  3057  16F8  1303               	bcf	3,6	;RP1=0, select bank1
  3058  16F9  00B1               	movwf	atan@x^(0+128)
  3059  16FA  0834               	movf	(atan@x+3)^(0+128),w
  3060  16FB  1283               	bcf	3,5	;RP0=0, select bank0
  3061  16FC  1303               	bcf	3,6	;RP1=0, select bank0
  3062  16FD  00BB               	movwf	___fldiv@b+3
  3063  16FE  1683               	bsf	3,5	;RP0=1, select bank1
  3064  16FF  1303               	bcf	3,6	;RP1=0, select bank1
  3065  1700  0833               	movf	(atan@x+2)^(0+128),w
  3066  1701  1283               	bcf	3,5	;RP0=0, select bank0
  3067  1702  1303               	bcf	3,6	;RP1=0, select bank0
  3068  1703  00BA               	movwf	___fldiv@b+2
  3069  1704  1683               	bsf	3,5	;RP0=1, select bank1
  3070  1705  1303               	bcf	3,6	;RP1=0, select bank1
  3071  1706  0832               	movf	(atan@x+1)^(0+128),w
  3072  1707  1283               	bcf	3,5	;RP0=0, select bank0
  3073  1708  1303               	bcf	3,6	;RP1=0, select bank0
  3074  1709  00B9               	movwf	___fldiv@b+1
  3075  170A  1683               	bsf	3,5	;RP0=1, select bank1
  3076  170B  1303               	bcf	3,6	;RP1=0, select bank1
  3077  170C  0831               	movf	atan@x^(0+128),w
  3078  170D  1283               	bcf	3,5	;RP0=0, select bank0
  3079  170E  1303               	bcf	3,6	;RP1=0, select bank0
  3080  170F  00B8               	movwf	___fldiv@b
  3081  1710  1683               	bsf	3,5	;RP0=1, select bank1
  3082  1711  1303               	bcf	3,6	;RP1=0, select bank1
  3083  1712  0830               	movf	(atan@y+3)^(0+128),w
  3084  1713  1283               	bcf	3,5	;RP0=0, select bank0
  3085  1714  1303               	bcf	3,6	;RP1=0, select bank0
  3086  1715  00B7               	movwf	___fldiv@a+3
  3087  1716  1683               	bsf	3,5	;RP0=1, select bank1
  3088  1717  1303               	bcf	3,6	;RP1=0, select bank1
  3089  1718  082F               	movf	(atan@y+2)^(0+128),w
  3090  1719  1283               	bcf	3,5	;RP0=0, select bank0
  3091  171A  1303               	bcf	3,6	;RP1=0, select bank0
  3092  171B  00B6               	movwf	___fldiv@a+2
  3093  171C  1683               	bsf	3,5	;RP0=1, select bank1
  3094  171D  1303               	bcf	3,6	;RP1=0, select bank1
  3095  171E  082E               	movf	(atan@y+1)^(0+128),w
  3096  171F  1283               	bcf	3,5	;RP0=0, select bank0
  3097  1720  1303               	bcf	3,6	;RP1=0, select bank0
  3098  1721  00B5               	movwf	___fldiv@a+1
  3099  1722  1683               	bsf	3,5	;RP0=1, select bank1
  3100  1723  1303               	bcf	3,6	;RP1=0, select bank1
  3101  1724  082D               	movf	atan@y^(0+128),w
  3102  1725  1283               	bcf	3,5	;RP0=0, select bank0
  3103  1726  1303               	bcf	3,6	;RP1=0, select bank0
  3104  1727  00B4               	movwf	___fldiv@a
  3105  1728  160A  118A  219B  160A  118A  	fcall	___fldiv
  3106  172D  1283               	bcf	3,5	;RP0=0, select bank0
  3107  172E  1303               	bcf	3,6	;RP1=0, select bank0
  3108  172F  0837               	movf	?___fldiv+3,w
  3109  1730  00D1               	movwf	___flmul@b+3
  3110  1731  0836               	movf	?___fldiv+2,w
  3111  1732  00D0               	movwf	___flmul@b+2
  3112  1733  0835               	movf	?___fldiv+1,w
  3113  1734  00CF               	movwf	___flmul@b+1
  3114  1735  0834               	movf	?___fldiv,w
  3115  1736  00CE               	movwf	___flmul@b
  3116  1737  1683               	bsf	3,5	;RP0=1, select bank1
  3117  1738  1303               	bcf	3,6	;RP1=0, select bank1
  3118  1739  083D               	movf	(atan@val+3)^(0+128),w
  3119  173A  1283               	bcf	3,5	;RP0=0, select bank0
  3120  173B  1303               	bcf	3,6	;RP1=0, select bank0
  3121  173C  00D5               	movwf	___flmul@a+3
  3122  173D  1683               	bsf	3,5	;RP0=1, select bank1
  3123  173E  1303               	bcf	3,6	;RP1=0, select bank1
  3124  173F  083C               	movf	(atan@val+2)^(0+128),w
  3125  1740  1283               	bcf	3,5	;RP0=0, select bank0
  3126  1741  1303               	bcf	3,6	;RP1=0, select bank0
  3127  1742  00D4               	movwf	___flmul@a+2
  3128  1743  1683               	bsf	3,5	;RP0=1, select bank1
  3129  1744  1303               	bcf	3,6	;RP1=0, select bank1
  3130  1745  083B               	movf	(atan@val+1)^(0+128),w
  3131  1746  1283               	bcf	3,5	;RP0=0, select bank0
  3132  1747  1303               	bcf	3,6	;RP1=0, select bank0
  3133  1748  00D3               	movwf	___flmul@a+1
  3134  1749  1683               	bsf	3,5	;RP0=1, select bank1
  3135  174A  1303               	bcf	3,6	;RP1=0, select bank1
  3136  174B  083A               	movf	atan@val^(0+128),w
  3137  174C  1283               	bcf	3,5	;RP0=0, select bank0
  3138  174D  1303               	bcf	3,6	;RP1=0, select bank0
  3139  174E  00D2               	movwf	___flmul@a
  3140  174F  120A  158A  24EB  160A  118A  	fcall	___flmul
  3141  1754  1283               	bcf	3,5	;RP0=0, select bank0
  3142  1755  1303               	bcf	3,6	;RP1=0, select bank0
  3143  1756  0851               	movf	?___flmul+3,w
  3144  1757  1683               	bsf	3,5	;RP0=1, select bank1
  3145  1758  1303               	bcf	3,6	;RP1=0, select bank1
  3146  1759  00BD               	movwf	(atan@val+3)^(0+128)
  3147  175A  1283               	bcf	3,5	;RP0=0, select bank0
  3148  175B  1303               	bcf	3,6	;RP1=0, select bank0
  3149  175C  0850               	movf	?___flmul+2,w
  3150  175D  1683               	bsf	3,5	;RP0=1, select bank1
  3151  175E  1303               	bcf	3,6	;RP1=0, select bank1
  3152  175F  00BC               	movwf	(atan@val+2)^(0+128)
  3153  1760  1283               	bcf	3,5	;RP0=0, select bank0
  3154  1761  1303               	bcf	3,6	;RP1=0, select bank0
  3155  1762  084F               	movf	?___flmul+1,w
  3156  1763  1683               	bsf	3,5	;RP0=1, select bank1
  3157  1764  1303               	bcf	3,6	;RP1=0, select bank1
  3158  1765  00BB               	movwf	(atan@val+1)^(0+128)
  3159  1766  1283               	bcf	3,5	;RP0=0, select bank0
  3160  1767  1303               	bcf	3,6	;RP1=0, select bank0
  3161  1768  084E               	movf	?___flmul,w
  3162  1769  1683               	bsf	3,5	;RP0=1, select bank1
  3163  176A  1303               	bcf	3,6	;RP1=0, select bank1
  3164  176B  00BA               	movwf	atan@val^(0+128)
  3165  176C  0835               	movf	atan@recip^(0+128),w
  3166  176D  1903               	btfsc	3,2
  3167  176E  2FAA               	goto	l2746
  3168  176F  083D               	movf	(atan@val+3)^(0+128),w
  3169  1770  1283               	bcf	3,5	;RP0=0, select bank0
  3170  1771  1303               	bcf	3,6	;RP1=0, select bank0
  3171  1772  00EB               	movwf	___flsub@a+3
  3172  1773  1683               	bsf	3,5	;RP0=1, select bank1
  3173  1774  1303               	bcf	3,6	;RP1=0, select bank1
  3174  1775  083C               	movf	(atan@val+2)^(0+128),w
  3175  1776  1283               	bcf	3,5	;RP0=0, select bank0
  3176  1777  1303               	bcf	3,6	;RP1=0, select bank0
  3177  1778  00EA               	movwf	___flsub@a+2
  3178  1779  1683               	bsf	3,5	;RP0=1, select bank1
  3179  177A  1303               	bcf	3,6	;RP1=0, select bank1
  3180  177B  083B               	movf	(atan@val+1)^(0+128),w
  3181  177C  1283               	bcf	3,5	;RP0=0, select bank0
  3182  177D  1303               	bcf	3,6	;RP1=0, select bank0
  3183  177E  00E9               	movwf	___flsub@a+1
  3184  177F  1683               	bsf	3,5	;RP0=1, select bank1
  3185  1780  1303               	bcf	3,6	;RP1=0, select bank1
  3186  1781  083A               	movf	atan@val^(0+128),w
  3187  1782  1283               	bcf	3,5	;RP0=0, select bank0
  3188  1783  1303               	bcf	3,6	;RP1=0, select bank0
  3189  1784  00E8               	movwf	___flsub@a
  3190  1785  303F               	movlw	63
  3191  1786  00EF               	movwf	___flsub@b+3
  3192  1787  30C9               	movlw	201
  3193  1788  00EE               	movwf	___flsub@b+2
  3194  1789  300F               	movlw	15
  3195  178A  00ED               	movwf	___flsub@b+1
  3196  178B  30DB               	movlw	219
  3197  178C  00EC               	movwf	___flsub@b
  3198  178D  160A  158A  22BB  160A  118A  	fcall	___flsub
  3199  1792  1283               	bcf	3,5	;RP0=0, select bank0
  3200  1793  1303               	bcf	3,6	;RP1=0, select bank0
  3201  1794  086B               	movf	?___flsub+3,w
  3202  1795  1683               	bsf	3,5	;RP0=1, select bank1
  3203  1796  1303               	bcf	3,6	;RP1=0, select bank1
  3204  1797  00BD               	movwf	(atan@val+3)^(0+128)
  3205  1798  1283               	bcf	3,5	;RP0=0, select bank0
  3206  1799  1303               	bcf	3,6	;RP1=0, select bank0
  3207  179A  086A               	movf	?___flsub+2,w
  3208  179B  1683               	bsf	3,5	;RP0=1, select bank1
  3209  179C  1303               	bcf	3,6	;RP1=0, select bank1
  3210  179D  00BC               	movwf	(atan@val+2)^(0+128)
  3211  179E  1283               	bcf	3,5	;RP0=0, select bank0
  3212  179F  1303               	bcf	3,6	;RP1=0, select bank0
  3213  17A0  0869               	movf	?___flsub+1,w
  3214  17A1  1683               	bsf	3,5	;RP0=1, select bank1
  3215  17A2  1303               	bcf	3,6	;RP1=0, select bank1
  3216  17A3  00BB               	movwf	(atan@val+1)^(0+128)
  3217  17A4  1283               	bcf	3,5	;RP0=0, select bank0
  3218  17A5  1303               	bcf	3,6	;RP1=0, select bank0
  3219  17A6  0868               	movf	?___flsub,w
  3220  17A7  1683               	bsf	3,5	;RP0=1, select bank1
  3221  17A8  1303               	bcf	3,6	;RP1=0, select bank1
  3222  17A9  00BA               	movwf	atan@val^(0+128)
  3223  17AA                     l2746:	
  3224  17AA  082C               	movf	(atan@f+3)^(0+128),w
  3225  17AB  00F3               	movwf	___flge@ff1+3
  3226  17AC  082B               	movf	(atan@f+2)^(0+128),w
  3227  17AD  00F2               	movwf	___flge@ff1+2
  3228  17AE  082A               	movf	(atan@f+1)^(0+128),w
  3229  17AF  00F1               	movwf	___flge@ff1+1
  3230  17B0  0829               	movf	atan@f^(0+128),w
  3231  17B1  00F0               	movwf	___flge@ff1
  3232  17B2  3000               	movlw	0
  3233  17B3  00F7               	movwf	___flge@ff2+3
  3234  17B4  3000               	movlw	0
  3235  17B5  00F6               	movwf	___flge@ff2+2
  3236  17B6  3000               	movlw	0
  3237  17B7  00F5               	movwf	___flge@ff2+1
  3238  17B8  3000               	movlw	0
  3239  17B9  00F4               	movwf	___flge@ff2
  3240  17BA  160A  158A  25E8  160A  118A  	fcall	___flge
  3241  17BF  1C03               	btfss	3,0
  3242  17C0  2FCC               	goto	l2750
  3243  17C1  1683               	bsf	3,5	;RP0=1, select bank1
  3244  17C2  1303               	bcf	3,6	;RP1=0, select bank1
  3245  17C3  083D               	movf	(atan@val+3)^(0+128),w
  3246  17C4  00AC               	movwf	(?_atan+3)^(0+128)
  3247  17C5  083C               	movf	(atan@val+2)^(0+128),w
  3248  17C6  00AB               	movwf	(?_atan+2)^(0+128)
  3249  17C7  083B               	movf	(atan@val+1)^(0+128),w
  3250  17C8  00AA               	movwf	(?_atan+1)^(0+128)
  3251  17C9  083A               	movf	atan@val^(0+128),w
  3252  17CA  00A9               	movwf	?_atan^(0+128)
  3253  17CB  0008               	return
  3254  17CC                     l2750:	
  3255  17CC  1683               	bsf	3,5	;RP0=1, select bank1
  3256  17CD  1303               	bcf	3,6	;RP1=0, select bank1
  3257  17CE  083D               	movf	(atan@val+3)^(0+128),w
  3258  17CF  1283               	bcf	3,5	;RP0=0, select bank0
  3259  17D0  1303               	bcf	3,6	;RP1=0, select bank0
  3260  17D1  00B3               	movwf	___flneg@f1+3
  3261  17D2  1683               	bsf	3,5	;RP0=1, select bank1
  3262  17D3  1303               	bcf	3,6	;RP1=0, select bank1
  3263  17D4  083C               	movf	(atan@val+2)^(0+128),w
  3264  17D5  1283               	bcf	3,5	;RP0=0, select bank0
  3265  17D6  1303               	bcf	3,6	;RP1=0, select bank0
  3266  17D7  00B2               	movwf	___flneg@f1+2
  3267  17D8  1683               	bsf	3,5	;RP0=1, select bank1
  3268  17D9  1303               	bcf	3,6	;RP1=0, select bank1
  3269  17DA  083B               	movf	(atan@val+1)^(0+128),w
  3270  17DB  1283               	bcf	3,5	;RP0=0, select bank0
  3271  17DC  1303               	bcf	3,6	;RP1=0, select bank0
  3272  17DD  00B1               	movwf	___flneg@f1+1
  3273  17DE  1683               	bsf	3,5	;RP0=1, select bank1
  3274  17DF  1303               	bcf	3,6	;RP1=0, select bank1
  3275  17E0  083A               	movf	atan@val^(0+128),w
  3276  17E1  1283               	bcf	3,5	;RP0=0, select bank0
  3277  17E2  1303               	bcf	3,6	;RP1=0, select bank0
  3278  17E3  00B0               	movwf	___flneg@f1
  3279  17E4  160A  158A  2231   	fcall	___flneg
  3280  17E7  1283               	bcf	3,5	;RP0=0, select bank0
  3281  17E8  1303               	bcf	3,6	;RP1=0, select bank0
  3282  17E9  0833               	movf	?___flneg+3,w
  3283  17EA  1683               	bsf	3,5	;RP0=1, select bank1
  3284  17EB  1303               	bcf	3,6	;RP1=0, select bank1
  3285  17EC  00AC               	movwf	(?_atan+3)^(0+128)
  3286  17ED  1283               	bcf	3,5	;RP0=0, select bank0
  3287  17EE  1303               	bcf	3,6	;RP1=0, select bank0
  3288  17EF  0832               	movf	?___flneg+2,w
  3289  17F0  1683               	bsf	3,5	;RP0=1, select bank1
  3290  17F1  1303               	bcf	3,6	;RP1=0, select bank1
  3291  17F2  00AB               	movwf	(?_atan+2)^(0+128)
  3292  17F3  1283               	bcf	3,5	;RP0=0, select bank0
  3293  17F4  1303               	bcf	3,6	;RP1=0, select bank0
  3294  17F5  0831               	movf	?___flneg+1,w
  3295  17F6  1683               	bsf	3,5	;RP0=1, select bank1
  3296  17F7  1303               	bcf	3,6	;RP1=0, select bank1
  3297  17F8  00AA               	movwf	(?_atan+1)^(0+128)
  3298  17F9  1283               	bcf	3,5	;RP0=0, select bank0
  3299  17FA  1303               	bcf	3,6	;RP1=0, select bank0
  3300  17FB  0830               	movf	?___flneg,w
  3301  17FC  1683               	bsf	3,5	;RP0=1, select bank1
  3302  17FD  1303               	bcf	3,6	;RP1=0, select bank1
  3303  17FE  00A9               	movwf	?_atan^(0+128)
  3304  17FF  0008               	return
  3305  1800                     __end_of_atan:	
  3306                           
  3307                           	psect	text5
  3308  1B4E                     __ptext5:	
  3309 ;; *************** function _fabs *****************
  3310 ;; Defined at:
  3311 ;;		line 4 in file "C:\Program Files (x86)\Microchip\xc8\v2.05\pic\sources\c90\common\fabs.c"
  3312 ;; Parameters:    Size  Location     Type
  3313 ;;  d               4   20[BANK0 ] unsigned char 
  3314 ;; Auto vars:     Size  Location     Type
  3315 ;;		None
  3316 ;; Return value:  Size  Location     Type
  3317 ;;                  4   20[BANK0 ] unsigned char 
  3318 ;; Registers used:
  3319 ;;		wreg, status,2, status,0, pclath, cstack
  3320 ;; Tracked objects:
  3321 ;;		On entry : 0/0
  3322 ;;		On exit  : 0/0
  3323 ;;		Unchanged: 0/0
  3324 ;; Data sizes:     COMMON   BANK0   BANK1   BANK3   BANK2
  3325 ;;      Params:         0       4       0       0       0
  3326 ;;      Locals:         0       0       0       0       0
  3327 ;;      Temps:          0       0       0       0       0
  3328 ;;      Totals:         0       4       0       0       0
  3329 ;;Total ram usage:        4 bytes
  3330 ;; Hardware stack levels used:    1
  3331 ;; Hardware stack levels required when called:    1
  3332 ;; This function calls:
  3333 ;;		___flge
  3334 ;;		___flneg
  3335 ;; This function is called by:
  3336 ;;		_asin
  3337 ;;		_atan
  3338 ;; This function uses a non-reentrant model
  3339 ;;
  3340                           
  3341                           
  3342                           ;psect for function _fabs
  3343  1B4E                     _fabs:	
  3344                           
  3345                           ;incstack = 0
  3346                           ; Regs used in _fabs: [wreg+status,2+status,0+pclath+cstack]
  3347  1B4E  1283               	bcf	3,5	;RP0=0, select bank0
  3348  1B4F  1303               	bcf	3,6	;RP1=0, select bank0
  3349  1B50  0837               	movf	fabs@d+3,w
  3350  1B51  00F3               	movwf	___flge@ff1+3
  3351  1B52  0836               	movf	fabs@d+2,w
  3352  1B53  00F2               	movwf	___flge@ff1+2
  3353  1B54  0835               	movf	fabs@d+1,w
  3354  1B55  00F1               	movwf	___flge@ff1+1
  3355  1B56  0834               	movf	fabs@d,w
  3356  1B57  00F0               	movwf	___flge@ff1
  3357  1B58  3000               	movlw	0
  3358  1B59  00F7               	movwf	___flge@ff2+3
  3359  1B5A  3000               	movlw	0
  3360  1B5B  00F6               	movwf	___flge@ff2+2
  3361  1B5C  3000               	movlw	0
  3362  1B5D  00F5               	movwf	___flge@ff2+1
  3363  1B5E  3000               	movlw	0
  3364  1B5F  00F4               	movwf	___flge@ff2
  3365  1B60  160A  158A  25E8  160A  158A  	fcall	___flge
  3366  1B65  1803               	btfsc	3,0
  3367  1B66  0008               	return
  3368  1B67  1283               	bcf	3,5	;RP0=0, select bank0
  3369  1B68  1303               	bcf	3,6	;RP1=0, select bank0
  3370  1B69  0837               	movf	fabs@d+3,w
  3371  1B6A  00B3               	movwf	___flneg@f1+3
  3372  1B6B  0836               	movf	fabs@d+2,w
  3373  1B6C  00B2               	movwf	___flneg@f1+2
  3374  1B6D  0835               	movf	fabs@d+1,w
  3375  1B6E  00B1               	movwf	___flneg@f1+1
  3376  1B6F  0834               	movf	fabs@d,w
  3377  1B70  00B0               	movwf	___flneg@f1
  3378  1B71  160A  158A  2231   	fcall	___flneg
  3379  1B74  1283               	bcf	3,5	;RP0=0, select bank0
  3380  1B75  1303               	bcf	3,6	;RP1=0, select bank0
  3381  1B76  0833               	movf	?___flneg+3,w
  3382  1B77  00B7               	movwf	?_fabs+3
  3383  1B78  0832               	movf	?___flneg+2,w
  3384  1B79  00B6               	movwf	?_fabs+2
  3385  1B7A  0831               	movf	?___flneg+1,w
  3386  1B7B  00B5               	movwf	?_fabs+1
  3387  1B7C  0830               	movf	?___flneg,w
  3388  1B7D  00B4               	movwf	?_fabs
  3389  1B7E  0008               	return
  3390  1B7F                     __end_of_fabs:	
  3391                           
  3392                           	psect	text6
  3393  1A31                     __ptext6:	
  3394 ;; *************** function ___flneg *****************
  3395 ;; Defined at:
  3396 ;;		line 15 in file "C:\Program Files (x86)\Microchip\xc8\v2.05\pic\sources\c90\common\flneg.c"
  3397 ;; Parameters:    Size  Location     Type
  3398 ;;  f1              4   16[BANK0 ] unsigned char 
  3399 ;; Auto vars:     Size  Location     Type
  3400 ;;		None
  3401 ;; Return value:  Size  Location     Type
  3402 ;;                  4   16[BANK0 ] unsigned char 
  3403 ;; Registers used:
  3404 ;;		wreg
  3405 ;; Tracked objects:
  3406 ;;		On entry : 0/0
  3407 ;;		On exit  : 0/0
  3408 ;;		Unchanged: 0/0
  3409 ;; Data sizes:     COMMON   BANK0   BANK1   BANK3   BANK2
  3410 ;;      Params:         0       4       0       0       0
  3411 ;;      Locals:         0       0       0       0       0
  3412 ;;      Temps:          0       0       0       0       0
  3413 ;;      Totals:         0       4       0       0       0
  3414 ;;Total ram usage:        4 bytes
  3415 ;; Hardware stack levels used:    1
  3416 ;; This function calls:
  3417 ;;		Nothing
  3418 ;; This function is called by:
  3419 ;;		_asin
  3420 ;;		_atan
  3421 ;;		_fabs
  3422 ;; This function uses a non-reentrant model
  3423 ;;
  3424                           
  3425                           
  3426                           ;psect for function ___flneg
  3427  1A31                     ___flneg:	
  3428                           
  3429                           ;incstack = 0
  3430                           ; Regs used in ___flneg: [wreg]
  3431  1A31  1283               	bcf	3,5	;RP0=0, select bank0
  3432  1A32  1303               	bcf	3,6	;RP1=0, select bank0
  3433  1A33  0833               	movf	___flneg@f1+3,w
  3434  1A34  0432               	iorwf	___flneg@f1+2,w
  3435  1A35  0431               	iorwf	___flneg@f1+1,w
  3436  1A36  0430               	iorwf	___flneg@f1,w
  3437  1A37  1903               	skipnz
  3438  1A38  0008               	return
  3439  1A39  3080               	movlw	128
  3440  1A3A  06B3               	xorwf	___flneg@f1+3,f
  3441  1A3B  0008               	return
  3442  1A3C                     __end_of___flneg:	
  3443                           
  3444                           	psect	text7
  3445  1DE8                     __ptext7:	
  3446 ;; *************** function ___flge *****************
  3447 ;; Defined at:
  3448 ;;		line 4 in file "C:\Program Files (x86)\Microchip\xc8\v2.05\pic\sources\c90\common\flge.c"
  3449 ;; Parameters:    Size  Location     Type
  3450 ;;  ff1             4    0[COMMON] unsigned char 
  3451 ;;  ff2             4    4[COMMON] unsigned char 
  3452 ;; Auto vars:     Size  Location     Type
  3453 ;;		None
  3454 ;; Return value:  Size  Location     Type
  3455 ;;		None               void
  3456 ;; Registers used:
  3457 ;;		wreg, status,2, status,0
  3458 ;; Tracked objects:
  3459 ;;		On entry : 0/0
  3460 ;;		On exit  : 0/0
  3461 ;;		Unchanged: 0/0
  3462 ;; Data sizes:     COMMON   BANK0   BANK1   BANK3   BANK2
  3463 ;;      Params:         8       0       0       0       0
  3464 ;;      Locals:         0       0       0       0       0
  3465 ;;      Temps:          4       0       0       0       0
  3466 ;;      Totals:        12       0       0       0       0
  3467 ;;Total ram usage:       12 bytes
  3468 ;; Hardware stack levels used:    1
  3469 ;; This function calls:
  3470 ;;		Nothing
  3471 ;; This function is called by:
  3472 ;;		_asin
  3473 ;;		_atan
  3474 ;;		_fabs
  3475 ;; This function uses a non-reentrant model
  3476 ;;
  3477                           
  3478                           
  3479                           ;psect for function ___flge
  3480  1DE8                     ___flge:	
  3481                           
  3482                           ;incstack = 0
  3483                           ; Regs used in ___flge: [wreg+status,2+status,0]
  3484  1DE8  3000               	movlw	0
  3485  1DE9  0570               	andwf	___flge@ff1,w
  3486  1DEA  00F8               	movwf	??___flge
  3487  1DEB  3000               	movlw	0
  3488  1DEC  0571               	andwf	___flge@ff1+1,w
  3489  1DED  00F9               	movwf	??___flge+1
  3490  1DEE  3080               	movlw	128
  3491  1DEF  0572               	andwf	___flge@ff1+2,w
  3492  1DF0  00FA               	movwf	??___flge+2
  3493  1DF1  307F               	movlw	127
  3494  1DF2  0573               	andwf	___flge@ff1+3,w
  3495  1DF3  00FB               	movwf	??___flge+3
  3496  1DF4  087B               	movf	??___flge+3,w
  3497  1DF5  047A               	iorwf	??___flge+2,w
  3498  1DF6  0479               	iorwf	??___flge+1,w
  3499  1DF7  0478               	iorwf	??___flge,w
  3500  1DF8  1D03               	skipz
  3501  1DF9  2E02               	goto	l399
  3502  1DFA  3000               	movlw	0
  3503  1DFB  00F3               	movwf	___flge@ff1+3
  3504  1DFC  3000               	movlw	0
  3505  1DFD  00F2               	movwf	___flge@ff1+2
  3506  1DFE  3000               	movlw	0
  3507  1DFF  00F1               	movwf	___flge@ff1+1
  3508  1E00  3000               	movlw	0
  3509  1E01  00F0               	movwf	___flge@ff1
  3510  1E02                     l399:	
  3511  1E02  3000               	movlw	0
  3512  1E03  0574               	andwf	___flge@ff2,w
  3513  1E04  00F8               	movwf	??___flge
  3514  1E05  3000               	movlw	0
  3515  1E06  0575               	andwf	___flge@ff2+1,w
  3516  1E07  00F9               	movwf	??___flge+1
  3517  1E08  3080               	movlw	128
  3518  1E09  0576               	andwf	___flge@ff2+2,w
  3519  1E0A  00FA               	movwf	??___flge+2
  3520  1E0B  307F               	movlw	127
  3521  1E0C  0577               	andwf	___flge@ff2+3,w
  3522  1E0D  00FB               	movwf	??___flge+3
  3523  1E0E  087B               	movf	??___flge+3,w
  3524  1E0F  047A               	iorwf	??___flge+2,w
  3525  1E10  0479               	iorwf	??___flge+1,w
  3526  1E11  0478               	iorwf	??___flge,w
  3527  1E12  1D03               	skipz
  3528  1E13  2E1C               	goto	l2014
  3529  1E14  3000               	movlw	0
  3530  1E15  00F7               	movwf	___flge@ff2+3
  3531  1E16  3000               	movlw	0
  3532  1E17  00F6               	movwf	___flge@ff2+2
  3533  1E18  3000               	movlw	0
  3534  1E19  00F5               	movwf	___flge@ff2+1
  3535  1E1A  3000               	movlw	0
  3536  1E1B  00F4               	movwf	___flge@ff2
  3537  1E1C                     l2014:	
  3538  1E1C  1FF3               	btfss	___flge@ff1+3,7
  3539  1E1D  2E42               	goto	l2018
  3540  1E1E  3000               	movlw	0
  3541  1E1F  00F8               	movwf	??___flge
  3542  1E20  3000               	movlw	0
  3543  1E21  00F9               	movwf	??___flge+1
  3544  1E22  3000               	movlw	0
  3545  1E23  00FA               	movwf	??___flge+2
  3546  1E24  3080               	movlw	128
  3547  1E25  00FB               	movwf	??___flge+3
  3548  1E26  0870               	movf	___flge@ff1,w
  3549  1E27  02F8               	subwf	??___flge,f
  3550  1E28  0871               	movf	___flge@ff1+1,w
  3551  1E29  1C03               	skipc
  3552  1E2A  0F71               	incfsz	___flge@ff1+1,w
  3553  1E2B  2E2D               	goto	u2221
  3554  1E2C  2E2E               	goto	u2222
  3555  1E2D                     u2221:	
  3556  1E2D  02F9               	subwf	??___flge+1,f
  3557  1E2E                     u2222:	
  3558  1E2E  0872               	movf	___flge@ff1+2,w
  3559  1E2F  1C03               	skipc
  3560  1E30  0F72               	incfsz	___flge@ff1+2,w
  3561  1E31  2E33               	goto	u2223
  3562  1E32  2E34               	goto	u2224
  3563  1E33                     u2223:	
  3564  1E33  02FA               	subwf	??___flge+2,f
  3565  1E34                     u2224:	
  3566  1E34  0873               	movf	___flge@ff1+3,w
  3567  1E35  1C03               	skipc
  3568  1E36  0F73               	incfsz	___flge@ff1+3,w
  3569  1E37  2E39               	goto	u2225
  3570  1E38  2E3A               	goto	u2226
  3571  1E39                     u2225:	
  3572  1E39  02FB               	subwf	??___flge+3,f
  3573  1E3A                     u2226:	
  3574  1E3A  087B               	movf	??___flge+3,w
  3575  1E3B  00F3               	movwf	___flge@ff1+3
  3576  1E3C  087A               	movf	??___flge+2,w
  3577  1E3D  00F2               	movwf	___flge@ff1+2
  3578  1E3E  0879               	movf	??___flge+1,w
  3579  1E3F  00F1               	movwf	___flge@ff1+1
  3580  1E40  0878               	movf	??___flge,w
  3581  1E41  00F0               	movwf	___flge@ff1
  3582  1E42                     l2018:	
  3583  1E42  1FF7               	btfss	___flge@ff2+3,7
  3584  1E43  2E68               	goto	l402
  3585  1E44  3000               	movlw	0
  3586  1E45  00F8               	movwf	??___flge
  3587  1E46  3000               	movlw	0
  3588  1E47  00F9               	movwf	??___flge+1
  3589  1E48  3000               	movlw	0
  3590  1E49  00FA               	movwf	??___flge+2
  3591  1E4A  3080               	movlw	128
  3592  1E4B  00FB               	movwf	??___flge+3
  3593  1E4C  0874               	movf	___flge@ff2,w
  3594  1E4D  02F8               	subwf	??___flge,f
  3595  1E4E  0875               	movf	___flge@ff2+1,w
  3596  1E4F  1C03               	skipc
  3597  1E50  0F75               	incfsz	___flge@ff2+1,w
  3598  1E51  2E53               	goto	u2241
  3599  1E52  2E54               	goto	u2242
  3600  1E53                     u2241:	
  3601  1E53  02F9               	subwf	??___flge+1,f
  3602  1E54                     u2242:	
  3603  1E54  0876               	movf	___flge@ff2+2,w
  3604  1E55  1C03               	skipc
  3605  1E56  0F76               	incfsz	___flge@ff2+2,w
  3606  1E57  2E59               	goto	u2243
  3607  1E58  2E5A               	goto	u2244
  3608  1E59                     u2243:	
  3609  1E59  02FA               	subwf	??___flge+2,f
  3610  1E5A                     u2244:	
  3611  1E5A  0877               	movf	___flge@ff2+3,w
  3612  1E5B  1C03               	skipc
  3613  1E5C  0F77               	incfsz	___flge@ff2+3,w
  3614  1E5D  2E5F               	goto	u2245
  3615  1E5E  2E60               	goto	u2246
  3616  1E5F                     u2245:	
  3617  1E5F  02FB               	subwf	??___flge+3,f
  3618  1E60                     u2246:	
  3619  1E60  087B               	movf	??___flge+3,w
  3620  1E61  00F7               	movwf	___flge@ff2+3
  3621  1E62  087A               	movf	??___flge+2,w
  3622  1E63  00F6               	movwf	___flge@ff2+2
  3623  1E64  0879               	movf	??___flge+1,w
  3624  1E65  00F5               	movwf	___flge@ff2+1
  3625  1E66  0878               	movf	??___flge,w
  3626  1E67  00F4               	movwf	___flge@ff2
  3627  1E68                     l402:	
  3628  1E68  3080               	movlw	128
  3629  1E69  06F3               	xorwf	___flge@ff1+3,f
  3630  1E6A  3080               	movlw	128
  3631  1E6B  06F7               	xorwf	___flge@ff2+3,f
  3632  1E6C  0877               	movf	___flge@ff2+3,w
  3633  1E6D  0273               	subwf	___flge@ff1+3,w
  3634  1E6E  1D03               	skipz
  3635  1E6F  0008               	return
  3636  1E70  0876               	movf	___flge@ff2+2,w
  3637  1E71  0272               	subwf	___flge@ff1+2,w
  3638  1E72  1D03               	skipz
  3639  1E73  0008               	return
  3640  1E74  0875               	movf	___flge@ff2+1,w
  3641  1E75  0271               	subwf	___flge@ff1+1,w
  3642  1E76  1D03               	skipz
  3643  1E77  0008               	return
  3644  1E78  0874               	movf	___flge@ff2,w
  3645  1E79  0270               	subwf	___flge@ff1,w
  3646  1E7A  0008               	return
  3647  1E7B                     __end_of___flge:	
  3648                           
  3649                           	psect	text8
  3650  10B6                     __ptext8:	
  3651 ;; *************** function _eval_poly *****************
  3652 ;; Defined at:
  3653 ;;		line 4 in file "C:\Program Files (x86)\Microchip\xc8\v2.05\pic\sources\c90\common\evalpoly.c"
  3654 ;; Parameters:    Size  Location     Type
  3655 ;;  x               4   72[BANK0 ] unsigned char 
  3656 ;;  d               1   76[BANK0 ] PTR const 
  3657 ;;		 -> atan@coeff_a(24), atan@coeff_b(20), 
  3658 ;;  n               2   77[BANK0 ] int 
  3659 ;; Auto vars:     Size  Location     Type
  3660 ;;  res             4    5[BANK1 ] int 
  3661 ;; Return value:  Size  Location     Type
  3662 ;;                  4   72[BANK0 ] int 
  3663 ;; Registers used:
  3664 ;;		wreg, fsr0l, fsr0h, status,2, status,0, btemp+1, pclath, cstack
  3665 ;; Tracked objects:
  3666 ;;		On entry : 0/0
  3667 ;;		On exit  : 0/0
  3668 ;;		Unchanged: 0/0
  3669 ;; Data sizes:     COMMON   BANK0   BANK1   BANK3   BANK2
  3670 ;;      Params:         0       7       0       0       0
  3671 ;;      Locals:         0       0       4       0       0
  3672 ;;      Temps:          0       0       5       0       0
  3673 ;;      Totals:         0       7       9       0       0
  3674 ;;Total ram usage:       16 bytes
  3675 ;; Hardware stack levels used:    1
  3676 ;; Hardware stack levels required when called:    2
  3677 ;; This function calls:
  3678 ;;		___fladd
  3679 ;;		___flmul
  3680 ;; This function is called by:
  3681 ;;		_atan
  3682 ;; This function uses a non-reentrant model
  3683 ;;
  3684                           
  3685                           
  3686                           ;psect for function _eval_poly
  3687  10B6                     _eval_poly:	
  3688                           
  3689                           ;incstack = 0
  3690                           ; Regs used in _eval_poly: [wreg-fsr0h+status,2+status,0+btemp+1+pclath+cstack]
  3691  10B6  1283               	bcf	3,5	;RP0=0, select bank0
  3692  10B7  1303               	bcf	3,6	;RP1=0, select bank0
  3693  10B8  086D               	movf	eval_poly@n,w
  3694  10B9  1683               	bsf	3,5	;RP0=1, select bank1
  3695  10BA  1303               	bcf	3,6	;RP1=0, select bank1
  3696  10BB  00A0               	movwf	??_eval_poly^(0+128)
  3697  10BC  3001               	movlw	1
  3698  10BD                     u3475:	
  3699  10BD  1003               	clrc
  3700  10BE  0DA0               	rlf	??_eval_poly^(0+128),f
  3701  10BF  3EFF               	addlw	-1
  3702  10C0  1D03               	skipz
  3703  10C1  28BD               	goto	u3475
  3704  10C2  1003               	clrc
  3705  10C3  0D20               	rlf	??_eval_poly^(0+128),w
  3706  10C4  1283               	bcf	3,5	;RP0=0, select bank0
  3707  10C5  1303               	bcf	3,6	;RP1=0, select bank0
  3708  10C6  076C               	addwf	eval_poly@d,w
  3709  10C7  0084               	movwf	4
  3710  10C8  120A  118A  2003  160A  118A  	fcall	stringdir
  3711  10CD  1683               	bsf	3,5	;RP0=1, select bank1
  3712  10CE  1303               	bcf	3,6	;RP1=0, select bank1
  3713  10CF  00A1               	movwf	(??_eval_poly+1)^(0+128)
  3714  10D0  120A  118A  2003  160A  118A  	fcall	stringdir
  3715  10D5  00A2               	movwf	((??_eval_poly+1)^(0+128)+1)
  3716  10D6  120A  118A  2003  160A  118A  	fcall	stringdir
  3717  10DB  00A3               	movwf	((??_eval_poly+1)^(0+128)+2)
  3718  10DC  120A  118A  2003  160A  118A  	fcall	stringdir
  3719  10E1  00A4               	movwf	((??_eval_poly+1)^(0+128)+3)
  3720  10E2  0824               	movf	(??_eval_poly+4)^(0+128),w
  3721  10E3  00A8               	movwf	(eval_poly@res+3)^(0+128)
  3722  10E4  0823               	movf	(??_eval_poly+3)^(0+128),w
  3723  10E5  00A7               	movwf	(eval_poly@res+2)^(0+128)
  3724  10E6  0822               	movf	(??_eval_poly+2)^(0+128),w
  3725  10E7  00A6               	movwf	(eval_poly@res+1)^(0+128)
  3726  10E8  0821               	movf	(??_eval_poly+1)^(0+128),w
  3727  10E9                     L2:	
  3728  10E9  00A5               	movwf	eval_poly@res^(0+128)
  3729  10EA  1283               	bcf	3,5	;RP0=0, select bank0
  3730  10EB  1303               	bcf	3,6	;RP1=0, select bank0
  3731  10EC  086D               	movf	eval_poly@n,w
  3732  10ED  046E               	iorwf	eval_poly@n+1,w
  3733  10EE  1903               	btfsc	3,2
  3734  10EF  2982               	goto	l2552
  3735  10F0  30FF               	movlw	255
  3736  10F1  07ED               	addwf	eval_poly@n,f
  3737  10F2  1803               	skipnc
  3738  10F3  0AEE               	incf	eval_poly@n+1,f
  3739  10F4  30FF               	movlw	255
  3740  10F5  07EE               	addwf	eval_poly@n+1,f
  3741  10F6  086D               	movf	eval_poly@n,w
  3742  10F7  1683               	bsf	3,5	;RP0=1, select bank1
  3743  10F8  1303               	bcf	3,6	;RP1=0, select bank1
  3744  10F9  00A0               	movwf	??_eval_poly^(0+128)
  3745  10FA  3001               	movlw	1
  3746  10FB                     u3485:	
  3747  10FB  1003               	clrc
  3748  10FC  0DA0               	rlf	??_eval_poly^(0+128),f
  3749  10FD  3EFF               	addlw	-1
  3750  10FE  1D03               	skipz
  3751  10FF  28FB               	goto	u3485
  3752  1100  1003               	clrc
  3753  1101  0D20               	rlf	??_eval_poly^(0+128),w
  3754  1102  1283               	bcf	3,5	;RP0=0, select bank0
  3755  1103  1303               	bcf	3,6	;RP1=0, select bank0
  3756  1104  076C               	addwf	eval_poly@d,w
  3757  1105  0084               	movwf	4
  3758  1106  120A  118A  2003  160A  118A  	fcall	stringdir
  3759  110B  1683               	bsf	3,5	;RP0=1, select bank1
  3760  110C  1303               	bcf	3,6	;RP1=0, select bank1
  3761  110D  00A1               	movwf	(??_eval_poly+1)^(0+128)
  3762  110E  120A  118A  2003  160A  118A  	fcall	stringdir
  3763  1113  00A2               	movwf	((??_eval_poly+1)^(0+128)+1)
  3764  1114  120A  118A  2003  160A  118A  	fcall	stringdir
  3765  1119  00A3               	movwf	((??_eval_poly+1)^(0+128)+2)
  3766  111A  120A  118A  2003  160A  118A  	fcall	stringdir
  3767  111F  00A4               	movwf	((??_eval_poly+1)^(0+128)+3)
  3768  1120  0824               	movf	(??_eval_poly+4)^(0+128),w
  3769  1121  1283               	bcf	3,5	;RP0=0, select bank0
  3770  1122  1303               	bcf	3,6	;RP1=0, select bank0
  3771  1123  00A3               	movwf	___fladd@b+3
  3772  1124  1683               	bsf	3,5	;RP0=1, select bank1
  3773  1125  1303               	bcf	3,6	;RP1=0, select bank1
  3774  1126  0823               	movf	(??_eval_poly+3)^(0+128),w
  3775  1127  1283               	bcf	3,5	;RP0=0, select bank0
  3776  1128  1303               	bcf	3,6	;RP1=0, select bank0
  3777  1129  00A2               	movwf	___fladd@b+2
  3778  112A  1683               	bsf	3,5	;RP0=1, select bank1
  3779  112B  1303               	bcf	3,6	;RP1=0, select bank1
  3780  112C  0822               	movf	(??_eval_poly+2)^(0+128),w
  3781  112D  1283               	bcf	3,5	;RP0=0, select bank0
  3782  112E  1303               	bcf	3,6	;RP1=0, select bank0
  3783  112F  00A1               	movwf	___fladd@b+1
  3784  1130  1683               	bsf	3,5	;RP0=1, select bank1
  3785  1131  1303               	bcf	3,6	;RP1=0, select bank1
  3786  1132  0821               	movf	(??_eval_poly+1)^(0+128),w
  3787  1133  1283               	bcf	3,5	;RP0=0, select bank0
  3788  1134  1303               	bcf	3,6	;RP1=0, select bank0
  3789  1135  00A0               	movwf	___fladd@b
  3790  1136  1683               	bsf	3,5	;RP0=1, select bank1
  3791  1137  1303               	bcf	3,6	;RP1=0, select bank1
  3792  1138  0828               	movf	(eval_poly@res+3)^(0+128),w
  3793  1139  1283               	bcf	3,5	;RP0=0, select bank0
  3794  113A  1303               	bcf	3,6	;RP1=0, select bank0
  3795  113B  00D1               	movwf	___flmul@b+3
  3796  113C  1683               	bsf	3,5	;RP0=1, select bank1
  3797  113D  1303               	bcf	3,6	;RP1=0, select bank1
  3798  113E  0827               	movf	(eval_poly@res+2)^(0+128),w
  3799  113F  1283               	bcf	3,5	;RP0=0, select bank0
  3800  1140  1303               	bcf	3,6	;RP1=0, select bank0
  3801  1141  00D0               	movwf	___flmul@b+2
  3802  1142  1683               	bsf	3,5	;RP0=1, select bank1
  3803  1143  1303               	bcf	3,6	;RP1=0, select bank1
  3804  1144  0826               	movf	(eval_poly@res+1)^(0+128),w
  3805  1145  1283               	bcf	3,5	;RP0=0, select bank0
  3806  1146  1303               	bcf	3,6	;RP1=0, select bank0
  3807  1147  00CF               	movwf	___flmul@b+1
  3808  1148  1683               	bsf	3,5	;RP0=1, select bank1
  3809  1149  1303               	bcf	3,6	;RP1=0, select bank1
  3810  114A  0825               	movf	eval_poly@res^(0+128),w
  3811  114B  1283               	bcf	3,5	;RP0=0, select bank0
  3812  114C  1303               	bcf	3,6	;RP1=0, select bank0
  3813  114D  00CE               	movwf	___flmul@b
  3814  114E  086B               	movf	eval_poly@x+3,w
  3815  114F  00D5               	movwf	___flmul@a+3
  3816  1150  086A               	movf	eval_poly@x+2,w
  3817  1151  00D4               	movwf	___flmul@a+2
  3818  1152  0869               	movf	eval_poly@x+1,w
  3819  1153  00D3               	movwf	___flmul@a+1
  3820  1154  0868               	movf	eval_poly@x,w
  3821  1155  00D2               	movwf	___flmul@a
  3822  1156  120A  158A  24EB  160A  118A  	fcall	___flmul
  3823  115B  1283               	bcf	3,5	;RP0=0, select bank0
  3824  115C  1303               	bcf	3,6	;RP1=0, select bank0
  3825  115D  0851               	movf	?___flmul+3,w
  3826  115E  00A7               	movwf	___fladd@a+3
  3827  115F  0850               	movf	?___flmul+2,w
  3828  1160  00A6               	movwf	___fladd@a+2
  3829  1161  084F               	movf	?___flmul+1,w
  3830  1162  00A5               	movwf	___fladd@a+1
  3831  1163  084E               	movf	?___flmul,w
  3832  1164  00A4               	movwf	___fladd@a
  3833  1165  160A  118A  233E  160A  118A  	fcall	___fladd
  3834  116A  1283               	bcf	3,5	;RP0=0, select bank0
  3835  116B  1303               	bcf	3,6	;RP1=0, select bank0
  3836  116C  0823               	movf	?___fladd+3,w
  3837  116D  1683               	bsf	3,5	;RP0=1, select bank1
  3838  116E  1303               	bcf	3,6	;RP1=0, select bank1
  3839  116F  00A8               	movwf	(eval_poly@res+3)^(0+128)
  3840  1170  1283               	bcf	3,5	;RP0=0, select bank0
  3841  1171  1303               	bcf	3,6	;RP1=0, select bank0
  3842  1172  0822               	movf	?___fladd+2,w
  3843  1173  1683               	bsf	3,5	;RP0=1, select bank1
  3844  1174  1303               	bcf	3,6	;RP1=0, select bank1
  3845  1175  00A7               	movwf	(eval_poly@res+2)^(0+128)
  3846  1176  1283               	bcf	3,5	;RP0=0, select bank0
  3847  1177  1303               	bcf	3,6	;RP1=0, select bank0
  3848  1178  0821               	movf	?___fladd+1,w
  3849  1179  1683               	bsf	3,5	;RP0=1, select bank1
  3850  117A  1303               	bcf	3,6	;RP1=0, select bank1
  3851  117B  00A6               	movwf	(eval_poly@res+1)^(0+128)
  3852  117C  1283               	bcf	3,5	;RP0=0, select bank0
  3853  117D  1303               	bcf	3,6	;RP1=0, select bank0
  3854  117E  0820               	movf	?___fladd,w
  3855  117F  1683               	bsf	3,5	;RP0=1, select bank1
  3856  1180  1303               	bcf	3,6	;RP1=0, select bank1
  3857  1181  28E9               	goto	L2
  3858  1182                     l2552:	
  3859  1182  1683               	bsf	3,5	;RP0=1, select bank1
  3860  1183  1303               	bcf	3,6	;RP1=0, select bank1
  3861  1184  0828               	movf	(eval_poly@res+3)^(0+128),w
  3862  1185  1283               	bcf	3,5	;RP0=0, select bank0
  3863  1186  1303               	bcf	3,6	;RP1=0, select bank0
  3864  1187  00EB               	movwf	?_eval_poly+3
  3865  1188  1683               	bsf	3,5	;RP0=1, select bank1
  3866  1189  1303               	bcf	3,6	;RP1=0, select bank1
  3867  118A  0827               	movf	(eval_poly@res+2)^(0+128),w
  3868  118B  1283               	bcf	3,5	;RP0=0, select bank0
  3869  118C  1303               	bcf	3,6	;RP1=0, select bank0
  3870  118D  00EA               	movwf	?_eval_poly+2
  3871  118E  1683               	bsf	3,5	;RP0=1, select bank1
  3872  118F  1303               	bcf	3,6	;RP1=0, select bank1
  3873  1190  0826               	movf	(eval_poly@res+1)^(0+128),w
  3874  1191  1283               	bcf	3,5	;RP0=0, select bank0
  3875  1192  1303               	bcf	3,6	;RP1=0, select bank0
  3876  1193  00E9               	movwf	?_eval_poly+1
  3877  1194  1683               	bsf	3,5	;RP0=1, select bank1
  3878  1195  1303               	bcf	3,6	;RP1=0, select bank1
  3879  1196  0825               	movf	eval_poly@res^(0+128),w
  3880  1197  1283               	bcf	3,5	;RP0=0, select bank0
  3881  1198  1303               	bcf	3,6	;RP1=0, select bank0
  3882  1199  00E8               	movwf	?_eval_poly
  3883  119A  0008               	return
  3884  119B                     __end_of_eval_poly:	
  3885                           
  3886                           	psect	text9
  3887  1C05                     __ptext9:	
  3888 ;; *************** function ___fleq *****************
  3889 ;; Defined at:
  3890 ;;		line 4 in file "C:\Program Files (x86)\Microchip\xc8\v2.05\pic\sources\c90\common\fleq.c"
  3891 ;; Parameters:    Size  Location     Type
  3892 ;;  ff1             4   24[BANK0 ] int 
  3893 ;;  ff2             4   28[BANK0 ] int 
  3894 ;; Auto vars:     Size  Location     Type
  3895 ;;		None
  3896 ;; Return value:  Size  Location     Type
  3897 ;;		None               void
  3898 ;; Registers used:
  3899 ;;		wreg, status,2, status,0
  3900 ;; Tracked objects:
  3901 ;;		On entry : 0/0
  3902 ;;		On exit  : 0/0
  3903 ;;		Unchanged: 0/0
  3904 ;; Data sizes:     COMMON   BANK0   BANK1   BANK3   BANK2
  3905 ;;      Params:         0       8       0       0       0
  3906 ;;      Locals:         0       0       0       0       0
  3907 ;;      Temps:          0       4       0       0       0
  3908 ;;      Totals:         0      12       0       0       0
  3909 ;;Total ram usage:       12 bytes
  3910 ;; Hardware stack levels used:    1
  3911 ;; This function calls:
  3912 ;;		Nothing
  3913 ;; This function is called by:
  3914 ;;		_atan
  3915 ;; This function uses a non-reentrant model
  3916 ;;
  3917                           
  3918                           
  3919                           ;psect for function ___fleq
  3920  1C05                     ___fleq:	
  3921                           
  3922                           ;incstack = 0
  3923                           ; Regs used in ___fleq: [wreg+status,2+status,0]
  3924  1C05  3000               	movlw	0
  3925  1C06  1283               	bcf	3,5	;RP0=0, select bank0
  3926  1C07  1303               	bcf	3,6	;RP1=0, select bank0
  3927  1C08  0538               	andwf	___fleq@ff1,w
  3928  1C09  00C0               	movwf	??___fleq
  3929  1C0A  3000               	movlw	0
  3930  1C0B  0539               	andwf	___fleq@ff1+1,w
  3931  1C0C  00C1               	movwf	??___fleq+1
  3932  1C0D  3080               	movlw	128
  3933  1C0E  053A               	andwf	___fleq@ff1+2,w
  3934  1C0F  00C2               	movwf	??___fleq+2
  3935  1C10  307F               	movlw	127
  3936  1C11  053B               	andwf	___fleq@ff1+3,w
  3937  1C12  00C3               	movwf	??___fleq+3
  3938  1C13  0843               	movf	??___fleq+3,w
  3939  1C14  0442               	iorwf	??___fleq+2,w
  3940  1C15  0441               	iorwf	??___fleq+1,w
  3941  1C16  0440               	iorwf	??___fleq,w
  3942  1C17  1D03               	skipz
  3943  1C18  2C21               	goto	l394
  3944  1C19  3000               	movlw	0
  3945  1C1A  00BB               	movwf	___fleq@ff1+3
  3946  1C1B  3000               	movlw	0
  3947  1C1C  00BA               	movwf	___fleq@ff1+2
  3948  1C1D  3000               	movlw	0
  3949  1C1E  00B9               	movwf	___fleq@ff1+1
  3950  1C1F  3000               	movlw	0
  3951  1C20  00B8               	movwf	___fleq@ff1
  3952  1C21                     l394:	
  3953  1C21  3000               	movlw	0
  3954  1C22  053C               	andwf	___fleq@ff2,w
  3955  1C23  00C0               	movwf	??___fleq
  3956  1C24  3000               	movlw	0
  3957  1C25  053D               	andwf	___fleq@ff2+1,w
  3958  1C26  00C1               	movwf	??___fleq+1
  3959  1C27  3080               	movlw	128
  3960  1C28  053E               	andwf	___fleq@ff2+2,w
  3961  1C29  00C2               	movwf	??___fleq+2
  3962  1C2A  307F               	movlw	127
  3963  1C2B  053F               	andwf	___fleq@ff2+3,w
  3964  1C2C  00C3               	movwf	??___fleq+3
  3965  1C2D  0843               	movf	??___fleq+3,w
  3966  1C2E  0442               	iorwf	??___fleq+2,w
  3967  1C2F  0441               	iorwf	??___fleq+1,w
  3968  1C30  0440               	iorwf	??___fleq,w
  3969  1C31  1D03               	skipz
  3970  1C32  2C3B               	goto	l395
  3971  1C33  3000               	movlw	0
  3972  1C34  00BF               	movwf	___fleq@ff2+3
  3973  1C35  3000               	movlw	0
  3974  1C36  00BE               	movwf	___fleq@ff2+2
  3975  1C37  3000               	movlw	0
  3976  1C38  00BD               	movwf	___fleq@ff2+1
  3977  1C39  3000               	movlw	0
  3978  1C3A  00BC               	movwf	___fleq@ff2
  3979  1C3B                     l395:	
  3980  1C3B  083F               	movf	___fleq@ff2+3,w
  3981  1C3C  063B               	xorwf	___fleq@ff1+3,w
  3982  1C3D  1D03               	skipz
  3983  1C3E  2C49               	goto	u3165
  3984  1C3F  083E               	movf	___fleq@ff2+2,w
  3985  1C40  063A               	xorwf	___fleq@ff1+2,w
  3986  1C41  1D03               	skipz
  3987  1C42  2C49               	goto	u3165
  3988  1C43  083D               	movf	___fleq@ff2+1,w
  3989  1C44  0639               	xorwf	___fleq@ff1+1,w
  3990  1C45  1D03               	skipz
  3991  1C46  2C49               	goto	u3165
  3992  1C47  083C               	movf	___fleq@ff2,w
  3993  1C48  0638               	xorwf	___fleq@ff1,w
  3994  1C49                     u3165:	
  3995  1C49  1903               	skipnz
  3996  1C4A  2C4D               	goto	l2388
  3997  1C4B  1003               	clrc
  3998  1C4C  0008               	return
  3999  1C4D                     l2388:	
  4000  1C4D  1403               	setc
  4001  1C4E  0008               	return
  4002  1C4F                     __end_of___fleq:	
  4003                           
  4004                           	psect	text10
  4005  119B                     __ptext10:	
  4006 ;; *************** function ___fldiv *****************
  4007 ;; Defined at:
  4008 ;;		line 8 in file "C:\Program Files (x86)\Microchip\xc8\v2.05\pic\sources\c90\common\sprcdiv.c"
  4009 ;; Parameters:    Size  Location     Type
  4010 ;;  a               4   20[BANK0 ] int 
  4011 ;;  b               4   24[BANK0 ] int 
  4012 ;; Auto vars:     Size  Location     Type
  4013 ;;  grs             4   40[BANK0 ] unsigned long 
  4014 ;;  rem             4   33[BANK0 ] unsigned long 
  4015 ;;  new_exp         2   38[BANK0 ] int 
  4016 ;;  aexp            1   45[BANK0 ] unsigned char 
  4017 ;;  bexp            1   44[BANK0 ] unsigned char 
  4018 ;;  sign            1   37[BANK0 ] unsigned char 
  4019 ;; Return value:  Size  Location     Type
  4020 ;;                  4   20[BANK0 ] unsigned char 
  4021 ;; Registers used:
  4022 ;;		wreg, status,2, status,0, btemp+1
  4023 ;; Tracked objects:
  4024 ;;		On entry : 0/0
  4025 ;;		On exit  : 0/0
  4026 ;;		Unchanged: 0/0
  4027 ;; Data sizes:     COMMON   BANK0   BANK1   BANK3   BANK2
  4028 ;;      Params:         0       8       0       0       0
  4029 ;;      Locals:         0      13       0       0       0
  4030 ;;      Temps:          0       5       0       0       0
  4031 ;;      Totals:         0      26       0       0       0
  4032 ;;Total ram usage:       26 bytes
  4033 ;; Hardware stack levels used:    1
  4034 ;; This function calls:
  4035 ;;		Nothing
  4036 ;; This function is called by:
  4037 ;;		_main
  4038 ;;		_asin
  4039 ;;		_atan
  4040 ;; This function uses a non-reentrant model
  4041 ;;
  4042                           
  4043                           
  4044                           ;psect for function ___fldiv
  4045  119B                     ___fldiv:	
  4046                           
  4047                           ;incstack = 0
  4048                           ; Regs used in ___fldiv: [wreg+status,2+status,0+btemp+1]
  4049  119B  1283               	bcf	3,5	;RP0=0, select bank0
  4050  119C  1303               	bcf	3,6	;RP1=0, select bank0
  4051  119D  083B               	movf	___fldiv@b+3,w
  4052  119E  3980               	andlw	128
  4053  119F  00BC               	movwf	??___fldiv
  4054  11A0  083C               	movf	??___fldiv,w
  4055  11A1  00C5               	movwf	___fldiv@sign
  4056  11A2  083B               	movf	___fldiv@b+3,w
  4057  11A3  00BC               	movwf	??___fldiv
  4058  11A4  073C               	addwf	??___fldiv,w
  4059  11A5  00BD               	movwf	??___fldiv+1
  4060  11A6  083D               	movf	??___fldiv+1,w
  4061  11A7  00CC               	movwf	___fldiv@bexp
  4062  11A8  1BBA               	btfsc	___fldiv@b+2,7
  4063  11A9  144C               	bsf	___fldiv@bexp,0
  4064  11AA  084C               	movf	___fldiv@bexp,w
  4065  11AB  1903               	btfsc	3,2
  4066  11AC  29BB               	goto	l2416
  4067  11AD  0A4C               	incf	___fldiv@bexp,w
  4068  11AE  1D03               	btfss	3,2
  4069  11AF  29B8               	goto	l2412
  4070  11B0  3000               	movlw	0
  4071  11B1  00BB               	movwf	___fldiv@b+3
  4072  11B2  3000               	movlw	0
  4073  11B3  00BA               	movwf	___fldiv@b+2
  4074  11B4  3000               	movlw	0
  4075  11B5  00B9               	movwf	___fldiv@b+1
  4076  11B6  3000               	movlw	0
  4077  11B7  00B8               	movwf	___fldiv@b
  4078  11B8                     l2412:	
  4079  11B8  17BA               	bsf	___fldiv@b+2,7
  4080  11B9  01BB               	clrf	___fldiv@b+3
  4081  11BA  29C3               	goto	l2418
  4082  11BB                     l2416:	
  4083  11BB  3000               	movlw	0
  4084  11BC  00BB               	movwf	___fldiv@b+3
  4085  11BD  3000               	movlw	0
  4086  11BE  00BA               	movwf	___fldiv@b+2
  4087  11BF  3000               	movlw	0
  4088  11C0  00B9               	movwf	___fldiv@b+1
  4089  11C1  3000               	movlw	0
  4090  11C2  00B8               	movwf	___fldiv@b
  4091  11C3                     l2418:	
  4092  11C3  0837               	movf	___fldiv@a+3,w
  4093  11C4  3980               	andlw	128
  4094  11C5  00BC               	movwf	??___fldiv
  4095  11C6  083C               	movf	??___fldiv,w
  4096  11C7  06C5               	xorwf	___fldiv@sign,f
  4097  11C8  0837               	movf	___fldiv@a+3,w
  4098  11C9  00BC               	movwf	??___fldiv
  4099  11CA  073C               	addwf	??___fldiv,w
  4100  11CB  00BD               	movwf	??___fldiv+1
  4101  11CC  083D               	movf	??___fldiv+1,w
  4102  11CD  00CD               	movwf	___fldiv@aexp
  4103  11CE  1BB6               	btfsc	___fldiv@a+2,7
  4104  11CF  144D               	bsf	___fldiv@aexp,0
  4105  11D0  084D               	movf	___fldiv@aexp,w
  4106  11D1  1903               	btfsc	3,2
  4107  11D2  29E1               	goto	l2436
  4108  11D3  0A4D               	incf	___fldiv@aexp,w
  4109  11D4  1D03               	btfss	3,2
  4110  11D5  29DE               	goto	l2432
  4111  11D6  3000               	movlw	0
  4112  11D7  00B7               	movwf	___fldiv@a+3
  4113  11D8  3000               	movlw	0
  4114  11D9  00B6               	movwf	___fldiv@a+2
  4115  11DA  3000               	movlw	0
  4116  11DB  00B5               	movwf	___fldiv@a+1
  4117  11DC  3000               	movlw	0
  4118  11DD  00B4               	movwf	___fldiv@a
  4119  11DE                     l2432:	
  4120  11DE  17B6               	bsf	___fldiv@a+2,7
  4121  11DF  01B7               	clrf	___fldiv@a+3
  4122  11E0  29E9               	goto	l574
  4123  11E1                     l2436:	
  4124  11E1  3000               	movlw	0
  4125  11E2  00B7               	movwf	___fldiv@a+3
  4126  11E3  3000               	movlw	0
  4127  11E4  00B6               	movwf	___fldiv@a+2
  4128  11E5  3000               	movlw	0
  4129  11E6  00B5               	movwf	___fldiv@a+1
  4130  11E7  3000               	movlw	0
  4131  11E8  00B4               	movwf	___fldiv@a
  4132  11E9                     l574:	
  4133  11E9  0837               	movf	___fldiv@a+3,w
  4134  11EA  0436               	iorwf	___fldiv@a+2,w
  4135  11EB  0435               	iorwf	___fldiv@a+1,w
  4136  11EC  0434               	iorwf	___fldiv@a,w
  4137  11ED  1D03               	skipz
  4138  11EE  2A08               	goto	l2446
  4139  11EF  3000               	movlw	0
  4140  11F0  00BB               	movwf	___fldiv@b+3
  4141  11F1  3000               	movlw	0
  4142  11F2  00BA               	movwf	___fldiv@b+2
  4143  11F3  3000               	movlw	0
  4144  11F4  00B9               	movwf	___fldiv@b+1
  4145  11F5  3000               	movlw	0
  4146  11F6  00B8               	movwf	___fldiv@b
  4147  11F7  3080               	movlw	128
  4148  11F8  04BA               	iorwf	___fldiv@b+2,f
  4149  11F9  307F               	movlw	127
  4150  11FA  04BB               	iorwf	___fldiv@b+3,f
  4151  11FB                     L3:	
  4152  11FB  0845               	movf	___fldiv@sign,w
  4153  11FC  00BC               	movwf	??___fldiv
  4154  11FD  083C               	movf	??___fldiv,w
  4155  11FE  04BB               	iorwf	___fldiv@b+3,f
  4156  11FF  083B               	movf	___fldiv@b+3,w
  4157  1200  00B7               	movwf	?___fldiv+3
  4158  1201  083A               	movf	___fldiv@b+2,w
  4159  1202  00B6               	movwf	?___fldiv+2
  4160  1203  0839               	movf	___fldiv@b+1,w
  4161  1204  00B5               	movwf	?___fldiv+1
  4162  1205  0838               	movf	___fldiv@b,w
  4163  1206  00B4               	movwf	?___fldiv
  4164  1207  0008               	return
  4165  1208                     l2446:	
  4166  1208  084C               	movf	___fldiv@bexp,w
  4167  1209  1D03               	btfss	3,2
  4168  120A  2A14               	goto	l2452
  4169  120B  3000               	movlw	0
  4170  120C  00B7               	movwf	?___fldiv+3
  4171  120D  3000               	movlw	0
  4172  120E  00B6               	movwf	?___fldiv+2
  4173  120F  3000               	movlw	0
  4174  1210  00B5               	movwf	?___fldiv+1
  4175  1211  3000               	movlw	0
  4176  1212  00B4               	movwf	?___fldiv
  4177  1213  0008               	return
  4178  1214                     l2452:	
  4179  1214  084C               	movf	___fldiv@bexp,w
  4180  1215  00BC               	movwf	??___fldiv
  4181  1216  01BD               	clrf	??___fldiv+1
  4182  1217  083D               	movf	??___fldiv+1,w
  4183  1218  00BF               	movwf	??___fldiv+3
  4184  1219  084D               	movf	___fldiv@aexp,w
  4185  121A  023C               	subwf	??___fldiv,w
  4186  121B  00BE               	movwf	??___fldiv+2
  4187  121C  1C03               	skipc
  4188  121D  03BF               	decf	??___fldiv+3,f
  4189  121E  083E               	movf	??___fldiv+2,w
  4190  121F  3E7F               	addlw	127
  4191  1220  00C6               	movwf	___fldiv@new_exp
  4192  1221  083F               	movf	??___fldiv+3,w
  4193  1222  1803               	skipnc
  4194  1223  3E01               	addlw	1
  4195  1224  3E00               	addlw	0
  4196  1225  00C7               	movwf	___fldiv@new_exp+1
  4197  1226  083B               	movf	___fldiv@b+3,w
  4198  1227  00C4               	movwf	___fldiv@rem+3
  4199  1228  083A               	movf	___fldiv@b+2,w
  4200  1229  00C3               	movwf	___fldiv@rem+2
  4201  122A  0839               	movf	___fldiv@b+1,w
  4202  122B  00C2               	movwf	___fldiv@rem+1
  4203  122C  0838               	movf	___fldiv@b,w
  4204  122D  00C1               	movwf	___fldiv@rem
  4205  122E  3000               	movlw	0
  4206  122F  00BB               	movwf	___fldiv@b+3
  4207  1230  3000               	movlw	0
  4208  1231  00BA               	movwf	___fldiv@b+2
  4209  1232  3000               	movlw	0
  4210  1233  00B9               	movwf	___fldiv@b+1
  4211  1234  3000               	movlw	0
  4212  1235  00B8               	movwf	___fldiv@b
  4213  1236  3000               	movlw	0
  4214  1237  00CB               	movwf	___fldiv@grs+3
  4215  1238  3000               	movlw	0
  4216  1239  00CA               	movwf	___fldiv@grs+2
  4217  123A  3000               	movlw	0
  4218  123B  00C9               	movwf	___fldiv@grs+1
  4219  123C  3000               	movlw	0
  4220  123D  00C8               	movwf	___fldiv@grs
  4221  123E  01CD               	clrf	___fldiv@aexp
  4222  123F                     l2480:	
  4223  123F  301A               	movlw	26
  4224  1240  024D               	subwf	___fldiv@aexp,w
  4225  1241  1803               	btfsc	3,0
  4226  1242  2A87               	goto	l2482
  4227  1243  084D               	movf	___fldiv@aexp,w
  4228  1244  1903               	btfsc	3,2
  4229  1245  2A63               	goto	l2472
  4230  1246  3001               	movlw	1
  4231  1247  00BC               	movwf	??___fldiv
  4232  1248                     u3265:	
  4233  1248  1003               	clrc
  4234  1249  0DC1               	rlf	___fldiv@rem,f
  4235  124A  0DC2               	rlf	___fldiv@rem+1,f
  4236  124B  0DC3               	rlf	___fldiv@rem+2,f
  4237  124C  0DC4               	rlf	___fldiv@rem+3,f
  4238  124D  0BBC               	decfsz	??___fldiv,f
  4239  124E  2A48               	goto	u3265
  4240  124F  3001               	movlw	1
  4241  1250  00BC               	movwf	??___fldiv
  4242  1251                     u3275:	
  4243  1251  1003               	clrc
  4244  1252  0DB8               	rlf	___fldiv@b,f
  4245  1253  0DB9               	rlf	___fldiv@b+1,f
  4246  1254  0DBA               	rlf	___fldiv@b+2,f
  4247  1255  0DBB               	rlf	___fldiv@b+3,f
  4248  1256  0BBC               	decfsz	??___fldiv,f
  4249  1257  2A51               	goto	u3275
  4250  1258  1BCB               	btfsc	___fldiv@grs+3,7
  4251  1259  1438               	bsf	___fldiv@b,0
  4252  125A  3001               	movlw	1
  4253  125B  00BC               	movwf	??___fldiv
  4254  125C                     u3295:	
  4255  125C  1003               	clrc
  4256  125D  0DC8               	rlf	___fldiv@grs,f
  4257  125E  0DC9               	rlf	___fldiv@grs+1,f
  4258  125F  0DCA               	rlf	___fldiv@grs+2,f
  4259  1260  0DCB               	rlf	___fldiv@grs+3,f
  4260  1261  0BBC               	decfsz	??___fldiv,f
  4261  1262  2A5C               	goto	u3295
  4262  1263                     l2472:	
  4263  1263  0837               	movf	___fldiv@a+3,w
  4264  1264  0244               	subwf	___fldiv@rem+3,w
  4265  1265  1D03               	skipz
  4266  1266  2A71               	goto	u3305
  4267  1267  0836               	movf	___fldiv@a+2,w
  4268  1268  0243               	subwf	___fldiv@rem+2,w
  4269  1269  1D03               	skipz
  4270  126A  2A71               	goto	u3305
  4271  126B  0835               	movf	___fldiv@a+1,w
  4272  126C  0242               	subwf	___fldiv@rem+1,w
  4273  126D  1D03               	skipz
  4274  126E  2A71               	goto	u3305
  4275  126F  0834               	movf	___fldiv@a,w
  4276  1270  0241               	subwf	___fldiv@rem,w
  4277  1271                     u3305:	
  4278  1271  1C03               	skipc
  4279  1272  2A82               	goto	l2478
  4280  1273  174B               	bsf	___fldiv@grs+3,6
  4281  1274  0834               	movf	___fldiv@a,w
  4282  1275  02C1               	subwf	___fldiv@rem,f
  4283  1276  0835               	movf	___fldiv@a+1,w
  4284  1277  1C03               	skipc
  4285  1278  0F35               	incfsz	___fldiv@a+1,w
  4286  1279  02C2               	subwf	___fldiv@rem+1,f
  4287  127A  0836               	movf	___fldiv@a+2,w
  4288  127B  1C03               	skipc
  4289  127C  0F36               	incfsz	___fldiv@a+2,w
  4290  127D  02C3               	subwf	___fldiv@rem+2,f
  4291  127E  0837               	movf	___fldiv@a+3,w
  4292  127F  1C03               	skipc
  4293  1280  0F37               	incfsz	___fldiv@a+3,w
  4294  1281  02C4               	subwf	___fldiv@rem+3,f
  4295  1282                     l2478:	
  4296  1282  3001               	movlw	1
  4297  1283  00BC               	movwf	??___fldiv
  4298  1284  083C               	movf	??___fldiv,w
  4299  1285  07CD               	addwf	___fldiv@aexp,f
  4300  1286  2A3F               	goto	l2480
  4301  1287                     l2482:	
  4302  1287  0844               	movf	___fldiv@rem+3,w
  4303  1288  0443               	iorwf	___fldiv@rem+2,w
  4304  1289  0442               	iorwf	___fldiv@rem+1,w
  4305  128A  0441               	iorwf	___fldiv@rem,w
  4306  128B  1D03               	btfss	3,2
  4307  128C  1448               	bsf	___fldiv@grs,0
  4308  128D                     l2496:	
  4309  128D  1BBA               	btfsc	___fldiv@b+2,7
  4310  128E  2AAA               	goto	l2498
  4311  128F  3001               	movlw	1
  4312  1290  00BC               	movwf	??___fldiv
  4313  1291                     u3335:	
  4314  1291  1003               	clrc
  4315  1292  0DB8               	rlf	___fldiv@b,f
  4316  1293  0DB9               	rlf	___fldiv@b+1,f
  4317  1294  0DBA               	rlf	___fldiv@b+2,f
  4318  1295  0DBB               	rlf	___fldiv@b+3,f
  4319  1296  0BBC               	decfsz	??___fldiv,f
  4320  1297  2A91               	goto	u3335
  4321  1298  1BCB               	btfsc	___fldiv@grs+3,7
  4322  1299  1438               	bsf	___fldiv@b,0
  4323  129A  3001               	movlw	1
  4324  129B  00BC               	movwf	??___fldiv
  4325  129C                     u3355:	
  4326  129C  1003               	clrc
  4327  129D  0DC8               	rlf	___fldiv@grs,f
  4328  129E  0DC9               	rlf	___fldiv@grs+1,f
  4329  129F  0DCA               	rlf	___fldiv@grs+2,f
  4330  12A0  0DCB               	rlf	___fldiv@grs+3,f
  4331  12A1  0BBC               	decfsz	??___fldiv,f
  4332  12A2  2A9C               	goto	u3355
  4333  12A3  30FF               	movlw	255
  4334  12A4  07C6               	addwf	___fldiv@new_exp,f
  4335  12A5  1803               	skipnc
  4336  12A6  0AC7               	incf	___fldiv@new_exp+1,f
  4337  12A7  30FF               	movlw	255
  4338  12A8  07C7               	addwf	___fldiv@new_exp+1,f
  4339  12A9  2A8D               	goto	l2496
  4340  12AA                     l2498:	
  4341  12AA  01CD               	clrf	___fldiv@aexp
  4342  12AB  1FCB               	btfss	___fldiv@grs+3,7
  4343  12AC  2AC3               	goto	l2508
  4344  12AD  30FF               	movlw	255
  4345  12AE  0548               	andwf	___fldiv@grs,w
  4346  12AF  00BC               	movwf	??___fldiv
  4347  12B0  30FF               	movlw	255
  4348  12B1  0549               	andwf	___fldiv@grs+1,w
  4349  12B2  00BD               	movwf	??___fldiv+1
  4350  12B3  30FF               	movlw	255
  4351  12B4  054A               	andwf	___fldiv@grs+2,w
  4352  12B5  00BE               	movwf	??___fldiv+2
  4353  12B6  307F               	movlw	127
  4354  12B7  054B               	andwf	___fldiv@grs+3,w
  4355  12B8  00BF               	movwf	??___fldiv+3
  4356  12B9  083F               	movf	??___fldiv+3,w
  4357  12BA  043E               	iorwf	??___fldiv+2,w
  4358  12BB  043D               	iorwf	??___fldiv+1,w
  4359  12BC  043C               	iorwf	??___fldiv,w
  4360  12BD  1903               	skipnz
  4361  12BE  1838               	btfsc	___fldiv@b,0
  4362  12BF  2AC1               	goto	l2504
  4363  12C0  2AC3               	goto	l2508
  4364  12C1                     l2504:	
  4365  12C1  01CD               	clrf	___fldiv@aexp
  4366  12C2  0ACD               	incf	___fldiv@aexp,f
  4367  12C3                     l2508:	
  4368  12C3  084D               	movf	___fldiv@aexp,w
  4369  12C4  1903               	btfsc	3,2
  4370  12C5  2AF5               	goto	l2518
  4371  12C6  3001               	movlw	1
  4372  12C7  07B8               	addwf	___fldiv@b,f
  4373  12C8  3000               	movlw	0
  4374  12C9  1803               	skipnc
  4375  12CA  3001               	movlw	1
  4376  12CB  07B9               	addwf	___fldiv@b+1,f
  4377  12CC  3000               	movlw	0
  4378  12CD  1803               	skipnc
  4379  12CE  3001               	movlw	1
  4380  12CF  07BA               	addwf	___fldiv@b+2,f
  4381  12D0  3000               	movlw	0
  4382  12D1  1803               	skipnc
  4383  12D2  3001               	movlw	1
  4384  12D3  07BB               	addwf	___fldiv@b+3,f
  4385  12D4  1C3B               	btfss	___fldiv@b+3,0
  4386  12D5  2AF5               	goto	l2518
  4387  12D6  0838               	movf	___fldiv@b,w
  4388  12D7  00BC               	movwf	??___fldiv
  4389  12D8  0839               	movf	___fldiv@b+1,w
  4390  12D9  00BD               	movwf	??___fldiv+1
  4391  12DA  083A               	movf	___fldiv@b+2,w
  4392  12DB  00BE               	movwf	??___fldiv+2
  4393  12DC  083B               	movf	___fldiv@b+3,w
  4394  12DD  00BF               	movwf	??___fldiv+3
  4395  12DE  3001               	movlw	1
  4396  12DF  00C0               	movwf	??___fldiv+4
  4397  12E0                     u3425:	
  4398  12E0  0D3F               	rlf	??___fldiv+3,w
  4399  12E1  0CBF               	rrf	??___fldiv+3,f
  4400  12E2  0CBE               	rrf	??___fldiv+2,f
  4401  12E3  0CBD               	rrf	??___fldiv+1,f
  4402  12E4  0CBC               	rrf	??___fldiv,f
  4403  12E5  0BC0               	decfsz	??___fldiv+4,f
  4404  12E6  2AE0               	goto	u3425
  4405  12E7  083F               	movf	??___fldiv+3,w
  4406  12E8  00BB               	movwf	___fldiv@b+3
  4407  12E9  083E               	movf	??___fldiv+2,w
  4408  12EA  00BA               	movwf	___fldiv@b+2
  4409  12EB  083D               	movf	??___fldiv+1,w
  4410  12EC  00B9               	movwf	___fldiv@b+1
  4411  12ED  083C               	movf	??___fldiv,w
  4412  12EE  00B8               	movwf	___fldiv@b
  4413  12EF  3001               	movlw	1
  4414  12F0  07C6               	addwf	___fldiv@new_exp,f
  4415  12F1  1803               	skipnc
  4416  12F2  0AC7               	incf	___fldiv@new_exp+1,f
  4417  12F3  3000               	movlw	0
  4418  12F4  07C7               	addwf	___fldiv@new_exp+1,f
  4419  12F5                     l2518:	
  4420  12F5  0847               	movf	___fldiv@new_exp+1,w
  4421  12F6  3A80               	xorlw	128
  4422  12F7  00FF               	movwf	127
  4423  12F8  3080               	movlw	128
  4424  12F9  027F               	subwf	127,w
  4425  12FA  1D03               	skipz
  4426  12FB  2AFE               	goto	u3435
  4427  12FC  30FF               	movlw	255
  4428  12FD  0246               	subwf	___fldiv@new_exp,w
  4429  12FE                     u3435:	
  4430  12FE  1C03               	skipc
  4431  12FF  2B0E               	goto	l2522
  4432  1300  30FF               	movlw	255
  4433  1301  1283               	bcf	3,5	;RP0=0, select bank0
  4434  1302  1303               	bcf	3,6	;RP1=0, select bank0
  4435  1303  00C6               	movwf	___fldiv@new_exp
  4436  1304  3000               	movlw	0
  4437  1305  00C7               	movwf	___fldiv@new_exp+1
  4438  1306  3000               	movlw	0
  4439  1307  00BB               	movwf	___fldiv@b+3
  4440  1308  3000               	movlw	0
  4441  1309  00BA               	movwf	___fldiv@b+2
  4442  130A  3000               	movlw	0
  4443  130B  00B9               	movwf	___fldiv@b+1
  4444  130C  3000               	movlw	0
  4445  130D  00B8               	movwf	___fldiv@b
  4446  130E                     l2522:	
  4447  130E  1283               	bcf	3,5	;RP0=0, select bank0
  4448  130F  1303               	bcf	3,6	;RP1=0, select bank0
  4449  1310  0847               	movf	___fldiv@new_exp+1,w
  4450  1311  3A80               	xorlw	128
  4451  1312  00FF               	movwf	127
  4452  1313  3080               	movlw	128
  4453  1314  027F               	subwf	127,w
  4454  1315  1D03               	skipz
  4455  1316  2B19               	goto	u3445
  4456  1317  3001               	movlw	1
  4457  1318  0246               	subwf	___fldiv@new_exp,w
  4458  1319                     u3445:	
  4459  1319  1803               	skipnc
  4460  131A  2B28               	goto	l596
  4461  131B  1283               	bcf	3,5	;RP0=0, select bank0
  4462  131C  1303               	bcf	3,6	;RP1=0, select bank0
  4463  131D  01C6               	clrf	___fldiv@new_exp
  4464  131E  01C7               	clrf	___fldiv@new_exp+1
  4465  131F  3000               	movlw	0
  4466  1320  00BB               	movwf	___fldiv@b+3
  4467  1321  3000               	movlw	0
  4468  1322  00BA               	movwf	___fldiv@b+2
  4469  1323  3000               	movlw	0
  4470  1324  00B9               	movwf	___fldiv@b+1
  4471  1325  3000               	movlw	0
  4472  1326  00B8               	movwf	___fldiv@b
  4473  1327  01C5               	clrf	___fldiv@sign
  4474  1328                     l596:	
  4475  1328  1283               	bcf	3,5	;RP0=0, select bank0
  4476  1329  1303               	bcf	3,6	;RP1=0, select bank0
  4477  132A  0846               	movf	___fldiv@new_exp,w
  4478  132B  00BC               	movwf	??___fldiv
  4479  132C  083C               	movf	??___fldiv,w
  4480  132D  00CC               	movwf	___fldiv@bexp
  4481  132E  1C4C               	btfss	___fldiv@bexp,0
  4482  132F  2B32               	goto	l2534
  4483  1330  17BA               	bsf	___fldiv@b+2,7
  4484  1331  2B36               	goto	l598
  4485  1332                     l2534:	
  4486  1332  307F               	movlw	127
  4487  1333  00BC               	movwf	??___fldiv
  4488  1334  083C               	movf	??___fldiv,w
  4489  1335  05BA               	andwf	___fldiv@b+2,f
  4490  1336                     l598:	
  4491  1336  084C               	movf	___fldiv@bexp,w
  4492  1337  00BC               	movwf	??___fldiv
  4493  1338  1003               	clrc
  4494  1339  0C3C               	rrf	??___fldiv,w
  4495  133A  00BD               	movwf	??___fldiv+1
  4496  133B  083D               	movf	??___fldiv+1,w
  4497  133C  00BB               	movwf	___fldiv@b+3
  4498  133D  29FB               	goto	L3
  4499  133E                     __end_of___fldiv:	
  4500                           
  4501                           	psect	text11
  4502  1C4F                     __ptext11:	
  4503 ;; *************** function _Lcd_Start *****************
  4504 ;; Defined at:
  4505 ;;		line 114 in file "sun_main.c"
  4506 ;; Parameters:    Size  Location     Type
  4507 ;;		None
  4508 ;; Auto vars:     Size  Location     Type
  4509 ;;  i               4    0        long 
  4510 ;; Return value:  Size  Location     Type
  4511 ;;                  1    wreg      void 
  4512 ;; Registers used:
  4513 ;;		wreg, status,2, status,0, pclath, cstack
  4514 ;; Tracked objects:
  4515 ;;		On entry : 0/0
  4516 ;;		On exit  : 0/0
  4517 ;;		Unchanged: 0/0
  4518 ;; Data sizes:     COMMON   BANK0   BANK1   BANK3   BANK2
  4519 ;;      Params:         0       0       0       0       0
  4520 ;;      Locals:         4       0       0       0       0
  4521 ;;      Temps:          2       0       0       0       0
  4522 ;;      Totals:         6       0       0       0       0
  4523 ;;Total ram usage:        6 bytes
  4524 ;; Hardware stack levels used:    1
  4525 ;; Hardware stack levels required when called:    2
  4526 ;; This function calls:
  4527 ;;		_Lcd_Cmd
  4528 ;;		_Lcd_SetBit
  4529 ;; This function is called by:
  4530 ;;		_main
  4531 ;; This function uses a non-reentrant model
  4532 ;;
  4533                           
  4534                           
  4535                           ;psect for function _Lcd_Start
  4536  1C4F                     _Lcd_Start:	
  4537                           
  4538                           ;sun_main.c: 116:   Lcd_SetBit(0x00);
  4539                           
  4540                           ;incstack = 0
  4541                           ; Regs used in _Lcd_Start: [wreg+status,2+status,0+pclath+cstack]
  4542  1C4F  3000               	movlw	0
  4543  1C50  160A  158A  2265  160A  158A  	fcall	_Lcd_SetBit
  4544                           
  4545                           ;sun_main.c: 118:   Lcd_Cmd(0x03);
  4546  1C55  3003               	movlw	3
  4547  1C56  160A  158A  227F  160A  158A  	fcall	_Lcd_Cmd
  4548                           
  4549                           ;sun_main.c: 119:     _delay((unsigned long)((5)*(20000000/4000.0)));
  4550  1C5B  3021               	movlw	33
  4551  1C5C  00F5               	movwf	??_Lcd_Start+1
  4552  1C5D  3076               	movlw	118
  4553  1C5E  00F4               	movwf	??_Lcd_Start
  4554  1C5F                     u4367:	
  4555  1C5F  0BF4               	decfsz	??_Lcd_Start,f
  4556  1C60  2C5F               	goto	u4367
  4557  1C61  0BF5               	decfsz	??_Lcd_Start+1,f
  4558  1C62  2C5F               	goto	u4367
  4559  1C63  0000               	nop
  4560                           
  4561                           ;sun_main.c: 120:   Lcd_Cmd(0x03);
  4562  1C64  3003               	movlw	3
  4563  1C65  160A  158A  227F  160A  158A  	fcall	_Lcd_Cmd
  4564                           
  4565                           ;sun_main.c: 121:     _delay((unsigned long)((11)*(20000000/4000.0)));
  4566  1C6A  3048               	movlw	72
  4567  1C6B  00F5               	movwf	??_Lcd_Start+1
  4568  1C6C  306C               	movlw	108
  4569  1C6D  00F4               	movwf	??_Lcd_Start
  4570  1C6E                     u4377:	
  4571  1C6E  0BF4               	decfsz	??_Lcd_Start,f
  4572  1C6F  2C6E               	goto	u4377
  4573  1C70  0BF5               	decfsz	??_Lcd_Start+1,f
  4574  1C71  2C6E               	goto	u4377
  4575  1C72  0000               	nop
  4576                           
  4577                           ;sun_main.c: 122:   Lcd_Cmd(0x03);
  4578  1C73  3003               	movlw	3
  4579  1C74  160A  158A  227F  160A  158A  	fcall	_Lcd_Cmd
  4580                           
  4581                           ;sun_main.c: 123:   Lcd_Cmd(0x02);
  4582  1C79  3002               	movlw	2
  4583  1C7A  160A  158A  227F  160A  158A  	fcall	_Lcd_Cmd
  4584                           
  4585                           ;sun_main.c: 124:   Lcd_Cmd(0x02);
  4586  1C7F  3002               	movlw	2
  4587  1C80  160A  158A  227F  160A  158A  	fcall	_Lcd_Cmd
  4588                           
  4589                           ;sun_main.c: 125:   Lcd_Cmd(0x08);
  4590  1C85  3008               	movlw	8
  4591  1C86  160A  158A  227F  160A  158A  	fcall	_Lcd_Cmd
  4592                           
  4593                           ;sun_main.c: 126:   Lcd_Cmd(0x00);
  4594  1C8B  3000               	movlw	0
  4595  1C8C  160A  158A  227F  160A  158A  	fcall	_Lcd_Cmd
  4596                           
  4597                           ;sun_main.c: 127:   Lcd_Cmd(0x0C);
  4598  1C91  300C               	movlw	12
  4599  1C92  160A  158A  227F  160A  158A  	fcall	_Lcd_Cmd
  4600                           
  4601                           ;sun_main.c: 128:   Lcd_Cmd(0x00);
  4602  1C97  3000               	movlw	0
  4603  1C98  160A  158A  227F  160A  158A  	fcall	_Lcd_Cmd
  4604                           
  4605                           ;sun_main.c: 129:   Lcd_Cmd(0x06);
  4606  1C9D  3006               	movlw	6
  4607  1C9E  160A  158A  227F   	fcall	_Lcd_Cmd
  4608  1CA1  0008               	return
  4609  1CA2                     __end_of_Lcd_Start:	
  4610                           
  4611                           	psect	text12
  4612  1BBB                     __ptext12:	
  4613 ;; *************** function _Lcd_Set_Cursor *****************
  4614 ;; Defined at:
  4615 ;;		line 94 in file "sun_main.c"
  4616 ;; Parameters:    Size  Location     Type
  4617 ;;  a               1    wreg     unsigned char 
  4618 ;;  b               1    4[COMMON] unsigned char 
  4619 ;; Auto vars:     Size  Location     Type
  4620 ;;  a               1    7[COMMON] unsigned char 
  4621 ;;  temp            1   10[COMMON] unsigned char 
  4622 ;;  y               1    9[COMMON] unsigned char 
  4623 ;;  z               1    8[COMMON] unsigned char 
  4624 ;; Return value:  Size  Location     Type
  4625 ;;                  1    wreg      void 
  4626 ;; Registers used:
  4627 ;;		wreg, status,2, status,0, pclath, cstack
  4628 ;; Tracked objects:
  4629 ;;		On entry : 0/0
  4630 ;;		On exit  : 0/0
  4631 ;;		Unchanged: 0/0
  4632 ;; Data sizes:     COMMON   BANK0   BANK1   BANK3   BANK2
  4633 ;;      Params:         1       0       0       0       0
  4634 ;;      Locals:         4       0       0       0       0
  4635 ;;      Temps:          2       0       0       0       0
  4636 ;;      Totals:         7       0       0       0       0
  4637 ;;Total ram usage:        7 bytes
  4638 ;; Hardware stack levels used:    1
  4639 ;; Hardware stack levels required when called:    2
  4640 ;; This function calls:
  4641 ;;		_Lcd_Cmd
  4642 ;; This function is called by:
  4643 ;;		_main
  4644 ;; This function uses a non-reentrant model
  4645 ;;
  4646                           
  4647                           
  4648                           ;psect for function _Lcd_Set_Cursor
  4649  1BBB                     _Lcd_Set_Cursor:	
  4650                           
  4651                           ;incstack = 0
  4652                           ; Regs used in _Lcd_Set_Cursor: [wreg+status,2+status,0+pclath+cstack]
  4653                           ;Lcd_Set_Cursor@a stored from wreg
  4654  1BBB  00F7               	movwf	Lcd_Set_Cursor@a
  4655                           
  4656                           ;sun_main.c: 94: void Lcd_Set_Cursor(char a, char b);sun_main.c: 95: {;sun_main.c: 96:  
      +                             char temp,z,y;;sun_main.c: 97:     if(a== 1)
  4657  1BBC  0377               	decf	Lcd_Set_Cursor@a,w
  4658  1BBD  1D03               	btfss	3,2
  4659  1BBE  2BE0               	goto	l2978
  4660                           
  4661                           ;sun_main.c: 98:     {;sun_main.c: 99:       temp = 0x80 + b - 1;
  4662  1BBF  0874               	movf	Lcd_Set_Cursor@b,w
  4663  1BC0  3E7F               	addlw	127
  4664  1BC1  00F5               	movwf	??_Lcd_Set_Cursor
  4665  1BC2  0875               	movf	??_Lcd_Set_Cursor,w
  4666  1BC3  00FA               	movwf	Lcd_Set_Cursor@temp
  4667                           
  4668                           ;sun_main.c: 100:         z = temp>>4;
  4669  1BC4  087A               	movf	Lcd_Set_Cursor@temp,w
  4670  1BC5  00F5               	movwf	??_Lcd_Set_Cursor
  4671  1BC6  3004               	movlw	4
  4672  1BC7                     u4285:	
  4673  1BC7  1003               	clrc
  4674  1BC8  0CF5               	rrf	??_Lcd_Set_Cursor,f
  4675  1BC9  3EFF               	addlw	-1
  4676  1BCA  1D03               	skipz
  4677  1BCB  2BC7               	goto	u4285
  4678  1BCC  0875               	movf	??_Lcd_Set_Cursor,w
  4679  1BCD  00F6               	movwf	??_Lcd_Set_Cursor+1
  4680  1BCE  0876               	movf	??_Lcd_Set_Cursor+1,w
  4681  1BCF  00F8               	movwf	Lcd_Set_Cursor@z
  4682                           
  4683                           ;sun_main.c: 101:         y = temp & 0x0F;
  4684  1BD0  087A               	movf	Lcd_Set_Cursor@temp,w
  4685  1BD1  390F               	andlw	15
  4686  1BD2  00F5               	movwf	??_Lcd_Set_Cursor
  4687  1BD3  0875               	movf	??_Lcd_Set_Cursor,w
  4688  1BD4  00F9               	movwf	Lcd_Set_Cursor@y
  4689                           
  4690                           ;sun_main.c: 102:         Lcd_Cmd(z);
  4691  1BD5  0878               	movf	Lcd_Set_Cursor@z,w
  4692  1BD6  160A  158A  227F  160A  158A  	fcall	_Lcd_Cmd
  4693                           
  4694                           ;sun_main.c: 103:         Lcd_Cmd(y);
  4695  1BDB  0879               	movf	Lcd_Set_Cursor@y,w
  4696  1BDC  160A  158A  227F   	fcall	_Lcd_Cmd
  4697                           
  4698                           ;sun_main.c: 104:     }
  4699  1BDF  0008               	return
  4700  1BE0                     l2978:	
  4701  1BE0  3002               	movlw	2
  4702  1BE1  0677               	xorwf	Lcd_Set_Cursor@a,w
  4703  1BE2  1D03               	btfss	3,2
  4704  1BE3  0008               	return
  4705                           
  4706                           ;sun_main.c: 106:     {;sun_main.c: 107:         temp = 0xC0 + b - 1;
  4707  1BE4  0874               	movf	Lcd_Set_Cursor@b,w
  4708  1BE5  3EBF               	addlw	191
  4709  1BE6  00F5               	movwf	??_Lcd_Set_Cursor
  4710  1BE7  0875               	movf	??_Lcd_Set_Cursor,w
  4711  1BE8  00FA               	movwf	Lcd_Set_Cursor@temp
  4712                           
  4713                           ;sun_main.c: 108:         z = temp>>4;
  4714  1BE9  087A               	movf	Lcd_Set_Cursor@temp,w
  4715  1BEA  00F5               	movwf	??_Lcd_Set_Cursor
  4716  1BEB  3004               	movlw	4
  4717  1BEC                     u4305:	
  4718  1BEC  1003               	clrc
  4719  1BED  0CF5               	rrf	??_Lcd_Set_Cursor,f
  4720  1BEE  3EFF               	addlw	-1
  4721  1BEF  1D03               	skipz
  4722  1BF0  2BEC               	goto	u4305
  4723  1BF1  0875               	movf	??_Lcd_Set_Cursor,w
  4724  1BF2  00F6               	movwf	??_Lcd_Set_Cursor+1
  4725  1BF3  0876               	movf	??_Lcd_Set_Cursor+1,w
  4726  1BF4  00F8               	movwf	Lcd_Set_Cursor@z
  4727                           
  4728                           ;sun_main.c: 109:         y = temp & 0x0F;
  4729  1BF5  087A               	movf	Lcd_Set_Cursor@temp,w
  4730  1BF6  390F               	andlw	15
  4731  1BF7  00F5               	movwf	??_Lcd_Set_Cursor
  4732  1BF8  0875               	movf	??_Lcd_Set_Cursor,w
  4733  1BF9  00F9               	movwf	Lcd_Set_Cursor@y
  4734                           
  4735                           ;sun_main.c: 110:         Lcd_Cmd(z);
  4736  1BFA  0878               	movf	Lcd_Set_Cursor@z,w
  4737  1BFB  160A  158A  227F  160A  158A  	fcall	_Lcd_Cmd
  4738                           
  4739                           ;sun_main.c: 111:         Lcd_Cmd(y);
  4740  1C00  0879               	movf	Lcd_Set_Cursor@y,w
  4741  1C01  160A  158A  227F   	fcall	_Lcd_Cmd
  4742  1C04  0008               	return
  4743  1C05                     __end_of_Lcd_Set_Cursor:	
  4744                           
  4745                           	psect	text13
  4746  1005                     __ptext13:	
  4747 ;; *************** function _Lcd_Print_Ang *****************
  4748 ;; Defined at:
  4749 ;;		line 154 in file "sun_main.c"
  4750 ;; Parameters:    Size  Location     Type
  4751 ;;  f               4   10[BANK1 ] float 
  4752 ;; Auto vars:     Size  Location     Type
  4753 ;;  str            80    0[BANK3 ] unsigned char [80]
  4754 ;;  fval            4   80[BANK3 ] float 
  4755 ;;  ival            2   84[BANK3 ] int 
  4756 ;; Return value:  Size  Location     Type
  4757 ;;                  1    wreg      void 
  4758 ;; Registers used:
  4759 ;;		wreg, fsr0l, fsr0h, status,2, status,0, btemp+1, pclath, cstack
  4760 ;; Tracked objects:
  4761 ;;		On entry : 0/0
  4762 ;;		On exit  : 0/0
  4763 ;;		Unchanged: 0/0
  4764 ;; Data sizes:     COMMON   BANK0   BANK1   BANK3   BANK2
  4765 ;;      Params:         0       0       4       0       0
  4766 ;;      Locals:         0       0       0      86       0
  4767 ;;      Temps:          0       0       1       0       0
  4768 ;;      Totals:         0       0       5      86       0
  4769 ;;Total ram usage:       91 bytes
  4770 ;; Hardware stack levels used:    1
  4771 ;; Hardware stack levels required when called:    3
  4772 ;; This function calls:
  4773 ;;		_Lcd_Print_String
  4774 ;;		___flmul
  4775 ;;		___flsub
  4776 ;;		___fltol
  4777 ;;		___xxtofl
  4778 ;;		_sprintf
  4779 ;; This function is called by:
  4780 ;;		_main
  4781 ;; This function uses a non-reentrant model
  4782 ;;
  4783                           
  4784                           
  4785                           ;psect for function _Lcd_Print_Ang
  4786  1005                     _Lcd_Print_Ang:	
  4787                           
  4788                           ;sun_main.c: 154: void Lcd_Print_Ang(float f);sun_main.c: 155: {;sun_main.c: 156:  char 
      +                          str[80];;sun_main.c: 157:  int ival = (int) f;
  4789                           
  4790                           ;incstack = 0
  4791                           ; Regs used in _Lcd_Print_Ang: [wreg-fsr0h+status,2+status,0+btemp+1+pclath+cstack]
  4792  1005  1683               	bsf	3,5	;RP0=1, select bank1
  4793  1006  1303               	bcf	3,6	;RP1=0, select bank1
  4794  1007  082D               	movf	(Lcd_Print_Ang@f+3)^(0+128),w
  4795  1008  00F3               	movwf	___fltol@f1+3
  4796  1009  082C               	movf	(Lcd_Print_Ang@f+2)^(0+128),w
  4797  100A  00F2               	movwf	___fltol@f1+2
  4798  100B  082B               	movf	(Lcd_Print_Ang@f+1)^(0+128),w
  4799  100C  00F1               	movwf	___fltol@f1+1
  4800  100D  082A               	movf	Lcd_Print_Ang@f^(0+128),w
  4801  100E  00F0               	movwf	___fltol@f1
  4802  100F  160A  158A  24F5  160A  118A  	fcall	___fltol
  4803  1014  0871               	movf	?___fltol+1,w
  4804  1015  1683               	bsf	3,5	;RP0=1, select bank3
  4805  1016  1703               	bsf	3,6	;RP1=1, select bank3
  4806  1017  00E5               	movwf	(Lcd_Print_Ang@ival+1)^(0+384)
  4807  1018  0870               	movf	?___fltol,w
  4808  1019  00E4               	movwf	Lcd_Print_Ang@ival^(0+384)
  4809                           
  4810                           ;sun_main.c: 158:  float fval = f - ival;
  4811  101A  0864               	movf	Lcd_Print_Ang@ival^(0+384),w
  4812  101B  00F5               	movwf	___xxtofl@val
  4813  101C  0865               	movf	(Lcd_Print_Ang@ival+1)^(0+384),w
  4814  101D  00F6               	movwf	___xxtofl@val+1
  4815  101E  3000               	movlw	0
  4816  101F  1BF6               	btfsc	___xxtofl@val+1,7
  4817  1020  30FF               	movlw	255
  4818  1021  00F7               	movwf	___xxtofl@val+2
  4819  1022  00F8               	movwf	___xxtofl@val+3
  4820  1023  3001               	movlw	1
  4821  1024  160A  158A  267B  160A  118A  	fcall	___xxtofl
  4822  1029  0878               	movf	?___xxtofl+3,w
  4823  102A  1283               	bcf	3,5	;RP0=0, select bank0
  4824  102B  1303               	bcf	3,6	;RP1=0, select bank0
  4825  102C  00EB               	movwf	___flsub@a+3
  4826  102D  0877               	movf	?___xxtofl+2,w
  4827  102E  00EA               	movwf	___flsub@a+2
  4828  102F  0876               	movf	?___xxtofl+1,w
  4829  1030  00E9               	movwf	___flsub@a+1
  4830  1031  0875               	movf	?___xxtofl,w
  4831  1032  00E8               	movwf	___flsub@a
  4832  1033  1683               	bsf	3,5	;RP0=1, select bank1
  4833  1034  1303               	bcf	3,6	;RP1=0, select bank1
  4834  1035  082D               	movf	(Lcd_Print_Ang@f+3)^(0+128),w
  4835  1036  1283               	bcf	3,5	;RP0=0, select bank0
  4836  1037  1303               	bcf	3,6	;RP1=0, select bank0
  4837  1038  00EF               	movwf	___flsub@b+3
  4838  1039  1683               	bsf	3,5	;RP0=1, select bank1
  4839  103A  1303               	bcf	3,6	;RP1=0, select bank1
  4840  103B  082C               	movf	(Lcd_Print_Ang@f+2)^(0+128),w
  4841  103C  1283               	bcf	3,5	;RP0=0, select bank0
  4842  103D  1303               	bcf	3,6	;RP1=0, select bank0
  4843  103E  00EE               	movwf	___flsub@b+2
  4844  103F  1683               	bsf	3,5	;RP0=1, select bank1
  4845  1040  1303               	bcf	3,6	;RP1=0, select bank1
  4846  1041  082B               	movf	(Lcd_Print_Ang@f+1)^(0+128),w
  4847  1042  1283               	bcf	3,5	;RP0=0, select bank0
  4848  1043  1303               	bcf	3,6	;RP1=0, select bank0
  4849  1044  00ED               	movwf	___flsub@b+1
  4850  1045  1683               	bsf	3,5	;RP0=1, select bank1
  4851  1046  1303               	bcf	3,6	;RP1=0, select bank1
  4852  1047  082A               	movf	Lcd_Print_Ang@f^(0+128),w
  4853  1048  1283               	bcf	3,5	;RP0=0, select bank0
  4854  1049  1303               	bcf	3,6	;RP1=0, select bank0
  4855  104A  00EC               	movwf	___flsub@b
  4856  104B  160A  158A  22BB  160A  118A  	fcall	___flsub
  4857  1050  1283               	bcf	3,5	;RP0=0, select bank0
  4858  1051  1303               	bcf	3,6	;RP1=0, select bank0
  4859  1052  086B               	movf	?___flsub+3,w
  4860  1053  1683               	bsf	3,5	;RP0=1, select bank3
  4861  1054  1703               	bsf	3,6	;RP1=1, select bank3
  4862  1055  00E3               	movwf	(Lcd_Print_Ang@fval+3)^(0+384)
  4863  1056  1283               	bcf	3,5	;RP0=0, select bank0
  4864  1057  1303               	bcf	3,6	;RP1=0, select bank0
  4865  1058  086A               	movf	?___flsub+2,w
  4866  1059  1683               	bsf	3,5	;RP0=1, select bank3
  4867  105A  1703               	bsf	3,6	;RP1=1, select bank3
  4868  105B  00E2               	movwf	(Lcd_Print_Ang@fval+2)^(0+384)
  4869  105C  1283               	bcf	3,5	;RP0=0, select bank0
  4870  105D  1303               	bcf	3,6	;RP1=0, select bank0
  4871  105E  0869               	movf	?___flsub+1,w
  4872  105F  1683               	bsf	3,5	;RP0=1, select bank3
  4873  1060  1703               	bsf	3,6	;RP1=1, select bank3
  4874  1061  00E1               	movwf	(Lcd_Print_Ang@fval+1)^(0+384)
  4875  1062  1283               	bcf	3,5	;RP0=0, select bank0
  4876  1063  1303               	bcf	3,6	;RP1=0, select bank0
  4877  1064  0868               	movf	?___flsub,w
  4878  1065  1683               	bsf	3,5	;RP0=1, select bank3
  4879  1066  1703               	bsf	3,6	;RP1=1, select bank3
  4880  1067  00E0               	movwf	Lcd_Print_Ang@fval^(0+384)
  4881                           
  4882                           ;sun_main.c: 159:  sprintf( str, "%d.%d", ival, (int) 100*fval);
  4883  1068  3037               	movlw	(low ((STR_1-__stringbase)| (0+32768)))& (0+255)
  4884  1069  1683               	bsf	3,5	;RP0=1, select bank1
  4885  106A  1303               	bcf	3,6	;RP1=0, select bank1
  4886  106B  00AE               	movwf	??_Lcd_Print_Ang^(0+128)
  4887  106C  082E               	movf	??_Lcd_Print_Ang^(0+128),w
  4888  106D  1283               	bcf	3,5	;RP0=0, select bank0
  4889  106E  1303               	bcf	3,6	;RP1=0, select bank0
  4890  106F  00E8               	movwf	sprintf@f
  4891  1070  1683               	bsf	3,5	;RP0=1, select bank3
  4892  1071  1703               	bsf	3,6	;RP1=1, select bank3
  4893  1072  0865               	movf	(Lcd_Print_Ang@ival+1)^(0+384),w
  4894  1073  1283               	bcf	3,5	;RP0=0, select bank0
  4895  1074  1303               	bcf	3,6	;RP1=0, select bank0
  4896  1075  00EA               	movwf	?_sprintf+2
  4897  1076  1683               	bsf	3,5	;RP0=1, select bank3
  4898  1077  1703               	bsf	3,6	;RP1=1, select bank3
  4899  1078  0864               	movf	Lcd_Print_Ang@ival^(0+384),w
  4900  1079  1283               	bcf	3,5	;RP0=0, select bank0
  4901  107A  1303               	bcf	3,6	;RP1=0, select bank0
  4902  107B  00E9               	movwf	?_sprintf+1
  4903  107C  3042               	movlw	66
  4904  107D  00D1               	movwf	___flmul@b+3
  4905  107E  30C8               	movlw	200
  4906  107F  00D0               	movwf	___flmul@b+2
  4907  1080  3000               	movlw	0
  4908  1081  00CF               	movwf	___flmul@b+1
  4909  1082  3000               	movlw	0
  4910  1083  00CE               	movwf	___flmul@b
  4911  1084  1683               	bsf	3,5	;RP0=1, select bank3
  4912  1085  1703               	bsf	3,6	;RP1=1, select bank3
  4913  1086  0863               	movf	(Lcd_Print_Ang@fval+3)^(0+384),w
  4914  1087  1283               	bcf	3,5	;RP0=0, select bank0
  4915  1088  1303               	bcf	3,6	;RP1=0, select bank0
  4916  1089  00D5               	movwf	___flmul@a+3
  4917  108A  1683               	bsf	3,5	;RP0=1, select bank3
  4918  108B  1703               	bsf	3,6	;RP1=1, select bank3
  4919  108C  0862               	movf	(Lcd_Print_Ang@fval+2)^(0+384),w
  4920  108D  1283               	bcf	3,5	;RP0=0, select bank0
  4921  108E  1303               	bcf	3,6	;RP1=0, select bank0
  4922  108F  00D4               	movwf	___flmul@a+2
  4923  1090  1683               	bsf	3,5	;RP0=1, select bank3
  4924  1091  1703               	bsf	3,6	;RP1=1, select bank3
  4925  1092  0861               	movf	(Lcd_Print_Ang@fval+1)^(0+384),w
  4926  1093  1283               	bcf	3,5	;RP0=0, select bank0
  4927  1094  1303               	bcf	3,6	;RP1=0, select bank0
  4928  1095  00D3               	movwf	___flmul@a+1
  4929  1096  1683               	bsf	3,5	;RP0=1, select bank3
  4930  1097  1703               	bsf	3,6	;RP1=1, select bank3
  4931  1098  0860               	movf	Lcd_Print_Ang@fval^(0+384),w
  4932  1099  1283               	bcf	3,5	;RP0=0, select bank0
  4933  109A  1303               	bcf	3,6	;RP1=0, select bank0
  4934  109B  00D2               	movwf	___flmul@a
  4935  109C  120A  158A  24EB  160A  118A  	fcall	___flmul
  4936  10A1  1283               	bcf	3,5	;RP0=0, select bank0
  4937  10A2  1303               	bcf	3,6	;RP1=0, select bank0
  4938  10A3  0851               	movf	?___flmul+3,w
  4939  10A4  00EE               	movwf	?_sprintf+6
  4940  10A5  0850               	movf	?___flmul+2,w
  4941  10A6  00ED               	movwf	?_sprintf+5
  4942  10A7  084F               	movf	?___flmul+1,w
  4943  10A8  00EC               	movwf	?_sprintf+4
  4944  10A9  084E               	movf	?___flmul,w
  4945  10AA  00EB               	movwf	?_sprintf+3
  4946  10AB  3090               	movlw	(low (Lcd_Print_Ang@str| (0+256)))& (0+255)
  4947  10AC  160A  158A  2720  160A  118A  	fcall	_sprintf
  4948                           
  4949                           ;sun_main.c: 160:  Lcd_Print_String(str);
  4950  10B1  3090               	movlw	(low (Lcd_Print_Ang@str| (0+256)))& (0+255)
  4951  10B2  160A  158A  2299   	fcall	_Lcd_Print_String
  4952  10B5  0008               	return
  4953  10B6                     __end_of_Lcd_Print_Ang:	
  4954                           
  4955                           	psect	text14
  4956  1F20                     __ptext14:	
  4957 ;; *************** function _sprintf *****************
  4958 ;; Defined at:
  4959 ;;		line 500 in file "C:\Program Files (x86)\Microchip\xc8\v2.05\pic\sources\c90\common\doprnt.c"
  4960 ;; Parameters:    Size  Location     Type
  4961 ;;  sp              1    wreg     PTR unsigned char 
  4962 ;;		 -> Lcd_Print_Ang@str(80), 
  4963 ;;  f               1   72[BANK0 ] PTR const unsigned char 
  4964 ;;		 -> STR_1(6), 
  4965 ;; Auto vars:     Size  Location     Type
  4966 ;;  sp              1    8[BANK1 ] PTR unsigned char 
  4967 ;;		 -> Lcd_Print_Ang@str(80), 
  4968 ;;  tmpval          4    0        struct .
  4969 ;;  val             2    6[BANK1 ] unsigned int 
  4970 ;;  cp              2    0        PTR const unsigned char 
  4971 ;;  len             2    0        unsigned int 
  4972 ;;  c               1    9[BANK1 ] unsigned char 
  4973 ;;  prec            1    5[BANK1 ] char 
  4974 ;;  flag            1    4[BANK1 ] unsigned char 
  4975 ;;  ap              1    3[BANK1 ] PTR void [1]
  4976 ;;		 -> ?_sprintf(2), 
  4977 ;; Return value:  Size  Location     Type
  4978 ;;                  2   72[BANK0 ] int 
  4979 ;; Registers used:
  4980 ;;		wreg, fsr0l, fsr0h, status,2, status,0, btemp+1, pclath, cstack
  4981 ;; Tracked objects:
  4982 ;;		On entry : 0/0
  4983 ;;		On exit  : 0/0
  4984 ;;		Unchanged: 0/0
  4985 ;; Data sizes:     COMMON   BANK0   BANK1   BANK3   BANK2
  4986 ;;      Params:         0       7       0       0       0
  4987 ;;      Locals:         0       0       7       0       0
  4988 ;;      Temps:          0       0       3       0       0
  4989 ;;      Totals:         0       7      10       0       0
  4990 ;;Total ram usage:       17 bytes
  4991 ;; Hardware stack levels used:    1
  4992 ;; Hardware stack levels required when called:    1
  4993 ;; This function calls:
  4994 ;;		___lwdiv
  4995 ;;		___lwmod
  4996 ;; This function is called by:
  4997 ;;		_Lcd_Print_Ang
  4998 ;; This function uses a non-reentrant model
  4999 ;;
  5000                           
  5001                           
  5002                           ;psect for function _sprintf
  5003  1F20                     _sprintf:	
  5004                           
  5005                           ;incstack = 0
  5006                           ; Regs used in _sprintf: [wreg-fsr0h+status,2+status,0+btemp+1+pclath+cstack]
  5007                           ;sprintf@sp stored from wreg
  5008  1F20  1683               	bsf	3,5	;RP0=1, select bank1
  5009  1F21  1303               	bcf	3,6	;RP1=0, select bank1
  5010  1F22  00A8               	movwf	sprintf@sp^(0+128)
  5011                           
  5012                           ;C:\Program Files (x86)\Microchip\xc8\v2.05\pic\sources\c90\common\doprnt.c: 500: sprint
      +                          f(char * sp, const char * f, ...);C:\Program Files (x86)\Microchip\xc8\v2.05\pic\sources
      +                          \c90\common\doprnt.c: 501: {;C:\Program Files (x86)\Microchip\xc8\v2.05\pic\sources\c90\
      +                          common\doprnt.c: 502:  va_list ap;;C:\Program Files (x86)\Microchip\xc8\v2.05\pic\source
      +                          s\c90\common\doprnt.c: 507:  char c;;C:\Program Files (x86)\Microchip\xc8\v2.05\pic\sour
      +                          ces\c90\common\doprnt.c: 516:  signed char prec;;C:\Program Files (x86)\Microchip\xc8\v2
      +                          .05\pic\sources\c90\common\doprnt.c: 520:  unsigned char flag;
  5013  1F23  3069               	movlw	(low ((?_sprintf| 0+1)))& (0+255)
  5014  1F24  00A0               	movwf	??_sprintf^(0+128)
  5015  1F25  0820               	movf	??_sprintf^(0+128),w
  5016  1F26  00A3               	movwf	sprintf@ap^(0+128)
  5017  1F27                     l2824:	
  5018                           ;C:\Program Files (x86)\Microchip\xc8\v2.05\pic\sources\c90\common\doprnt.c: 548:  while
      +                          ((c = *f++)) {
  5019                           
  5020                           
  5021                           ;C:\Program Files (x86)\Microchip\xc8\v2.05\pic\sources\c90\common\doprnt.c: 548:  while
      +                          ((c = *f++)) {
  5022  1F27  3001               	movlw	1
  5023  1F28  1283               	bcf	3,5	;RP0=0, select bank0
  5024  1F29  1303               	bcf	3,6	;RP1=0, select bank0
  5025  1F2A  07E8               	addwf	sprintf@f,f
  5026  1F2B  30FF               	movlw	-1
  5027  1F2C  0768               	addwf	sprintf@f,w
  5028  1F2D  0084               	movwf	4
  5029  1F2E  120A  118A  2003  160A  158A  	fcall	stringdir
  5030  1F33  1683               	bsf	3,5	;RP0=1, select bank1
  5031  1F34  1303               	bcf	3,6	;RP1=0, select bank1
  5032  1F35  00A0               	movwf	??_sprintf^(0+128)
  5033  1F36  0820               	movf	??_sprintf^(0+128),w
  5034  1F37  00A9               	movwf	sprintf@c^(0+128)
  5035  1F38  0829               	movf	sprintf@c^(0+128),w
  5036  1F39  1903               	btfsc	3,2
  5037  1F3A  2FFB               	goto	l2826
  5038                           
  5039                           ;C:\Program Files (x86)\Microchip\xc8\v2.05\pic\sources\c90\common\doprnt.c: 550:   if(c
      +                           != '%')
  5040  1F3B  3025               	movlw	37
  5041  1F3C  0629               	xorwf	sprintf@c^(0+128),w
  5042  1F3D  1903               	btfsc	3,2
  5043  1F3E  2F4B               	goto	l2780
  5044                           
  5045                           ;C:\Program Files (x86)\Microchip\xc8\v2.05\pic\sources\c90\common\doprnt.c: 552:   {;C:
      +                          \Program Files (x86)\Microchip\xc8\v2.05\pic\sources\c90\common\doprnt.c: 553:    ((*sp+
      +                          + = (c)));
  5046  1F3F  0829               	movf	sprintf@c^(0+128),w
  5047  1F40  00A0               	movwf	??_sprintf^(0+128)
  5048  1F41  0828               	movf	sprintf@sp^(0+128),w
  5049  1F42  0084               	movwf	4
  5050  1F43  0820               	movf	??_sprintf^(0+128),w
  5051  1F44  1783               	bsf	3,7	;select IRP bank2
  5052  1F45  0080               	movwf	0
  5053  1F46  3001               	movlw	1
  5054  1F47  00A0               	movwf	??_sprintf^(0+128)
  5055  1F48  0820               	movf	??_sprintf^(0+128),w
  5056  1F49  07A8               	addwf	sprintf@sp^(0+128),f
  5057                           
  5058                           ;C:\Program Files (x86)\Microchip\xc8\v2.05\pic\sources\c90\common\doprnt.c: 554:    con
      +                          tinue;
  5059  1F4A  2F27               	goto	l2824
  5060  1F4B                     l2780:	
  5061                           
  5062                           ;C:\Program Files (x86)\Microchip\xc8\v2.05\pic\sources\c90\common\doprnt.c: 560:   flag
      +                           = 0;
  5063  1F4B  01A4               	clrf	sprintf@flag^(0+128)
  5064                           
  5065                           ;C:\Program Files (x86)\Microchip\xc8\v2.05\pic\sources\c90\common\doprnt.c: 654:   swit
      +                          ch(c = *f++) {
  5066  1F4C  3001               	movlw	1
  5067  1F4D  1283               	bcf	3,5	;RP0=0, select bank0
  5068  1F4E  1303               	bcf	3,6	;RP1=0, select bank0
  5069  1F4F  07E8               	addwf	sprintf@f,f
  5070  1F50  30FF               	movlw	-1
  5071  1F51  0768               	addwf	sprintf@f,w
  5072  1F52  0084               	movwf	4
  5073  1F53  120A  118A  2003  160A  158A  	fcall	stringdir
  5074  1F58  1683               	bsf	3,5	;RP0=1, select bank1
  5075  1F59  1303               	bcf	3,6	;RP1=0, select bank1
  5076  1F5A  00A9               	movwf	sprintf@c^(0+128)
  5077  1F5B  00A0               	movwf	??_sprintf^(0+128)
  5078  1F5C  01A1               	clrf	(??_sprintf^(0+128)+1)
  5079                           
  5080                           ; Switch on 2 bytes has been partitioned into a top level switch of size 1, and 1 sub-sw
      +                          itches
  5081                           ; Switch size 1, requested type "simple"
  5082                           ; Number of cases is 1, Range of values is 0 to 0
  5083                           ; switch strategies available:
  5084                           ; Name         Instructions Cycles
  5085                           ; simple_byte            4     3 (average)
  5086                           ; direct_byte           11     8 (fixed)
  5087                           ; jumptable            260     6 (fixed)
  5088                           ;	Chosen strategy is simple_byte
  5089  1F5D  0821               	movf	(??_sprintf+1)^(0+128),w
  5090  1F5E  3A00               	xorlw	0	; case 0
  5091  1F5F  1903               	skipnz
  5092  1F60  2F62               	goto	l3314
  5093  1F61  2F27               	goto	l2824
  5094  1F62                     l3314:	
  5095                           
  5096                           ; Switch size 1, requested type "simple"
  5097                           ; Number of cases is 3, Range of values is 0 to 105
  5098                           ; switch strategies available:
  5099                           ; Name         Instructions Cycles
  5100                           ; simple_byte           10     6 (average)
  5101                           ; jumptable            260     6 (fixed)
  5102                           ;	Chosen strategy is simple_byte
  5103  1F62  0820               	movf	??_sprintf^(0+128),w
  5104  1F63  3A00               	xorlw	0	; case 0
  5105  1F64  1903               	skipnz
  5106  1F65  2FFB               	goto	l2826
  5107  1F66  3A64               	xorlw	100	; case 100
  5108  1F67  1903               	skipnz
  5109  1F68  2F6D               	goto	l2786
  5110  1F69  3A0D               	xorlw	13	; case 105
  5111  1F6A  1903               	skipnz
  5112  1F6B  2F6D               	goto	l2786
  5113  1F6C  2F27               	goto	l2824
  5114  1F6D                     l2786:	
  5115                           
  5116                           ;C:\Program Files (x86)\Microchip\xc8\v2.05\pic\sources\c90\common\doprnt.c: 1272:   {;C
      +                          :\Program Files (x86)\Microchip\xc8\v2.05\pic\sources\c90\common\doprnt.c: 1278:     val
      +                           = (int)(*(int *)__va_arg((*(int **)ap), (int)0));
  5117  1F6D  0823               	movf	sprintf@ap^(0+128),w
  5118  1F6E  0084               	movwf	4
  5119  1F6F  1383               	bcf	3,7	;select IRP bank0
  5120  1F70  0800               	movf	0,w
  5121  1F71  00A6               	movwf	sprintf@val^(0+128)
  5122  1F72  0A84               	incf	4,f
  5123  1F73  0800               	movf	0,w
  5124  1F74  00A7               	movwf	(sprintf@val+1)^(0+128)
  5125  1F75  3002               	movlw	2
  5126  1F76  00A0               	movwf	??_sprintf^(0+128)
  5127  1F77  0820               	movf	??_sprintf^(0+128),w
  5128  1F78  07A3               	addwf	sprintf@ap^(0+128),f
  5129                           
  5130                           ;C:\Program Files (x86)\Microchip\xc8\v2.05\pic\sources\c90\common\doprnt.c: 1280:    if
      +                          ((int)val < 0) {
  5131  1F79  1FA7               	btfss	(sprintf@val+1)^(0+128),7
  5132  1F7A  2F84               	goto	l2796
  5133                           
  5134                           ;C:\Program Files (x86)\Microchip\xc8\v2.05\pic\sources\c90\common\doprnt.c: 1281:     f
      +                          lag |= 0x03;
  5135  1F7B  3003               	movlw	3
  5136  1F7C  00A0               	movwf	??_sprintf^(0+128)
  5137  1F7D  0820               	movf	??_sprintf^(0+128),w
  5138  1F7E  04A4               	iorwf	sprintf@flag^(0+128),f
  5139                           
  5140                           ;C:\Program Files (x86)\Microchip\xc8\v2.05\pic\sources\c90\common\doprnt.c: 1282:     v
      +                          al = -val;
  5141  1F7F  09A6               	comf	sprintf@val^(0+128),f
  5142  1F80  09A7               	comf	(sprintf@val+1)^(0+128),f
  5143  1F81  0AA6               	incf	sprintf@val^(0+128),f
  5144  1F82  1903               	skipnz
  5145  1F83  0AA7               	incf	(sprintf@val+1)^(0+128),f
  5146  1F84                     l2796:	
  5147                           
  5148                           ;C:\Program Files (x86)\Microchip\xc8\v2.05\pic\sources\c90\common\doprnt.c: 1285:   };C
      +                          :\Program Files (x86)\Microchip\xc8\v2.05\pic\sources\c90\common\doprnt.c: 1324:    for(
      +                          c = 1 ; c != sizeof dpowers/sizeof dpowers[0] ; c++)
  5149  1F84  01A9               	clrf	sprintf@c^(0+128)
  5150  1F85  0AA9               	incf	sprintf@c^(0+128),f
  5151  1F86                     l2802:	
  5152                           
  5153                           ;C:\Program Files (x86)\Microchip\xc8\v2.05\pic\sources\c90\common\doprnt.c: 1325:     i
      +                          f(val < dpowers[c])
  5154  1F86  0829               	movf	sprintf@c^(0+128),w
  5155  1F87  00A0               	movwf	??_sprintf^(0+128)
  5156  1F88  0720               	addwf	??_sprintf^(0+128),w
  5157  1F89  3E01               	addlw	low ((_dpowers-__stringbase)| (0+32768))
  5158  1F8A  0084               	movwf	4
  5159  1F8B  120A  118A  2003  160A  158A  	fcall	stringdir
  5160  1F90  00A1               	movwf	(??_sprintf+1)^(0+128)
  5161  1F91  120A  118A  2003  160A  158A  	fcall	stringdir
  5162  1F96  00A2               	movwf	((??_sprintf+1)^(0+128)+1)
  5163  1F97  0822               	movf	(??_sprintf+2)^(0+128),w
  5164  1F98  0227               	subwf	(sprintf@val+1)^(0+128),w
  5165  1F99  1D03               	skipz
  5166  1F9A  2F9D               	goto	u3935
  5167  1F9B  0821               	movf	(??_sprintf+1)^(0+128),w
  5168  1F9C  0226               	subwf	sprintf@val^(0+128),w
  5169  1F9D                     u3935:	
  5170  1F9D  1C03               	btfss	3,0
  5171  1F9E  2FA7               	goto	l2808
  5172  1F9F  3001               	movlw	1
  5173  1FA0  00A0               	movwf	??_sprintf^(0+128)
  5174  1FA1  0820               	movf	??_sprintf^(0+128),w
  5175  1FA2  07A9               	addwf	sprintf@c^(0+128),f
  5176  1FA3  3005               	movlw	5
  5177  1FA4  0629               	xorwf	sprintf@c^(0+128),w
  5178  1FA5  1D03               	btfss	3,2
  5179  1FA6  2F86               	goto	l2802
  5180  1FA7                     l2808:	
  5181                           
  5182                           ;C:\Program Files (x86)\Microchip\xc8\v2.05\pic\sources\c90\common\doprnt.c: 1441:   {;C
      +                          :\Program Files (x86)\Microchip\xc8\v2.05\pic\sources\c90\common\doprnt.c: 1457:    if(f
      +                          lag & 0x03)
  5183  1FA7  0824               	movf	sprintf@flag^(0+128),w
  5184  1FA8  3903               	andlw	3
  5185  1FA9  1903               	btfsc	3,2
  5186  1FAA  2FB6               	goto	l2814
  5187                           
  5188                           ;C:\Program Files (x86)\Microchip\xc8\v2.05\pic\sources\c90\common\doprnt.c: 1458:     (
      +                          (*sp++ = ('-')));
  5189  1FAB  302D               	movlw	45
  5190  1FAC  00A0               	movwf	??_sprintf^(0+128)
  5191  1FAD  0828               	movf	sprintf@sp^(0+128),w
  5192  1FAE  0084               	movwf	4
  5193  1FAF  0820               	movf	??_sprintf^(0+128),w
  5194  1FB0  1783               	bsf	3,7	;select IRP bank2
  5195  1FB1  0080               	movwf	0
  5196  1FB2  3001               	movlw	1
  5197  1FB3  00A0               	movwf	??_sprintf^(0+128)
  5198  1FB4  0820               	movf	??_sprintf^(0+128),w
  5199  1FB5  07A8               	addwf	sprintf@sp^(0+128),f
  5200  1FB6                     l2814:	
  5201                           
  5202                           ;C:\Program Files (x86)\Microchip\xc8\v2.05\pic\sources\c90\common\doprnt.c: 1488:   };C
      +                          :\Program Files (x86)\Microchip\xc8\v2.05\pic\sources\c90\common\doprnt.c: 1491:   prec 
      +                          = c;
  5203  1FB6  0829               	movf	sprintf@c^(0+128),w
  5204  1FB7  00A0               	movwf	??_sprintf^(0+128)
  5205  1FB8  0820               	movf	??_sprintf^(0+128),w
  5206  1FB9  00A5               	movwf	sprintf@prec^(0+128)
  5207  1FBA                     l2822:	
  5208                           ;C:\Program Files (x86)\Microchip\xc8\v2.05\pic\sources\c90\common\doprnt.c: 1493:   whi
      +                          le(prec--) {
  5209                           
  5210                           
  5211                           ;C:\Program Files (x86)\Microchip\xc8\v2.05\pic\sources\c90\common\doprnt.c: 1493:   whi
      +                          le(prec--) {
  5212  1FBA  30FF               	movlw	255
  5213  1FBB  00A0               	movwf	??_sprintf^(0+128)
  5214  1FBC  0820               	movf	??_sprintf^(0+128),w
  5215  1FBD  07A5               	addwf	sprintf@prec^(0+128),f
  5216  1FBE  0A25               	incf	sprintf@prec^(0+128),w
  5217  1FBF  1903               	btfsc	3,2
  5218  1FC0  2F27               	goto	l2824
  5219                           
  5220                           ;C:\Program Files (x86)\Microchip\xc8\v2.05\pic\sources\c90\common\doprnt.c: 1497:    {;
      +                          C:\Program Files (x86)\Microchip\xc8\v2.05\pic\sources\c90\common\doprnt.c: 1508:     c 
      +                          = (val / dpowers[prec]) % 10 + '0';
  5221  1FC1  300A               	movlw	10
  5222  1FC2  00F8               	movwf	___lwmod@divisor
  5223  1FC3  3000               	movlw	0
  5224  1FC4  00F9               	movwf	___lwmod@divisor+1
  5225  1FC5  0825               	movf	sprintf@prec^(0+128),w
  5226  1FC6  00A0               	movwf	??_sprintf^(0+128)
  5227  1FC7  0720               	addwf	??_sprintf^(0+128),w
  5228  1FC8  3E01               	addlw	low ((_dpowers-__stringbase)| (0+32768))
  5229  1FC9  0084               	movwf	4
  5230  1FCA  120A  118A  2003  160A  158A  	fcall	stringdir
  5231  1FCF  00F0               	movwf	___lwdiv@divisor
  5232  1FD0  120A  118A  2003  160A  158A  	fcall	stringdir
  5233  1FD5  00F1               	movwf	___lwdiv@divisor+1
  5234  1FD6  0827               	movf	(sprintf@val+1)^(0+128),w
  5235  1FD7  00F3               	movwf	___lwdiv@dividend+1
  5236  1FD8  0826               	movf	sprintf@val^(0+128),w
  5237  1FD9  00F2               	movwf	___lwdiv@dividend
  5238  1FDA  160A  158A  237F  160A  158A  	fcall	___lwdiv
  5239  1FDF  0871               	movf	?___lwdiv+1,w
  5240  1FE0  00FB               	movwf	___lwmod@dividend+1
  5241  1FE1  0870               	movf	?___lwdiv,w
  5242  1FE2  00FA               	movwf	___lwmod@dividend
  5243  1FE3  120A  158A  2009  160A  158A  	fcall	___lwmod
  5244  1FE8  0878               	movf	?___lwmod,w
  5245  1FE9  3E30               	addlw	48
  5246  1FEA  1683               	bsf	3,5	;RP0=1, select bank1
  5247  1FEB  1303               	bcf	3,6	;RP1=0, select bank1
  5248  1FEC  00A1               	movwf	(??_sprintf+1)^(0+128)
  5249  1FED  0821               	movf	(??_sprintf+1)^(0+128),w
  5250  1FEE  00A9               	movwf	sprintf@c^(0+128)
  5251                           
  5252                           ;C:\Program Files (x86)\Microchip\xc8\v2.05\pic\sources\c90\common\doprnt.c: 1542:    };
      +                          C:\Program Files (x86)\Microchip\xc8\v2.05\pic\sources\c90\common\doprnt.c: 1543:    ((*
      +                          sp++ = (c)));
  5253  1FEF  0829               	movf	sprintf@c^(0+128),w
  5254  1FF0  00A0               	movwf	??_sprintf^(0+128)
  5255  1FF1  0828               	movf	sprintf@sp^(0+128),w
  5256  1FF2  0084               	movwf	4
  5257  1FF3  0820               	movf	??_sprintf^(0+128),w
  5258  1FF4  1783               	bsf	3,7	;select IRP bank2
  5259  1FF5  0080               	movwf	0
  5260  1FF6  3001               	movlw	1
  5261  1FF7  00A0               	movwf	??_sprintf^(0+128)
  5262  1FF8  0820               	movf	??_sprintf^(0+128),w
  5263  1FF9  07A8               	addwf	sprintf@sp^(0+128),f
  5264  1FFA  2FBA               	goto	l2822
  5265  1FFB                     l2826:	
  5266                           
  5267                           ;C:\Program Files (x86)\Microchip\xc8\v2.05\pic\sources\c90\common\doprnt.c: 1557:  *sp 
      +                          = 0;
  5268  1FFB  0828               	movf	sprintf@sp^(0+128),w
  5269  1FFC  0084               	movwf	4
  5270  1FFD  1783               	bsf	3,7	;select IRP bank2
  5271  1FFE  0180               	clrf	0
  5272  1FFF  0008               	return
  5273  2000                     __end_of_sprintf:	
  5274                           
  5275                           	psect	text15
  5276  0809                     __ptext15:	
  5277 ;; *************** function ___lwmod *****************
  5278 ;; Defined at:
  5279 ;;		line 5 in file "C:\Program Files (x86)\Microchip\xc8\v2.05\pic\sources\c90\common\lwmod.c"
  5280 ;; Parameters:    Size  Location     Type
  5281 ;;  divisor         2    8[COMMON] unsigned int 
  5282 ;;  dividend        2   10[COMMON] unsigned int 
  5283 ;; Auto vars:     Size  Location     Type
  5284 ;;  counter         1   13[COMMON] unsigned char 
  5285 ;; Return value:  Size  Location     Type
  5286 ;;                  2    8[COMMON] unsigned int 
  5287 ;; Registers used:
  5288 ;;		wreg, status,2, status,0
  5289 ;; Tracked objects:
  5290 ;;		On entry : 0/0
  5291 ;;		On exit  : 0/0
  5292 ;;		Unchanged: 0/0
  5293 ;; Data sizes:     COMMON   BANK0   BANK1   BANK3   BANK2
  5294 ;;      Params:         4       0       0       0       0
  5295 ;;      Locals:         1       0       0       0       0
  5296 ;;      Temps:          1       0       0       0       0
  5297 ;;      Totals:         6       0       0       0       0
  5298 ;;Total ram usage:        6 bytes
  5299 ;; Hardware stack levels used:    1
  5300 ;; This function calls:
  5301 ;;		Nothing
  5302 ;; This function is called by:
  5303 ;;		_sprintf
  5304 ;; This function uses a non-reentrant model
  5305 ;;
  5306                           
  5307                           
  5308                           ;psect for function ___lwmod
  5309  0809                     ___lwmod:	
  5310                           
  5311                           ;incstack = 0
  5312                           ; Regs used in ___lwmod: [wreg+status,2+status,0]
  5313  0809  0878               	movf	___lwmod@divisor,w
  5314  080A  0479               	iorwf	___lwmod@divisor+1,w
  5315  080B  1903               	btfsc	3,2
  5316  080C  2836               	goto	l2724
  5317  080D  01FD               	clrf	___lwmod@counter
  5318  080E  0AFD               	incf	___lwmod@counter,f
  5319  080F                     l2714:	
  5320  080F  1BF9               	btfsc	___lwmod@divisor+1,7
  5321  0810  281D               	goto	l2716
  5322  0811  3001               	movlw	1
  5323  0812                     u3795:	
  5324  0812  1003               	clrc
  5325  0813  0DF8               	rlf	___lwmod@divisor,f
  5326  0814  0DF9               	rlf	___lwmod@divisor+1,f
  5327  0815  3EFF               	addlw	-1
  5328  0816  1D03               	skipz
  5329  0817  2812               	goto	u3795
  5330  0818  3001               	movlw	1
  5331  0819  00FC               	movwf	??___lwmod
  5332  081A  087C               	movf	??___lwmod,w
  5333  081B  07FD               	addwf	___lwmod@counter,f
  5334  081C  280F               	goto	l2714
  5335  081D                     l2716:	
  5336  081D  0879               	movf	___lwmod@divisor+1,w
  5337  081E  027B               	subwf	___lwmod@dividend+1,w
  5338  081F  1D03               	skipz
  5339  0820  2823               	goto	u3815
  5340  0821  0878               	movf	___lwmod@divisor,w
  5341  0822  027A               	subwf	___lwmod@dividend,w
  5342  0823                     u3815:	
  5343  0823  1C03               	skipc
  5344  0824  282B               	goto	l2720
  5345  0825  0878               	movf	___lwmod@divisor,w
  5346  0826  02FA               	subwf	___lwmod@dividend,f
  5347  0827  0879               	movf	___lwmod@divisor+1,w
  5348  0828  1C03               	skipc
  5349  0829  03FB               	decf	___lwmod@dividend+1,f
  5350  082A  02FB               	subwf	___lwmod@dividend+1,f
  5351  082B                     l2720:	
  5352  082B  3001               	movlw	1
  5353  082C                     u3825:	
  5354  082C  1003               	clrc
  5355  082D  0CF9               	rrf	___lwmod@divisor+1,f
  5356  082E  0CF8               	rrf	___lwmod@divisor,f
  5357  082F  3EFF               	addlw	-1
  5358  0830  1D03               	skipz
  5359  0831  282C               	goto	u3825
  5360  0832  3001               	movlw	1
  5361  0833  02FD               	subwf	___lwmod@counter,f
  5362  0834  1D03               	btfss	3,2
  5363  0835  281D               	goto	l2716
  5364  0836                     l2724:	
  5365  0836  087B               	movf	___lwmod@dividend+1,w
  5366  0837  00F9               	movwf	?___lwmod+1
  5367  0838  087A               	movf	___lwmod@dividend,w
  5368  0839  00F8               	movwf	?___lwmod
  5369  083A  0008               	return
  5370  083B                     __end_of___lwmod:	
  5371                           
  5372                           	psect	text16
  5373  1B7F                     __ptext16:	
  5374 ;; *************** function ___lwdiv *****************
  5375 ;; Defined at:
  5376 ;;		line 5 in file "C:\Program Files (x86)\Microchip\xc8\v2.05\pic\sources\c90\common\lwdiv.c"
  5377 ;; Parameters:    Size  Location     Type
  5378 ;;  divisor         2    0[COMMON] unsigned int 
  5379 ;;  dividend        2    2[COMMON] unsigned int 
  5380 ;; Auto vars:     Size  Location     Type
  5381 ;;  quotient        2    5[COMMON] unsigned int 
  5382 ;;  counter         1    7[COMMON] unsigned char 
  5383 ;; Return value:  Size  Location     Type
  5384 ;;                  2    0[COMMON] unsigned int 
  5385 ;; Registers used:
  5386 ;;		wreg, status,2, status,0
  5387 ;; Tracked objects:
  5388 ;;		On entry : 0/0
  5389 ;;		On exit  : 0/0
  5390 ;;		Unchanged: 0/0
  5391 ;; Data sizes:     COMMON   BANK0   BANK1   BANK3   BANK2
  5392 ;;      Params:         4       0       0       0       0
  5393 ;;      Locals:         3       0       0       0       0
  5394 ;;      Temps:          1       0       0       0       0
  5395 ;;      Totals:         8       0       0       0       0
  5396 ;;Total ram usage:        8 bytes
  5397 ;; Hardware stack levels used:    1
  5398 ;; This function calls:
  5399 ;;		Nothing
  5400 ;; This function is called by:
  5401 ;;		_sprintf
  5402 ;; This function uses a non-reentrant model
  5403 ;;
  5404                           
  5405                           
  5406                           ;psect for function ___lwdiv
  5407  1B7F                     ___lwdiv:	
  5408                           
  5409                           ;incstack = 0
  5410                           ; Regs used in ___lwdiv: [wreg+status,2+status,0]
  5411  1B7F  01F5               	clrf	___lwdiv@quotient
  5412  1B80  01F6               	clrf	___lwdiv@quotient+1
  5413  1B81  0870               	movf	___lwdiv@divisor,w
  5414  1B82  0471               	iorwf	___lwdiv@divisor+1,w
  5415  1B83  1903               	btfsc	3,2
  5416  1B84  2BB6               	goto	l2702
  5417  1B85  01F7               	clrf	___lwdiv@counter
  5418  1B86  0AF7               	incf	___lwdiv@counter,f
  5419  1B87                     l2690:	
  5420  1B87  1BF1               	btfsc	___lwdiv@divisor+1,7
  5421  1B88  2B95               	goto	l2692
  5422  1B89  3001               	movlw	1
  5423  1B8A                     u3725:	
  5424  1B8A  1003               	clrc
  5425  1B8B  0DF0               	rlf	___lwdiv@divisor,f
  5426  1B8C  0DF1               	rlf	___lwdiv@divisor+1,f
  5427  1B8D  3EFF               	addlw	-1
  5428  1B8E  1D03               	skipz
  5429  1B8F  2B8A               	goto	u3725
  5430  1B90  3001               	movlw	1
  5431  1B91  00F4               	movwf	??___lwdiv
  5432  1B92  0874               	movf	??___lwdiv,w
  5433  1B93  07F7               	addwf	___lwdiv@counter,f
  5434  1B94  2B87               	goto	l2690
  5435  1B95                     l2692:	
  5436  1B95  3001               	movlw	1
  5437  1B96                     u3745:	
  5438  1B96  1003               	clrc
  5439  1B97  0DF5               	rlf	___lwdiv@quotient,f
  5440  1B98  0DF6               	rlf	___lwdiv@quotient+1,f
  5441  1B99  3EFF               	addlw	-1
  5442  1B9A  1D03               	skipz
  5443  1B9B  2B96               	goto	u3745
  5444  1B9C  0871               	movf	___lwdiv@divisor+1,w
  5445  1B9D  0273               	subwf	___lwdiv@dividend+1,w
  5446  1B9E  1D03               	skipz
  5447  1B9F  2BA2               	goto	u3755
  5448  1BA0  0870               	movf	___lwdiv@divisor,w
  5449  1BA1  0272               	subwf	___lwdiv@dividend,w
  5450  1BA2                     u3755:	
  5451  1BA2  1C03               	skipc
  5452  1BA3  2BAB               	goto	l2698
  5453  1BA4  0870               	movf	___lwdiv@divisor,w
  5454  1BA5  02F2               	subwf	___lwdiv@dividend,f
  5455  1BA6  0871               	movf	___lwdiv@divisor+1,w
  5456  1BA7  1C03               	skipc
  5457  1BA8  03F3               	decf	___lwdiv@dividend+1,f
  5458  1BA9  02F3               	subwf	___lwdiv@dividend+1,f
  5459  1BAA  1475               	bsf	___lwdiv@quotient,0
  5460  1BAB                     l2698:	
  5461  1BAB  3001               	movlw	1
  5462  1BAC                     u3765:	
  5463  1BAC  1003               	clrc
  5464  1BAD  0CF1               	rrf	___lwdiv@divisor+1,f
  5465  1BAE  0CF0               	rrf	___lwdiv@divisor,f
  5466  1BAF  3EFF               	addlw	-1
  5467  1BB0  1D03               	skipz
  5468  1BB1  2BAC               	goto	u3765
  5469  1BB2  3001               	movlw	1
  5470  1BB3  02F7               	subwf	___lwdiv@counter,f
  5471  1BB4  1D03               	btfss	3,2
  5472  1BB5  2B95               	goto	l2692
  5473  1BB6                     l2702:	
  5474  1BB6  0876               	movf	___lwdiv@quotient+1,w
  5475  1BB7  00F1               	movwf	?___lwdiv+1
  5476  1BB8  0875               	movf	___lwdiv@quotient,w
  5477  1BB9  00F0               	movwf	?___lwdiv
  5478  1BBA  0008               	return
  5479  1BBB                     __end_of___lwdiv:	
  5480                           
  5481                           	psect	text17
  5482  1E7B                     __ptext17:	
  5483 ;; *************** function ___xxtofl *****************
  5484 ;; Defined at:
  5485 ;;		line 10 in file "C:\Program Files (x86)\Microchip\xc8\v2.05\pic\sources\c90\common\xxtofl.c"
  5486 ;; Parameters:    Size  Location     Type
  5487 ;;  sign            1    wreg     unsigned char 
  5488 ;;  val             4    5[COMMON] long 
  5489 ;; Auto vars:     Size  Location     Type
  5490 ;;  sign            1    0[BANK0 ] unsigned char 
  5491 ;;  arg             4    2[BANK0 ] unsigned long 
  5492 ;;  exp             1    1[BANK0 ] unsigned char 
  5493 ;; Return value:  Size  Location     Type
  5494 ;;                  4    5[COMMON] unsigned char 
  5495 ;; Registers used:
  5496 ;;		wreg, status,2, status,0
  5497 ;; Tracked objects:
  5498 ;;		On entry : 0/0
  5499 ;;		On exit  : 0/0
  5500 ;;		Unchanged: 0/0
  5501 ;; Data sizes:     COMMON   BANK0   BANK1   BANK3   BANK2
  5502 ;;      Params:         4       0       0       0       0
  5503 ;;      Locals:         0       6       0       0       0
  5504 ;;      Temps:          4       0       0       0       0
  5505 ;;      Totals:         8       6       0       0       0
  5506 ;;Total ram usage:       14 bytes
  5507 ;; Hardware stack levels used:    1
  5508 ;; This function calls:
  5509 ;;		Nothing
  5510 ;; This function is called by:
  5511 ;;		_Lcd_Print_Ang
  5512 ;;		_main
  5513 ;; This function uses a non-reentrant model
  5514 ;;
  5515                           
  5516                           
  5517                           ;psect for function ___xxtofl
  5518  1E7B                     ___xxtofl:	
  5519                           
  5520                           ;incstack = 0
  5521                           ; Regs used in ___xxtofl: [wreg+status,2+status,0]
  5522                           ;___xxtofl@sign stored from wreg
  5523  1E7B  1283               	bcf	3,5	;RP0=0, select bank0
  5524  1E7C  1303               	bcf	3,6	;RP1=0, select bank0
  5525  1E7D  00A0               	movwf	___xxtofl@sign
  5526  1E7E  0820               	movf	___xxtofl@sign,w
  5527  1E7F  1D03               	btfss	3,2
  5528  1E80  1FF8               	btfss	___xxtofl@val+3,7
  5529  1E81  2E92               	goto	l2876
  5530  1E82  0975               	comf	___xxtofl@val,w
  5531  1E83  00A2               	movwf	___xxtofl@arg
  5532  1E84  0976               	comf	___xxtofl@val+1,w
  5533  1E85  00A3               	movwf	___xxtofl@arg+1
  5534  1E86  0977               	comf	___xxtofl@val+2,w
  5535  1E87  00A4               	movwf	___xxtofl@arg+2
  5536  1E88  0978               	comf	___xxtofl@val+3,w
  5537  1E89  00A5               	movwf	___xxtofl@arg+3
  5538  1E8A  0AA2               	incf	___xxtofl@arg,f
  5539  1E8B  1903               	skipnz
  5540  1E8C  0AA3               	incf	___xxtofl@arg+1,f
  5541  1E8D  1903               	skipnz
  5542  1E8E  0AA4               	incf	___xxtofl@arg+2,f
  5543  1E8F  1903               	skipnz
  5544  1E90  0AA5               	incf	___xxtofl@arg+3,f
  5545  1E91  2E9A               	goto	l672
  5546  1E92                     l2876:	
  5547  1E92  0878               	movf	___xxtofl@val+3,w
  5548  1E93  00A5               	movwf	___xxtofl@arg+3
  5549  1E94  0877               	movf	___xxtofl@val+2,w
  5550  1E95  00A4               	movwf	___xxtofl@arg+2
  5551  1E96  0876               	movf	___xxtofl@val+1,w
  5552  1E97  00A3               	movwf	___xxtofl@arg+1
  5553  1E98  0875               	movf	___xxtofl@val,w
  5554  1E99  00A2               	movwf	___xxtofl@arg
  5555  1E9A                     l672:	
  5556  1E9A  0878               	movf	___xxtofl@val+3,w
  5557  1E9B  0477               	iorwf	___xxtofl@val+2,w
  5558  1E9C  0476               	iorwf	___xxtofl@val+1,w
  5559  1E9D  0475               	iorwf	___xxtofl@val,w
  5560  1E9E  1D03               	skipz
  5561  1E9F  2EA9               	goto	l2882
  5562  1EA0  3000               	movlw	0
  5563  1EA1  00F8               	movwf	?___xxtofl+3
  5564  1EA2  3000               	movlw	0
  5565  1EA3  00F7               	movwf	?___xxtofl+2
  5566  1EA4  3000               	movlw	0
  5567  1EA5  00F6               	movwf	?___xxtofl+1
  5568  1EA6  3000               	movlw	0
  5569  1EA7  00F5               	movwf	?___xxtofl
  5570  1EA8  0008               	return
  5571  1EA9                     l2882:	
  5572  1EA9  3096               	movlw	150
  5573  1EAA  00F9               	movwf	??___xxtofl
  5574  1EAB  0879               	movf	??___xxtofl,w
  5575  1EAC  00A1               	movwf	___xxtofl@exp
  5576  1EAD                     l2886:	
  5577  1EAD  30FE               	movlw	254
  5578  1EAE  0525               	andwf	___xxtofl@arg+3,w
  5579  1EAF  1903               	btfsc	3,2
  5580  1EB0  2EDA               	goto	l678
  5581  1EB1  3001               	movlw	1
  5582  1EB2  00F9               	movwf	??___xxtofl
  5583  1EB3  0879               	movf	??___xxtofl,w
  5584  1EB4  07A1               	addwf	___xxtofl@exp,f
  5585  1EB5  3001               	movlw	1
  5586  1EB6                     u4115:	
  5587  1EB6  1003               	clrc
  5588  1EB7  0CA5               	rrf	___xxtofl@arg+3,f
  5589  1EB8  0CA4               	rrf	___xxtofl@arg+2,f
  5590  1EB9  0CA3               	rrf	___xxtofl@arg+1,f
  5591  1EBA  0CA2               	rrf	___xxtofl@arg,f
  5592  1EBB  3EFF               	addlw	-1
  5593  1EBC  1D03               	skipz
  5594  1EBD  2EB6               	goto	u4115
  5595  1EBE  2EAD               	goto	l2886
  5596  1EBF                     l2888:	
  5597  1EBF  3001               	movlw	1
  5598  1EC0  00F9               	movwf	??___xxtofl
  5599  1EC1  0879               	movf	??___xxtofl,w
  5600  1EC2  07A1               	addwf	___xxtofl@exp,f
  5601  1EC3  3001               	movlw	1
  5602  1EC4  07A2               	addwf	___xxtofl@arg,f
  5603  1EC5  3000               	movlw	0
  5604  1EC6  1803               	skipnc
  5605  1EC7  3001               	movlw	1
  5606  1EC8  07A3               	addwf	___xxtofl@arg+1,f
  5607  1EC9  3000               	movlw	0
  5608  1ECA  1803               	skipnc
  5609  1ECB  3001               	movlw	1
  5610  1ECC  07A4               	addwf	___xxtofl@arg+2,f
  5611  1ECD  3000               	movlw	0
  5612  1ECE  1803               	skipnc
  5613  1ECF  3001               	movlw	1
  5614  1ED0  07A5               	addwf	___xxtofl@arg+3,f
  5615  1ED1  3001               	movlw	1
  5616  1ED2                     u4135:	
  5617  1ED2  1003               	clrc
  5618  1ED3  0CA5               	rrf	___xxtofl@arg+3,f
  5619  1ED4  0CA4               	rrf	___xxtofl@arg+2,f
  5620  1ED5  0CA3               	rrf	___xxtofl@arg+1,f
  5621  1ED6  0CA2               	rrf	___xxtofl@arg,f
  5622  1ED7  3EFF               	addlw	-1
  5623  1ED8  1D03               	skipz
  5624  1ED9  2ED2               	goto	u4135
  5625  1EDA                     l678:	
  5626  1EDA  30FF               	movlw	255
  5627  1EDB  0525               	andwf	___xxtofl@arg+3,w
  5628  1EDC  1903               	btfsc	3,2
  5629  1EDD  2EEE               	goto	l2896
  5630  1EDE  2EBF               	goto	l2888
  5631  1EDF                     l2898:	
  5632  1EDF  3002               	movlw	2
  5633  1EE0  0221               	subwf	___xxtofl@exp,w
  5634  1EE1  1C03               	btfss	3,0
  5635  1EE2  2EF0               	goto	l685
  5636  1EE3  3001               	movlw	1
  5637  1EE4  02A1               	subwf	___xxtofl@exp,f
  5638  1EE5  3001               	movlw	1
  5639  1EE6  00F9               	movwf	??___xxtofl
  5640  1EE7                     u4155:	
  5641  1EE7  1003               	clrc
  5642  1EE8  0DA2               	rlf	___xxtofl@arg,f
  5643  1EE9  0DA3               	rlf	___xxtofl@arg+1,f
  5644  1EEA  0DA4               	rlf	___xxtofl@arg+2,f
  5645  1EEB  0DA5               	rlf	___xxtofl@arg+3,f
  5646  1EEC  0BF9               	decfsz	??___xxtofl,f
  5647  1EED  2EE7               	goto	u4155
  5648  1EEE                     l2896:	
  5649  1EEE  1FA4               	btfss	___xxtofl@arg+2,7
  5650  1EEF  2EDF               	goto	l2898
  5651  1EF0                     l685:	
  5652  1EF0  1821               	btfsc	___xxtofl@exp,0
  5653  1EF1  2EFA               	goto	l686
  5654  1EF2  30FF               	movlw	255
  5655  1EF3  05A2               	andwf	___xxtofl@arg,f
  5656  1EF4  30FF               	movlw	255
  5657  1EF5  05A3               	andwf	___xxtofl@arg+1,f
  5658  1EF6  307F               	movlw	127
  5659  1EF7  05A4               	andwf	___xxtofl@arg+2,f
  5660  1EF8  30FF               	movlw	255
  5661  1EF9  05A5               	andwf	___xxtofl@arg+3,f
  5662  1EFA                     l686:	
  5663  1EFA  1003               	clrc
  5664  1EFB  0CA1               	rrf	___xxtofl@exp,f
  5665  1EFC  0821               	movf	___xxtofl@exp,w
  5666  1EFD  00F9               	movwf	??___xxtofl
  5667  1EFE  01FA               	clrf	??___xxtofl+1
  5668  1EFF  01FB               	clrf	??___xxtofl+2
  5669  1F00  01FC               	clrf	??___xxtofl+3
  5670  1F01  3018               	movlw	24
  5671  1F02                     u4195:	
  5672  1F02  1003               	clrc
  5673  1F03  0DF9               	rlf	??___xxtofl,f
  5674  1F04  0DFA               	rlf	??___xxtofl+1,f
  5675  1F05  0DFB               	rlf	??___xxtofl+2,f
  5676  1F06  0DFC               	rlf	??___xxtofl+3,f
  5677  1F07  3EFF               	addlw	-1
  5678  1F08  1D03               	skipz
  5679  1F09  2F02               	goto	u4195
  5680  1F0A  0879               	movf	??___xxtofl,w
  5681  1F0B  04A2               	iorwf	___xxtofl@arg,f
  5682  1F0C  087A               	movf	??___xxtofl+1,w
  5683  1F0D  04A3               	iorwf	___xxtofl@arg+1,f
  5684  1F0E  087B               	movf	??___xxtofl+2,w
  5685  1F0F  04A4               	iorwf	___xxtofl@arg+2,f
  5686  1F10  087C               	movf	??___xxtofl+3,w
  5687  1F11  04A5               	iorwf	___xxtofl@arg+3,f
  5688  1F12  0820               	movf	___xxtofl@sign,w
  5689  1F13  1D03               	btfss	3,2
  5690  1F14  1FF8               	btfss	___xxtofl@val+3,7
  5691  1F15  2F17               	goto	l2910
  5692  1F16  17A5               	bsf	___xxtofl@arg+3,7
  5693  1F17                     l2910:	
  5694  1F17  0825               	movf	___xxtofl@arg+3,w
  5695  1F18  00F8               	movwf	?___xxtofl+3
  5696  1F19  0824               	movf	___xxtofl@arg+2,w
  5697  1F1A  00F7               	movwf	?___xxtofl+2
  5698  1F1B  0823               	movf	___xxtofl@arg+1,w
  5699  1F1C  00F6               	movwf	?___xxtofl+1
  5700  1F1D  0822               	movf	___xxtofl@arg,w
  5701  1F1E  00F5               	movwf	?___xxtofl
  5702  1F1F  0008               	return
  5703  1F20                     __end_of___xxtofl:	
  5704                           
  5705                           	psect	text18
  5706  1CF5                     __ptext18:	
  5707 ;; *************** function ___fltol *****************
  5708 ;; Defined at:
  5709 ;;		line 43 in file "C:\Program Files (x86)\Microchip\xc8\v2.05\pic\sources\c90\common\fltol.c"
  5710 ;; Parameters:    Size  Location     Type
  5711 ;;  f1              4    0[COMMON] unsigned char 
  5712 ;; Auto vars:     Size  Location     Type
  5713 ;;  exp1            1   10[COMMON] unsigned char 
  5714 ;;  sign1           1    9[COMMON] unsigned char 
  5715 ;; Return value:  Size  Location     Type
  5716 ;;                  4    0[COMMON] long 
  5717 ;; Registers used:
  5718 ;;		wreg, status,2, status,0
  5719 ;; Tracked objects:
  5720 ;;		On entry : 0/0
  5721 ;;		On exit  : 0/0
  5722 ;;		Unchanged: 0/0
  5723 ;; Data sizes:     COMMON   BANK0   BANK1   BANK3   BANK2
  5724 ;;      Params:         4       0       0       0       0
  5725 ;;      Locals:         2       0       0       0       0
  5726 ;;      Temps:          5       0       0       0       0
  5727 ;;      Totals:        11       0       0       0       0
  5728 ;;Total ram usage:       11 bytes
  5729 ;; Hardware stack levels used:    1
  5730 ;; This function calls:
  5731 ;;		Nothing
  5732 ;; This function is called by:
  5733 ;;		_Lcd_Print_Ang
  5734 ;; This function uses a non-reentrant model
  5735 ;;
  5736                           
  5737                           
  5738                           ;psect for function ___fltol
  5739  1CF5                     ___fltol:	
  5740                           
  5741                           ;incstack = 0
  5742                           ; Regs used in ___fltol: [wreg+status,2+status,0]
  5743  1CF5  1003               	clrc
  5744  1CF6  0D72               	rlf	___fltol@f1+2,w
  5745  1CF7  0D73               	rlf	___fltol@f1+3,w
  5746  1CF8  00F4               	movwf	??___fltol
  5747  1CF9  0874               	movf	??___fltol,w
  5748  1CFA  00FA               	movwf	___fltol@exp1
  5749  1CFB  087A               	movf	___fltol@exp1,w
  5750  1CFC  1D03               	btfss	3,2
  5751  1CFD  2D07               	goto	l2840
  5752  1CFE                     l2836:	
  5753  1CFE  3000               	movlw	0
  5754  1CFF  00F3               	movwf	?___fltol+3
  5755  1D00  3000               	movlw	0
  5756  1D01  00F2               	movwf	?___fltol+2
  5757  1D02  3000               	movlw	0
  5758  1D03  00F1               	movwf	?___fltol+1
  5759  1D04  3000               	movlw	0
  5760  1D05  00F0               	movwf	?___fltol
  5761  1D06  0008               	return
  5762  1D07                     l2840:	
  5763  1D07  0870               	movf	___fltol@f1,w
  5764  1D08  00F4               	movwf	??___fltol
  5765  1D09  0871               	movf	___fltol@f1+1,w
  5766  1D0A  00F5               	movwf	??___fltol+1
  5767  1D0B  0872               	movf	___fltol@f1+2,w
  5768  1D0C  00F6               	movwf	??___fltol+2
  5769  1D0D  0873               	movf	___fltol@f1+3,w
  5770  1D0E  00F7               	movwf	??___fltol+3
  5771  1D0F  301F               	movlw	31
  5772  1D10                     u3995:	
  5773  1D10  1003               	clrc
  5774  1D11  0CF7               	rrf	??___fltol+3,f
  5775  1D12  0CF6               	rrf	??___fltol+2,f
  5776  1D13  0CF5               	rrf	??___fltol+1,f
  5777  1D14  0CF4               	rrf	??___fltol,f
  5778  1D15  3EFF               	addlw	-1
  5779  1D16  1D03               	skipz
  5780  1D17  2D10               	goto	u3995
  5781  1D18  0874               	movf	??___fltol,w
  5782  1D19  00F8               	movwf	??___fltol+4
  5783  1D1A  0878               	movf	??___fltol+4,w
  5784  1D1B  00F9               	movwf	___fltol@sign1
  5785  1D1C  17F2               	bsf	___fltol@f1+2,7
  5786  1D1D  30FF               	movlw	255
  5787  1D1E  05F0               	andwf	___fltol@f1,f
  5788  1D1F  30FF               	movlw	255
  5789  1D20  05F1               	andwf	___fltol@f1+1,f
  5790  1D21  30FF               	movlw	255
  5791  1D22  05F2               	andwf	___fltol@f1+2,f
  5792  1D23  3000               	movlw	0
  5793  1D24  05F3               	andwf	___fltol@f1+3,f
  5794  1D25  3096               	movlw	150
  5795  1D26  02FA               	subwf	___fltol@exp1,f
  5796  1D27  1FFA               	btfss	___fltol@exp1,7
  5797  1D28  2D3E               	goto	l2858
  5798  1D29  087A               	movf	___fltol@exp1,w
  5799  1D2A  3A80               	xorlw	128
  5800  1D2B  3E97               	addlw	151
  5801  1D2C  1C03               	btfss	3,0
  5802  1D2D  2CFE               	goto	l2836
  5803  1D2E                     l2856:	
  5804  1D2E  3001               	movlw	1
  5805  1D2F                     u4025:	
  5806  1D2F  1003               	clrc
  5807  1D30  0CF3               	rrf	___fltol@f1+3,f
  5808  1D31  0CF2               	rrf	___fltol@f1+2,f
  5809  1D32  0CF1               	rrf	___fltol@f1+1,f
  5810  1D33  0CF0               	rrf	___fltol@f1,f
  5811  1D34  3EFF               	addlw	-1
  5812  1D35  1D03               	skipz
  5813  1D36  2D2F               	goto	u4025
  5814  1D37  3001               	movlw	1
  5815  1D38  00F4               	movwf	??___fltol
  5816  1D39  0874               	movf	??___fltol,w
  5817  1D3A  07FA               	addwf	___fltol@exp1,f
  5818  1D3B  1903               	btfsc	3,2
  5819  1D3C  2D51               	goto	l2866
  5820  1D3D  2D2E               	goto	l2856
  5821  1D3E                     l2858:	
  5822  1D3E  3020               	movlw	32
  5823  1D3F  027A               	subwf	___fltol@exp1,w
  5824  1D40  1803               	btfsc	3,0
  5825  1D41  2CFE               	goto	l2836
  5826  1D42                     l418:	
  5827  1D42  087A               	movf	___fltol@exp1,w
  5828  1D43  1903               	btfsc	3,2
  5829  1D44  2D51               	goto	l2866
  5830  1D45  3001               	movlw	1
  5831  1D46  00F4               	movwf	??___fltol
  5832  1D47                     u4055:	
  5833  1D47  1003               	clrc
  5834  1D48  0DF0               	rlf	___fltol@f1,f
  5835  1D49  0DF1               	rlf	___fltol@f1+1,f
  5836  1D4A  0DF2               	rlf	___fltol@f1+2,f
  5837  1D4B  0DF3               	rlf	___fltol@f1+3,f
  5838  1D4C  0BF4               	decfsz	??___fltol,f
  5839  1D4D  2D47               	goto	u4055
  5840  1D4E  3001               	movlw	1
  5841  1D4F  02FA               	subwf	___fltol@exp1,f
  5842  1D50  2D42               	goto	l418
  5843  1D51                     l2866:	
  5844  1D51  0879               	movf	___fltol@sign1,w
  5845  1D52  1903               	btfsc	3,2
  5846  1D53  0008               	return
  5847  1D54  09F0               	comf	___fltol@f1,f
  5848  1D55  09F1               	comf	___fltol@f1+1,f
  5849  1D56  09F2               	comf	___fltol@f1+2,f
  5850  1D57  09F3               	comf	___fltol@f1+3,f
  5851  1D58  0AF0               	incf	___fltol@f1,f
  5852  1D59  1903               	skipnz
  5853  1D5A  0AF1               	incf	___fltol@f1+1,f
  5854  1D5B  1903               	skipnz
  5855  1D5C  0AF2               	incf	___fltol@f1+2,f
  5856  1D5D  1903               	skipnz
  5857  1D5E  0AF3               	incf	___fltol@f1+3,f
  5858  1D5F  0008               	return
  5859  1D60                     __end_of___fltol:	
  5860                           
  5861                           	psect	text19
  5862  1ABB                     __ptext19:	
  5863 ;; *************** function ___flsub *****************
  5864 ;; Defined at:
  5865 ;;		line 242 in file "C:\Program Files (x86)\Microchip\xc8\v2.05\pic\sources\c90\common\sprcadd.c"
  5866 ;; Parameters:    Size  Location     Type
  5867 ;;  a               4   72[BANK0 ] long 
  5868 ;;  b               4   76[BANK0 ] long 
  5869 ;; Auto vars:     Size  Location     Type
  5870 ;;		None
  5871 ;; Return value:  Size  Location     Type
  5872 ;;                  4   72[BANK0 ] long 
  5873 ;; Registers used:
  5874 ;;		wreg, status,2, status,0, btemp+1, pclath, cstack
  5875 ;; Tracked objects:
  5876 ;;		On entry : 0/0
  5877 ;;		On exit  : 0/0
  5878 ;;		Unchanged: 0/0
  5879 ;; Data sizes:     COMMON   BANK0   BANK1   BANK3   BANK2
  5880 ;;      Params:         0       8       0       0       0
  5881 ;;      Locals:         0       0       0       0       0
  5882 ;;      Temps:          0       0       0       0       0
  5883 ;;      Totals:         0       8       0       0       0
  5884 ;;Total ram usage:        8 bytes
  5885 ;; Hardware stack levels used:    1
  5886 ;; Hardware stack levels required when called:    1
  5887 ;; This function calls:
  5888 ;;		___fladd
  5889 ;; This function is called by:
  5890 ;;		_Lcd_Print_Ang
  5891 ;;		_acos
  5892 ;;		_asin
  5893 ;;		_atan
  5894 ;; This function uses a non-reentrant model
  5895 ;;
  5896                           
  5897                           
  5898                           ;psect for function ___flsub
  5899  1ABB                     ___flsub:	
  5900                           
  5901                           ;incstack = 0
  5902                           ; Regs used in ___flsub: [wreg+status,2+status,0+btemp+1+pclath+cstack]
  5903  1ABB  3080               	movlw	128
  5904  1ABC  1283               	bcf	3,5	;RP0=0, select bank0
  5905  1ABD  1303               	bcf	3,6	;RP1=0, select bank0
  5906  1ABE  06EB               	xorwf	___flsub@a+3,f
  5907  1ABF  086F               	movf	___flsub@b+3,w
  5908  1AC0  00A3               	movwf	___fladd@b+3
  5909  1AC1  086E               	movf	___flsub@b+2,w
  5910  1AC2  00A2               	movwf	___fladd@b+2
  5911  1AC3  086D               	movf	___flsub@b+1,w
  5912  1AC4  00A1               	movwf	___fladd@b+1
  5913  1AC5  086C               	movf	___flsub@b,w
  5914  1AC6  00A0               	movwf	___fladd@b
  5915  1AC7  086B               	movf	___flsub@a+3,w
  5916  1AC8  00A7               	movwf	___fladd@a+3
  5917  1AC9  086A               	movf	___flsub@a+2,w
  5918  1ACA  00A6               	movwf	___fladd@a+2
  5919  1ACB  0869               	movf	___flsub@a+1,w
  5920  1ACC  00A5               	movwf	___fladd@a+1
  5921  1ACD  0868               	movf	___flsub@a,w
  5922  1ACE  00A4               	movwf	___fladd@a
  5923  1ACF  160A  118A  233E   	fcall	___fladd
  5924  1AD2  1283               	bcf	3,5	;RP0=0, select bank0
  5925  1AD3  1303               	bcf	3,6	;RP1=0, select bank0
  5926  1AD4  0823               	movf	?___fladd+3,w
  5927  1AD5  00EB               	movwf	?___flsub+3
  5928  1AD6  0822               	movf	?___fladd+2,w
  5929  1AD7  00EA               	movwf	?___flsub+2
  5930  1AD8  0821               	movf	?___fladd+1,w
  5931  1AD9  00E9               	movwf	?___flsub+1
  5932  1ADA  0820               	movf	?___fladd,w
  5933  1ADB  00E8               	movwf	?___flsub
  5934  1ADC  0008               	return
  5935  1ADD                     __end_of___flsub:	
  5936                           
  5937                           	psect	text20
  5938  133E                     __ptext20:	
  5939 ;; *************** function ___fladd *****************
  5940 ;; Defined at:
  5941 ;;		line 10 in file "C:\Program Files (x86)\Microchip\xc8\v2.05\pic\sources\c90\common\sprcadd.c"
  5942 ;; Parameters:    Size  Location     Type
  5943 ;;  b               4    0[BANK0 ] long 
  5944 ;;  a               4    4[BANK0 ] long 
  5945 ;; Auto vars:     Size  Location     Type
  5946 ;;  grs             1   12[COMMON] unsigned char 
  5947 ;;  bexp            1   11[COMMON] unsigned char 
  5948 ;;  aexp            1   10[COMMON] unsigned char 
  5949 ;;  signs           1    9[COMMON] unsigned char 
  5950 ;; Return value:  Size  Location     Type
  5951 ;;                  4    0[BANK0 ] unsigned char 
  5952 ;; Registers used:
  5953 ;;		wreg, status,2, status,0, btemp+1
  5954 ;; Tracked objects:
  5955 ;;		On entry : 0/0
  5956 ;;		On exit  : 0/0
  5957 ;;		Unchanged: 0/0
  5958 ;; Data sizes:     COMMON   BANK0   BANK1   BANK3   BANK2
  5959 ;;      Params:         0       8       0       0       0
  5960 ;;      Locals:         4       0       0       0       0
  5961 ;;      Temps:          0       8       0       0       0
  5962 ;;      Totals:         4      16       0       0       0
  5963 ;;Total ram usage:       20 bytes
  5964 ;; Hardware stack levels used:    1
  5965 ;; This function calls:
  5966 ;;		Nothing
  5967 ;; This function is called by:
  5968 ;;		_main
  5969 ;;		___flsub
  5970 ;;		_eval_poly
  5971 ;; This function uses a non-reentrant model
  5972 ;;
  5973                           
  5974                           
  5975                           ;psect for function ___fladd
  5976  133E                     ___fladd:	
  5977                           
  5978                           ;incstack = 0
  5979                           ; Regs used in ___fladd: [wreg+status,2+status,0+btemp+1]
  5980  133E  1283               	bcf	3,5	;RP0=0, select bank0
  5981  133F  1303               	bcf	3,6	;RP1=0, select bank0
  5982  1340  0823               	movf	___fladd@b+3,w
  5983  1341  3980               	andlw	128
  5984  1342  00A8               	movwf	??___fladd
  5985  1343  0828               	movf	??___fladd,w
  5986  1344  00F9               	movwf	___fladd@signs
  5987  1345  0823               	movf	___fladd@b+3,w
  5988  1346  00A8               	movwf	??___fladd
  5989  1347  0728               	addwf	??___fladd,w
  5990  1348  00A9               	movwf	??___fladd+1
  5991  1349  0829               	movf	??___fladd+1,w
  5992  134A  00FB               	movwf	___fladd@bexp
  5993  134B  1BA2               	btfsc	___fladd@b+2,7
  5994  134C  147B               	bsf	___fladd@bexp,0
  5995  134D  087B               	movf	___fladd@bexp,w
  5996  134E  1903               	btfsc	3,2
  5997  134F  2B5E               	goto	l2054
  5998  1350  0A7B               	incf	___fladd@bexp,w
  5999  1351  1D03               	btfss	3,2
  6000  1352  2B5B               	goto	l2050
  6001  1353  3000               	movlw	0
  6002  1354  00A3               	movwf	___fladd@b+3
  6003  1355  3000               	movlw	0
  6004  1356  00A2               	movwf	___fladd@b+2
  6005  1357  3000               	movlw	0
  6006  1358  00A1               	movwf	___fladd@b+1
  6007  1359  3000               	movlw	0
  6008  135A  00A0               	movwf	___fladd@b
  6009  135B                     l2050:	
  6010  135B  17A2               	bsf	___fladd@b+2,7
  6011  135C  01A3               	clrf	___fladd@b+3
  6012  135D  2B66               	goto	l2056
  6013  135E                     l2054:	
  6014  135E  3000               	movlw	0
  6015  135F  00A3               	movwf	___fladd@b+3
  6016  1360  3000               	movlw	0
  6017  1361  00A2               	movwf	___fladd@b+2
  6018  1362  3000               	movlw	0
  6019  1363  00A1               	movwf	___fladd@b+1
  6020  1364  3000               	movlw	0
  6021  1365  00A0               	movwf	___fladd@b
  6022  1366                     l2056:	
  6023  1366  0827               	movf	___fladd@a+3,w
  6024  1367  3980               	andlw	128
  6025  1368  00A8               	movwf	??___fladd
  6026  1369  0828               	movf	??___fladd,w
  6027  136A  00FA               	movwf	___fladd@aexp
  6028  136B  087A               	movf	___fladd@aexp,w
  6029  136C  0679               	xorwf	___fladd@signs,w
  6030  136D  1D03               	btfss	3,2
  6031  136E  1779               	bsf	___fladd@signs,6
  6032  136F  0827               	movf	___fladd@a+3,w
  6033  1370  00A8               	movwf	??___fladd
  6034  1371  0728               	addwf	??___fladd,w
  6035  1372  00A9               	movwf	??___fladd+1
  6036  1373  0829               	movf	??___fladd+1,w
  6037  1374  00FA               	movwf	___fladd@aexp
  6038  1375  1BA6               	btfsc	___fladd@a+2,7
  6039  1376  147A               	bsf	___fladd@aexp,0
  6040  1377  087A               	movf	___fladd@aexp,w
  6041  1378  1903               	btfsc	3,2
  6042  1379  2B88               	goto	l2078
  6043  137A  0A7A               	incf	___fladd@aexp,w
  6044  137B  1D03               	btfss	3,2
  6045  137C  2B85               	goto	l2074
  6046  137D  3000               	movlw	0
  6047  137E  00A7               	movwf	___fladd@a+3
  6048  137F  3000               	movlw	0
  6049  1380  00A6               	movwf	___fladd@a+2
  6050  1381  3000               	movlw	0
  6051  1382  00A5               	movwf	___fladd@a+1
  6052  1383  3000               	movlw	0
  6053  1384  00A4               	movwf	___fladd@a
  6054  1385                     l2074:	
  6055  1385  17A6               	bsf	___fladd@a+2,7
  6056  1386  01A7               	clrf	___fladd@a+3
  6057  1387  2B90               	goto	l518
  6058  1388                     l2078:	
  6059  1388  3000               	movlw	0
  6060  1389  00A7               	movwf	___fladd@a+3
  6061  138A  3000               	movlw	0
  6062  138B  00A6               	movwf	___fladd@a+2
  6063  138C  3000               	movlw	0
  6064  138D  00A5               	movwf	___fladd@a+1
  6065  138E  3000               	movlw	0
  6066  138F  00A4               	movwf	___fladd@a
  6067  1390                     l518:	
  6068  1390  087B               	movf	___fladd@bexp,w
  6069  1391  027A               	subwf	___fladd@aexp,w
  6070  1392  1803               	skipnc
  6071  1393  2BD6               	goto	l2114
  6072  1394  1F79               	btfss	___fladd@signs,6
  6073  1395  2B9A               	goto	l2084
  6074  1396  3080               	movlw	128
  6075  1397  00A8               	movwf	??___fladd
  6076  1398  0828               	movf	??___fladd,w
  6077  1399  06F9               	xorwf	___fladd@signs,f
  6078  139A                     l2084:	
  6079  139A  087B               	movf	___fladd@bexp,w
  6080  139B  00A8               	movwf	??___fladd
  6081  139C  0828               	movf	??___fladd,w
  6082  139D  00FC               	movwf	___fladd@grs
  6083  139E  087A               	movf	___fladd@aexp,w
  6084  139F  00A8               	movwf	??___fladd
  6085  13A0  0828               	movf	??___fladd,w
  6086  13A1  00FB               	movwf	___fladd@bexp
  6087  13A2  087C               	movf	___fladd@grs,w
  6088  13A3  00A8               	movwf	??___fladd
  6089  13A4  0828               	movf	??___fladd,w
  6090  13A5  00FA               	movwf	___fladd@aexp
  6091  13A6  0820               	movf	___fladd@b,w
  6092  13A7  00A8               	movwf	??___fladd
  6093  13A8  0828               	movf	??___fladd,w
  6094  13A9  00FC               	movwf	___fladd@grs
  6095  13AA  0824               	movf	___fladd@a,w
  6096  13AB  00A8               	movwf	??___fladd
  6097  13AC  0828               	movf	??___fladd,w
  6098  13AD  00A0               	movwf	___fladd@b
  6099  13AE  087C               	movf	___fladd@grs,w
  6100  13AF  00A8               	movwf	??___fladd
  6101  13B0  0828               	movf	??___fladd,w
  6102  13B1  00A4               	movwf	___fladd@a
  6103  13B2  0821               	movf	___fladd@b+1,w
  6104  13B3  00A8               	movwf	??___fladd
  6105  13B4  0828               	movf	??___fladd,w
  6106  13B5  00FC               	movwf	___fladd@grs
  6107  13B6  0825               	movf	___fladd@a+1,w
  6108  13B7  00A8               	movwf	??___fladd
  6109  13B8  0828               	movf	??___fladd,w
  6110  13B9  00A1               	movwf	___fladd@b+1
  6111  13BA  087C               	movf	___fladd@grs,w
  6112  13BB  00A8               	movwf	??___fladd
  6113  13BC  0828               	movf	??___fladd,w
  6114  13BD  00A5               	movwf	___fladd@a+1
  6115  13BE  0822               	movf	___fladd@b+2,w
  6116  13BF  00A8               	movwf	??___fladd
  6117  13C0  0828               	movf	??___fladd,w
  6118  13C1  00FC               	movwf	___fladd@grs
  6119  13C2  0826               	movf	___fladd@a+2,w
  6120  13C3  00A8               	movwf	??___fladd
  6121  13C4  0828               	movf	??___fladd,w
  6122  13C5  00A2               	movwf	___fladd@b+2
  6123  13C6  087C               	movf	___fladd@grs,w
  6124  13C7  00A8               	movwf	??___fladd
  6125  13C8  0828               	movf	??___fladd,w
  6126  13C9  00A6               	movwf	___fladd@a+2
  6127  13CA  0823               	movf	___fladd@b+3,w
  6128  13CB  00A8               	movwf	??___fladd
  6129  13CC  0828               	movf	??___fladd,w
  6130  13CD  00FC               	movwf	___fladd@grs
  6131  13CE  0827               	movf	___fladd@a+3,w
  6132  13CF  00A8               	movwf	??___fladd
  6133  13D0  0828               	movf	??___fladd,w
  6134  13D1  00A3               	movwf	___fladd@b+3
  6135  13D2  087C               	movf	___fladd@grs,w
  6136  13D3  00A8               	movwf	??___fladd
  6137  13D4  0828               	movf	??___fladd,w
  6138  13D5  00A7               	movwf	___fladd@a+3
  6139  13D6                     l2114:	
  6140  13D6  01FC               	clrf	___fladd@grs
  6141  13D7  087A               	movf	___fladd@aexp,w
  6142  13D8  00A8               	movwf	??___fladd
  6143  13D9  01A9               	clrf	??___fladd+1
  6144  13DA  0829               	movf	??___fladd+1,w
  6145  13DB  00AB               	movwf	??___fladd+3
  6146  13DC  087B               	movf	___fladd@bexp,w
  6147  13DD  0228               	subwf	??___fladd,w
  6148  13DE  00AA               	movwf	??___fladd+2
  6149  13DF  1C03               	skipc
  6150  13E0  03AB               	decf	??___fladd+3,f
  6151  13E1  082B               	movf	??___fladd+3,w
  6152  13E2  3A80               	xorlw	128
  6153  13E3  00FF               	movwf	127
  6154  13E4  3080               	movlw	128
  6155  13E5  027F               	subwf	127,w
  6156  13E6  1D03               	skipz
  6157  13E7  2BEA               	goto	u2365
  6158  13E8  301A               	movlw	26
  6159  13E9  022A               	subwf	??___fladd+2,w
  6160  13EA                     u2365:	
  6161  13EA  1C03               	skipc
  6162  13EB  2C27               	goto	l2132
  6163  13EC  1283               	bcf	3,5	;RP0=0, select bank0
  6164  13ED  1303               	bcf	3,6	;RP1=0, select bank0
  6165  13EE  0823               	movf	___fladd@b+3,w
  6166  13EF  0422               	iorwf	___fladd@b+2,w
  6167  13F0  0421               	iorwf	___fladd@b+1,w
  6168  13F1  0420               	iorwf	___fladd@b,w
  6169  13F2  1903               	btfsc	3,2
  6170  13F3  2BF6               	goto	u2370
  6171  13F4  3001               	movlw	1
  6172  13F5  2BF7               	goto	u2380
  6173  13F6                     u2370:	
  6174  13F6  3000               	movlw	0
  6175  13F7                     u2380:	
  6176  13F7  00A8               	movwf	??___fladd
  6177  13F8  0828               	movf	??___fladd,w
  6178  13F9  00FC               	movwf	___fladd@grs
  6179  13FA  3000               	movlw	0
  6180  13FB  00A3               	movwf	___fladd@b+3
  6181  13FC  3000               	movlw	0
  6182  13FD  00A2               	movwf	___fladd@b+2
  6183  13FE  3000               	movlw	0
  6184  13FF  00A1               	movwf	___fladd@b+1
  6185  1400  3000               	movlw	0
  6186  1401  00A0               	movwf	___fladd@b
  6187  1402  087A               	movf	___fladd@aexp,w
  6188  1403  00A8               	movwf	??___fladd
  6189  1404  0828               	movf	??___fladd,w
  6190  1405  00FB               	movwf	___fladd@bexp
  6191  1406  2C2B               	goto	l522
  6192  1407                     l524:	
  6193  1407  1C7C               	btfss	___fladd@grs,0
  6194  1408  2C14               	goto	l2122
  6195  1409  087C               	movf	___fladd@grs,w
  6196  140A  1283               	bcf	3,5	;RP0=0, select bank0
  6197  140B  1303               	bcf	3,6	;RP1=0, select bank0
  6198  140C  00A8               	movwf	??___fladd
  6199  140D  1003               	clrc
  6200  140E  0C28               	rrf	??___fladd,w
  6201  140F  3801               	iorlw	1
  6202  1410  00A9               	movwf	??___fladd+1
  6203  1411  0829               	movf	??___fladd+1,w
  6204  1412  00FC               	movwf	___fladd@grs
  6205  1413  2C16               	goto	l2124
  6206  1414                     l2122:	
  6207  1414  1003               	clrc
  6208  1415  0CFC               	rrf	___fladd@grs,f
  6209  1416                     l2124:	
  6210  1416  1283               	bcf	3,5	;RP0=0, select bank0
  6211  1417  1303               	bcf	3,6	;RP1=0, select bank0
  6212  1418  1820               	btfsc	___fladd@b,0
  6213  1419  17FC               	bsf	___fladd@grs,7
  6214  141A  3001               	movlw	1
  6215  141B  00A8               	movwf	??___fladd
  6216  141C                     u2415:	
  6217  141C  0D23               	rlf	___fladd@b+3,w
  6218  141D  0CA3               	rrf	___fladd@b+3,f
  6219  141E  0CA2               	rrf	___fladd@b+2,f
  6220  141F  0CA1               	rrf	___fladd@b+1,f
  6221  1420  0CA0               	rrf	___fladd@b,f
  6222  1421  0BA8               	decfsz	??___fladd& (0+127),f
  6223  1422  2C1C               	goto	u2415
  6224  1423  3001               	movlw	1
  6225  1424  00A8               	movwf	??___fladd
  6226  1425  0828               	movf	??___fladd,w
  6227  1426  07FB               	addwf	___fladd@bexp,f
  6228  1427                     l2132:	
  6229  1427  087A               	movf	___fladd@aexp,w
  6230  1428  027B               	subwf	___fladd@bexp,w
  6231  1429  1C03               	skipc
  6232  142A  2C07               	goto	l524
  6233  142B                     l522:	
  6234  142B  1B79               	btfsc	___fladd@signs,6
  6235  142C  2C70               	goto	l2158
  6236  142D  087B               	movf	___fladd@bexp,w
  6237  142E  1D03               	btfss	3,2
  6238  142F  2C3B               	goto	l2140
  6239  1430  3000               	movlw	0
  6240  1431  1283               	bcf	3,5	;RP0=0, select bank0
  6241  1432  1303               	bcf	3,6	;RP1=0, select bank0
  6242  1433  00A3               	movwf	?___fladd+3
  6243  1434  3000               	movlw	0
  6244  1435  00A2               	movwf	?___fladd+2
  6245  1436  3000               	movlw	0
  6246  1437  00A1               	movwf	?___fladd+1
  6247  1438  3000               	movlw	0
  6248  1439  00A0               	movwf	?___fladd
  6249  143A  0008               	return
  6250  143B                     l2140:	
  6251  143B  1283               	bcf	3,5	;RP0=0, select bank0
  6252  143C  1303               	bcf	3,6	;RP1=0, select bank0
  6253  143D  0824               	movf	___fladd@a,w
  6254  143E  07A0               	addwf	___fladd@b,f
  6255  143F  0825               	movf	___fladd@a+1,w
  6256  1440  1103               	clrz
  6257  1441  1803               	skipnc
  6258  1442  3E01               	addlw	1
  6259  1443  1D03               	btfss	3,2
  6260  1444  07A1               	addwf	___fladd@b+1,f
  6261  1445  0826               	movf	___fladd@a+2,w
  6262  1446  1103               	clrz
  6263  1447  1803               	skipnc
  6264  1448  3E01               	addlw	1
  6265  1449  1D03               	btfss	3,2
  6266  144A  07A2               	addwf	___fladd@b+2,f
  6267  144B  0827               	movf	___fladd@a+3,w
  6268  144C  1103               	clrz
  6269  144D  1803               	skipnc
  6270  144E  3E01               	addlw	1
  6271  144F  1D03               	btfss	3,2
  6272  1450  07A3               	addwf	___fladd@b+3,f
  6273  1451  1C23               	btfss	___fladd@b+3,0
  6274  1452  2D14               	goto	l2192
  6275  1453  1C7C               	btfss	___fladd@grs,0
  6276  1454  2C5E               	goto	l2148
  6277  1455  087C               	movf	___fladd@grs,w
  6278  1456  00A8               	movwf	??___fladd
  6279  1457  1003               	clrc
  6280  1458  0C28               	rrf	??___fladd,w
  6281  1459  3801               	iorlw	1
  6282  145A  00A9               	movwf	??___fladd+1
  6283  145B  0829               	movf	??___fladd+1,w
  6284  145C  00FC               	movwf	___fladd@grs
  6285  145D  2C60               	goto	l2150
  6286  145E                     l2148:	
  6287  145E  1003               	clrc
  6288  145F  0CFC               	rrf	___fladd@grs,f
  6289  1460                     l2150:	
  6290  1460  1820               	btfsc	___fladd@b,0
  6291  1461  17FC               	bsf	___fladd@grs,7
  6292  1462  3001               	movlw	1
  6293  1463  00A8               	movwf	??___fladd
  6294  1464                     u2495:	
  6295  1464  0D23               	rlf	___fladd@b+3,w
  6296  1465  0CA3               	rrf	___fladd@b+3,f
  6297  1466  0CA2               	rrf	___fladd@b+2,f
  6298  1467  0CA1               	rrf	___fladd@b+1,f
  6299  1468  0CA0               	rrf	___fladd@b,f
  6300  1469  0BA8               	decfsz	??___fladd& (0+127),f
  6301  146A  2C64               	goto	u2495
  6302  146B  3001               	movlw	1
  6303  146C  00A8               	movwf	??___fladd
  6304  146D  0828               	movf	??___fladd,w
  6305  146E  07FB               	addwf	___fladd@bexp,f
  6306  146F  2D14               	goto	l2192
  6307  1470                     l2158:	
  6308  1470  1283               	bcf	3,5	;RP0=0, select bank0
  6309  1471  1303               	bcf	3,6	;RP1=0, select bank0
  6310  1472  0823               	movf	___fladd@b+3,w
  6311  1473  3A80               	xorlw	128
  6312  1474  00FF               	movwf	127
  6313  1475  0827               	movf	___fladd@a+3,w
  6314  1476  3A80               	xorlw	128
  6315  1477  027F               	subwf	127,w
  6316  1478  1D03               	skipz
  6317  1479  2C84               	goto	u2503
  6318  147A  0826               	movf	___fladd@a+2,w
  6319  147B  0222               	subwf	___fladd@b+2,w
  6320  147C  1D03               	skipz
  6321  147D  2C84               	goto	u2503
  6322  147E  0825               	movf	___fladd@a+1,w
  6323  147F  0221               	subwf	___fladd@b+1,w
  6324  1480  1D03               	skipz
  6325  1481  2C84               	goto	u2503
  6326  1482  0824               	movf	___fladd@a,w
  6327  1483  0220               	subwf	___fladd@b,w
  6328  1484                     u2503:	
  6329  1484  1803               	skipnc
  6330  1485  2CDC               	goto	l2168
  6331  1486  30FF               	movlw	255
  6332  1487  00A8               	movwf	??___fladd
  6333  1488  30FF               	movlw	255
  6334  1489  00A9               	movwf	??___fladd+1
  6335  148A  30FF               	movlw	255
  6336  148B  00AA               	movwf	??___fladd+2
  6337  148C  30FF               	movlw	255
  6338  148D  00AB               	movwf	??___fladd+3
  6339  148E  0824               	movf	___fladd@a,w
  6340  148F  00AC               	movwf	??___fladd+4
  6341  1490  0825               	movf	___fladd@a+1,w
  6342  1491  00AD               	movwf	??___fladd+5
  6343  1492  0826               	movf	___fladd@a+2,w
  6344  1493  00AE               	movwf	??___fladd+6
  6345  1494  0827               	movf	___fladd@a+3,w
  6346  1495  00AF               	movwf	??___fladd+7
  6347  1496  0820               	movf	___fladd@b,w
  6348  1497  02AC               	subwf	??___fladd+4,f
  6349  1498  0821               	movf	___fladd@b+1,w
  6350  1499  1C03               	skipc
  6351  149A  0F21               	incfsz	___fladd@b+1,w
  6352  149B  2C9D               	goto	u2511
  6353  149C  2C9E               	goto	u2512
  6354  149D                     u2511:	
  6355  149D  02AD               	subwf	??___fladd+5,f
  6356  149E                     u2512:	
  6357  149E  0822               	movf	___fladd@b+2,w
  6358  149F  1C03               	skipc
  6359  14A0  0F22               	incfsz	___fladd@b+2,w
  6360  14A1  2CA3               	goto	u2513
  6361  14A2  2CA4               	goto	u2514
  6362  14A3                     u2513:	
  6363  14A3  02AE               	subwf	??___fladd+6,f
  6364  14A4                     u2514:	
  6365  14A4  0823               	movf	___fladd@b+3,w
  6366  14A5  1C03               	skipc
  6367  14A6  0F23               	incfsz	___fladd@b+3,w
  6368  14A7  2CA9               	goto	u2515
  6369  14A8  2CAA               	goto	u2516
  6370  14A9                     u2515:	
  6371  14A9  02AF               	subwf	??___fladd+7,f
  6372  14AA                     u2516:	
  6373  14AA  082C               	movf	??___fladd+4,w
  6374  14AB  07A8               	addwf	??___fladd,f
  6375  14AC  082D               	movf	??___fladd+5,w
  6376  14AD  1803               	skipnc
  6377  14AE  0F2D               	incfsz	??___fladd+5,w
  6378  14AF  2CB1               	goto	u2520
  6379  14B0  2CB2               	goto	u2521
  6380  14B1                     u2520:	
  6381  14B1  07A9               	addwf	??___fladd+1,f
  6382  14B2                     u2521:	
  6383  14B2  082E               	movf	??___fladd+6,w
  6384  14B3  1803               	skipnc
  6385  14B4  0F2E               	incfsz	??___fladd+6,w
  6386  14B5  2CB7               	goto	u2522
  6387  14B6  2CB8               	goto	u2523
  6388  14B7                     u2522:	
  6389  14B7  07AA               	addwf	??___fladd+2,f
  6390  14B8                     u2523:	
  6391  14B8  082F               	movf	??___fladd+7,w
  6392  14B9  1803               	skipnc
  6393  14BA  0A2F               	incf	??___fladd+7,w
  6394  14BB  07AB               	addwf	??___fladd+3,f
  6395  14BC  082B               	movf	??___fladd+3,w
  6396  14BD  00A3               	movwf	___fladd@b+3
  6397  14BE  082A               	movf	??___fladd+2,w
  6398  14BF  00A2               	movwf	___fladd@b+2
  6399  14C0  0829               	movf	??___fladd+1,w
  6400  14C1  00A1               	movwf	___fladd@b+1
  6401  14C2  0828               	movf	??___fladd,w
  6402  14C3  00A0               	movwf	___fladd@b
  6403  14C4  3080               	movlw	128
  6404  14C5  00A8               	movwf	??___fladd
  6405  14C6  0828               	movf	??___fladd,w
  6406  14C7  06F9               	xorwf	___fladd@signs,f
  6407  14C8  09FC               	comf	___fladd@grs,f
  6408  14C9  0AFC               	incf	___fladd@grs,f
  6409  14CA  087C               	movf	___fladd@grs,w
  6410  14CB  1D03               	btfss	3,2
  6411  14CC  2CEA               	goto	l539
  6412  14CD  3001               	movlw	1
  6413  14CE  07A0               	addwf	___fladd@b,f
  6414  14CF  3000               	movlw	0
  6415  14D0  1803               	skipnc
  6416  14D1  3001               	movlw	1
  6417  14D2  07A1               	addwf	___fladd@b+1,f
  6418  14D3  3000               	movlw	0
  6419  14D4  1803               	skipnc
  6420  14D5  3001               	movlw	1
  6421  14D6  07A2               	addwf	___fladd@b+2,f
  6422  14D7  3000               	movlw	0
  6423  14D8  1803               	skipnc
  6424  14D9  3001               	movlw	1
  6425  14DA  07A3               	addwf	___fladd@b+3,f
  6426  14DB  2CEA               	goto	l539
  6427  14DC                     l2168:	
  6428  14DC  0824               	movf	___fladd@a,w
  6429  14DD  02A0               	subwf	___fladd@b,f
  6430  14DE  0825               	movf	___fladd@a+1,w
  6431  14DF  1C03               	skipc
  6432  14E0  0F25               	incfsz	___fladd@a+1,w
  6433  14E1  02A1               	subwf	___fladd@b+1,f
  6434  14E2  0826               	movf	___fladd@a+2,w
  6435  14E3  1C03               	skipc
  6436  14E4  0F26               	incfsz	___fladd@a+2,w
  6437  14E5  02A2               	subwf	___fladd@b+2,f
  6438  14E6  0827               	movf	___fladd@a+3,w
  6439  14E7  1C03               	skipc
  6440  14E8  0F27               	incfsz	___fladd@a+3,w
  6441  14E9  02A3               	subwf	___fladd@b+3,f
  6442  14EA                     l539:	
  6443  14EA  0823               	movf	___fladd@b+3,w
  6444  14EB  0422               	iorwf	___fladd@b+2,w
  6445  14EC  0421               	iorwf	___fladd@b+1,w
  6446  14ED  0420               	iorwf	___fladd@b,w
  6447  14EE  1D03               	skipz
  6448  14EF  2D12               	goto	l2190
  6449  14F0  087C               	movf	___fladd@grs,w
  6450  14F1  1D03               	btfss	3,2
  6451  14F2  2D12               	goto	l2190
  6452  14F3  3000               	movlw	0
  6453  14F4  00A3               	movwf	?___fladd+3
  6454  14F5  3000               	movlw	0
  6455  14F6  00A2               	movwf	?___fladd+2
  6456  14F7  3000               	movlw	0
  6457  14F8  00A1               	movwf	?___fladd+1
  6458  14F9  3000               	movlw	0
  6459  14FA  00A0               	movwf	?___fladd
  6460  14FB  0008               	return
  6461  14FC                     l2176:	
  6462  14FC  3001               	movlw	1
  6463  14FD  00A8               	movwf	??___fladd
  6464  14FE                     u2565:	
  6465  14FE  1003               	clrc
  6466  14FF  0DA0               	rlf	___fladd@b,f
  6467  1500  0DA1               	rlf	___fladd@b+1,f
  6468  1501  0DA2               	rlf	___fladd@b+2,f
  6469  1502  0DA3               	rlf	___fladd@b+3,f
  6470  1503  0BA8               	decfsz	??___fladd,f
  6471  1504  2CFE               	goto	u2565
  6472  1505  1BFC               	btfsc	___fladd@grs,7
  6473  1506  1420               	bsf	___fladd@b,0
  6474  1507  1C7C               	btfss	___fladd@grs,0
  6475  1508  2D0B               	goto	l2184
  6476  1509  1403               	setc
  6477  150A  2D0C               	goto	L4
  6478  150B                     l2184:	
  6479  150B  1003               	clrc
  6480  150C                     L4:	
  6481  150C  0DFC               	rlf	___fladd@grs,f
  6482  150D  087B               	movf	___fladd@bexp,w
  6483  150E  1903               	btfsc	3,2
  6484  150F  2D12               	goto	l2190
  6485  1510  3001               	movlw	1
  6486  1511  02FB               	subwf	___fladd@bexp,f
  6487  1512                     l2190:	
  6488  1512  1FA2               	btfss	___fladd@b+2,7
  6489  1513  2CFC               	goto	l2176
  6490  1514                     l2192:	
  6491  1514  01FA               	clrf	___fladd@aexp
  6492  1515  1FFC               	btfss	___fladd@grs,7
  6493  1516  2D1F               	goto	l2202
  6494  1517  087C               	movf	___fladd@grs,w
  6495  1518  397F               	andlw	127
  6496  1519  1903               	btfsc	3,2
  6497  151A  1820               	btfsc	___fladd@b,0
  6498  151B  2D1D               	goto	l2198
  6499  151C  2D1F               	goto	l2202
  6500  151D                     l2198:	
  6501  151D  01FA               	clrf	___fladd@aexp
  6502  151E  0AFA               	incf	___fladd@aexp,f
  6503  151F                     l2202:	
  6504  151F  087A               	movf	___fladd@aexp,w
  6505  1520  1903               	btfsc	3,2
  6506  1521  2D52               	goto	l552
  6507  1522  3001               	movlw	1
  6508  1523  07A0               	addwf	___fladd@b,f
  6509  1524  3000               	movlw	0
  6510  1525  1803               	skipnc
  6511  1526  3001               	movlw	1
  6512  1527  07A1               	addwf	___fladd@b+1,f
  6513  1528  3000               	movlw	0
  6514  1529  1803               	skipnc
  6515  152A  3001               	movlw	1
  6516  152B  07A2               	addwf	___fladd@b+2,f
  6517  152C  3000               	movlw	0
  6518  152D  1803               	skipnc
  6519  152E  3001               	movlw	1
  6520  152F  07A3               	addwf	___fladd@b+3,f
  6521  1530  1C23               	btfss	___fladd@b+3,0
  6522  1531  2D52               	goto	l552
  6523  1532  0820               	movf	___fladd@b,w
  6524  1533  00A8               	movwf	??___fladd
  6525  1534  0821               	movf	___fladd@b+1,w
  6526  1535  00A9               	movwf	??___fladd+1
  6527  1536  0822               	movf	___fladd@b+2,w
  6528  1537  00AA               	movwf	??___fladd+2
  6529  1538  0823               	movf	___fladd@b+3,w
  6530  1539  00AB               	movwf	??___fladd+3
  6531  153A  3001               	movlw	1
  6532  153B  00AC               	movwf	??___fladd+4
  6533  153C                     u2665:	
  6534  153C  0D2B               	rlf	??___fladd+3,w
  6535  153D  0CAB               	rrf	??___fladd+3,f
  6536  153E  0CAA               	rrf	??___fladd+2,f
  6537  153F  0CA9               	rrf	??___fladd+1,f
  6538  1540  0CA8               	rrf	??___fladd,f
  6539  1541  0BAC               	decfsz	??___fladd+4,f
  6540  1542  2D3C               	goto	u2665
  6541  1543  082B               	movf	??___fladd+3,w
  6542  1544  00A3               	movwf	___fladd@b+3
  6543  1545  082A               	movf	??___fladd+2,w
  6544  1546  00A2               	movwf	___fladd@b+2
  6545  1547  0829               	movf	??___fladd+1,w
  6546  1548  00A1               	movwf	___fladd@b+1
  6547  1549  0828               	movf	??___fladd,w
  6548  154A  00A0               	movwf	___fladd@b
  6549  154B  0A7B               	incf	___fladd@bexp,w
  6550  154C  1903               	btfsc	3,2
  6551  154D  2D52               	goto	l552
  6552  154E  3001               	movlw	1
  6553  154F  00A8               	movwf	??___fladd
  6554  1550  0828               	movf	??___fladd,w
  6555  1551  07FB               	addwf	___fladd@bexp,f
  6556  1552                     l552:	
  6557  1552  0A7B               	incf	___fladd@bexp,w
  6558  1553  1D03               	btfss	3,2
  6559  1554  087B               	movf	___fladd@bexp,w
  6560  1555  1D03               	btfss	3,2
  6561  1556  2D62               	goto	l2220
  6562  1557  3000               	movlw	0
  6563  1558  00A3               	movwf	___fladd@b+3
  6564  1559  3000               	movlw	0
  6565  155A  00A2               	movwf	___fladd@b+2
  6566  155B  3000               	movlw	0
  6567  155C  00A1               	movwf	___fladd@b+1
  6568  155D  3000               	movlw	0
  6569  155E  00A0               	movwf	___fladd@b
  6570  155F  087B               	movf	___fladd@bexp,w
  6571  1560  1903               	btfsc	3,2
  6572  1561  01F9               	clrf	___fladd@signs
  6573  1562                     l2220:	
  6574  1562  1C7B               	btfss	___fladd@bexp,0
  6575  1563  2D66               	goto	l2224
  6576  1564  17A2               	bsf	___fladd@b+2,7
  6577  1565  2D6A               	goto	l560
  6578  1566                     l2224:	
  6579  1566  307F               	movlw	127
  6580  1567  00A8               	movwf	??___fladd
  6581  1568  0828               	movf	??___fladd,w
  6582  1569  05A2               	andwf	___fladd@b+2,f
  6583  156A                     l560:	
  6584  156A  087B               	movf	___fladd@bexp,w
  6585  156B  00A8               	movwf	??___fladd
  6586  156C  1003               	clrc
  6587  156D  0C28               	rrf	??___fladd,w
  6588  156E  00A9               	movwf	??___fladd+1
  6589  156F  0829               	movf	??___fladd+1,w
  6590  1570  00A3               	movwf	___fladd@b+3
  6591  1571  1FF9               	btfss	___fladd@signs,7
  6592  1572  0008               	return
  6593  1573  17A3               	bsf	___fladd@b+3,7
  6594  1574  0008               	return
  6595  1575                     __end_of___fladd:	
  6596                           
  6597                           	psect	text21
  6598  0CEB                     __ptext21:	
  6599 ;; *************** function ___flmul *****************
  6600 ;; Defined at:
  6601 ;;		line 8 in file "C:\Program Files (x86)\Microchip\xc8\v2.05\pic\sources\c90\common\sprcmul.c"
  6602 ;; Parameters:    Size  Location     Type
  6603 ;;  b               4   46[BANK0 ] unsigned char 
  6604 ;;  a               4   50[BANK0 ] unsigned char 
  6605 ;; Auto vars:     Size  Location     Type
  6606 ;;  prod            4   66[BANK0 ] struct .
  6607 ;;  grs             4   60[BANK0 ] unsigned long 
  6608 ;;  temp            2   70[BANK0 ] struct .
  6609 ;;  bexp            1   65[BANK0 ] unsigned char 
  6610 ;;  aexp            1   64[BANK0 ] unsigned char 
  6611 ;;  sign            1   59[BANK0 ] unsigned char 
  6612 ;; Return value:  Size  Location     Type
  6613 ;;                  4   46[BANK0 ] unsigned char 
  6614 ;; Registers used:
  6615 ;;		wreg, status,2, status,0, btemp+1, pclath, cstack
  6616 ;; Tracked objects:
  6617 ;;		On entry : 0/0
  6618 ;;		On exit  : 0/0
  6619 ;;		Unchanged: 0/0
  6620 ;; Data sizes:     COMMON   BANK0   BANK1   BANK3   BANK2
  6621 ;;      Params:         0       8       0       0       0
  6622 ;;      Locals:         0      13       0       0       0
  6623 ;;      Temps:          0       5       0       0       0
  6624 ;;      Totals:         0      26       0       0       0
  6625 ;;Total ram usage:       26 bytes
  6626 ;; Hardware stack levels used:    1
  6627 ;; Hardware stack levels required when called:    1
  6628 ;; This function calls:
  6629 ;;		__Umul8_16
  6630 ;; This function is called by:
  6631 ;;		_Lcd_Print_Ang
  6632 ;;		_main
  6633 ;;		_asin
  6634 ;;		_atan
  6635 ;;		_eval_poly
  6636 ;; This function uses a non-reentrant model
  6637 ;;
  6638                           
  6639                           
  6640                           ;psect for function ___flmul
  6641  0CEB                     ___flmul:	
  6642                           
  6643                           ;incstack = 0
  6644                           ; Regs used in ___flmul: [wreg+status,2+status,0+btemp+1+pclath+cstack]
  6645  0CEB  1283               	bcf	3,5	;RP0=0, select bank0
  6646  0CEC  1303               	bcf	3,6	;RP1=0, select bank0
  6647  0CED  0851               	movf	___flmul@b+3,w
  6648  0CEE  3980               	andlw	128
  6649  0CEF  00D6               	movwf	??___flmul
  6650  0CF0  0856               	movf	??___flmul,w
  6651  0CF1  00DB               	movwf	___flmul@sign
  6652  0CF2  0851               	movf	___flmul@b+3,w
  6653  0CF3  00D6               	movwf	??___flmul
  6654  0CF4  0756               	addwf	??___flmul,w
  6655  0CF5  00D7               	movwf	??___flmul+1
  6656  0CF6  0857               	movf	??___flmul+1,w
  6657  0CF7  00E1               	movwf	___flmul@bexp
  6658  0CF8  1BD0               	btfsc	___flmul@b+2,7
  6659  0CF9  1461               	bsf	___flmul@bexp,0
  6660  0CFA  0861               	movf	___flmul@bexp,w
  6661  0CFB  1903               	btfsc	3,2
  6662  0CFC  2D0A               	goto	l2246
  6663  0CFD  0A61               	incf	___flmul@bexp,w
  6664  0CFE  1D03               	btfss	3,2
  6665  0CFF  2D08               	goto	l2244
  6666  0D00  3000               	movlw	0
  6667  0D01  00D1               	movwf	___flmul@b+3
  6668  0D02  3000               	movlw	0
  6669  0D03  00D0               	movwf	___flmul@b+2
  6670  0D04  3000               	movlw	0
  6671  0D05  00CF               	movwf	___flmul@b+1
  6672  0D06  3000               	movlw	0
  6673  0D07  00CE               	movwf	___flmul@b
  6674  0D08                     l2244:	
  6675  0D08  17D0               	bsf	___flmul@b+2,7
  6676  0D09  2D12               	goto	l2248
  6677  0D0A                     l2246:	
  6678  0D0A  3000               	movlw	0
  6679  0D0B  00D1               	movwf	___flmul@b+3
  6680  0D0C  3000               	movlw	0
  6681  0D0D  00D0               	movwf	___flmul@b+2
  6682  0D0E  3000               	movlw	0
  6683  0D0F  00CF               	movwf	___flmul@b+1
  6684  0D10  3000               	movlw	0
  6685  0D11  00CE               	movwf	___flmul@b
  6686  0D12                     l2248:	
  6687  0D12  0855               	movf	___flmul@a+3,w
  6688  0D13  3980               	andlw	128
  6689  0D14  00D6               	movwf	??___flmul
  6690  0D15  0856               	movf	??___flmul,w
  6691  0D16  06DB               	xorwf	___flmul@sign,f
  6692  0D17  0855               	movf	___flmul@a+3,w
  6693  0D18  00D6               	movwf	??___flmul
  6694  0D19  0756               	addwf	??___flmul,w
  6695  0D1A  00D7               	movwf	??___flmul+1
  6696  0D1B  0857               	movf	??___flmul+1,w
  6697  0D1C  00E0               	movwf	___flmul@aexp
  6698  0D1D  1BD4               	btfsc	___flmul@a+2,7
  6699  0D1E  1460               	bsf	___flmul@aexp,0
  6700  0D1F  0860               	movf	___flmul@aexp,w
  6701  0D20  1903               	btfsc	3,2
  6702  0D21  2D2F               	goto	l2264
  6703  0D22  0A60               	incf	___flmul@aexp,w
  6704  0D23  1D03               	btfss	3,2
  6705  0D24  2D2D               	goto	l2262
  6706  0D25  3000               	movlw	0
  6707  0D26  00D5               	movwf	___flmul@a+3
  6708  0D27  3000               	movlw	0
  6709  0D28  00D4               	movwf	___flmul@a+2
  6710  0D29  3000               	movlw	0
  6711  0D2A  00D3               	movwf	___flmul@a+1
  6712  0D2B  3000               	movlw	0
  6713  0D2C  00D2               	movwf	___flmul@a
  6714  0D2D                     l2262:	
  6715  0D2D  17D4               	bsf	___flmul@a+2,7
  6716  0D2E  2D37               	goto	l2266
  6717  0D2F                     l2264:	
  6718  0D2F  3000               	movlw	0
  6719  0D30  00D5               	movwf	___flmul@a+3
  6720  0D31  3000               	movlw	0
  6721  0D32  00D4               	movwf	___flmul@a+2
  6722  0D33  3000               	movlw	0
  6723  0D34  00D3               	movwf	___flmul@a+1
  6724  0D35  3000               	movlw	0
  6725  0D36  00D2               	movwf	___flmul@a
  6726  0D37                     l2266:	
  6727  0D37  0860               	movf	___flmul@aexp,w
  6728  0D38  1D03               	btfss	3,2
  6729  0D39  0861               	movf	___flmul@bexp,w
  6730  0D3A  1D03               	btfss	3,2
  6731  0D3B  2D45               	goto	l2274
  6732  0D3C  3000               	movlw	0
  6733  0D3D  00D1               	movwf	?___flmul+3
  6734  0D3E  3000               	movlw	0
  6735  0D3F  00D0               	movwf	?___flmul+2
  6736  0D40  3000               	movlw	0
  6737  0D41  00CF               	movwf	?___flmul+1
  6738  0D42  3000               	movlw	0
  6739  0D43  00CE               	movwf	?___flmul
  6740  0D44  0008               	return
  6741  0D45                     l2274:	
  6742  0D45  084E               	movf	___flmul@b,w
  6743  0D46  00D6               	movwf	??___flmul
  6744  0D47  0856               	movf	??___flmul,w
  6745  0D48  00F0               	movwf	__Umul8_16@multiplicand
  6746  0D49  0854               	movf	___flmul@a+2,w
  6747  0D4A  160A  158A  22DD  120A  158A  	fcall	__Umul8_16
  6748  0D4F  0871               	movf	?__Umul8_16+1,w
  6749  0D50  1283               	bcf	3,5	;RP0=0, select bank0
  6750  0D51  1303               	bcf	3,6	;RP1=0, select bank0
  6751  0D52  00E7               	movwf	___flmul@temp+1
  6752  0D53  0870               	movf	?__Umul8_16,w
  6753  0D54  00E6               	movwf	___flmul@temp
  6754  0D55  0866               	movf	___flmul@temp,w
  6755  0D56  00D6               	movwf	??___flmul
  6756  0D57  01D7               	clrf	??___flmul+1
  6757  0D58  01D8               	clrf	??___flmul+2
  6758  0D59  01D9               	clrf	??___flmul+3
  6759  0D5A  0859               	movf	??___flmul+3,w
  6760  0D5B  00DF               	movwf	___flmul@grs+3
  6761  0D5C  0858               	movf	??___flmul+2,w
  6762  0D5D  00DE               	movwf	___flmul@grs+2
  6763  0D5E  0857               	movf	??___flmul+1,w
  6764  0D5F  00DD               	movwf	___flmul@grs+1
  6765  0D60  0856               	movf	??___flmul,w
  6766  0D61  00DC               	movwf	___flmul@grs
  6767  0D62  0867               	movf	___flmul@temp+1,w
  6768  0D63  00D6               	movwf	??___flmul
  6769  0D64  01D7               	clrf	??___flmul+1
  6770  0D65  01D8               	clrf	??___flmul+2
  6771  0D66  01D9               	clrf	??___flmul+3
  6772  0D67  0859               	movf	??___flmul+3,w
  6773  0D68  00E5               	movwf	___flmul@prod+3
  6774  0D69  0858               	movf	??___flmul+2,w
  6775  0D6A  00E4               	movwf	___flmul@prod+2
  6776  0D6B  0857               	movf	??___flmul+1,w
  6777  0D6C  00E3               	movwf	___flmul@prod+1
  6778  0D6D  0856               	movf	??___flmul,w
  6779  0D6E  00E2               	movwf	___flmul@prod
  6780  0D6F  084F               	movf	___flmul@b+1,w
  6781  0D70  00D6               	movwf	??___flmul
  6782  0D71  0856               	movf	??___flmul,w
  6783  0D72  00F0               	movwf	__Umul8_16@multiplicand
  6784  0D73  0853               	movf	___flmul@a+1,w
  6785  0D74  160A  158A  22DD  120A  158A  	fcall	__Umul8_16
  6786  0D79  0871               	movf	?__Umul8_16+1,w
  6787  0D7A  1283               	bcf	3,5	;RP0=0, select bank0
  6788  0D7B  1303               	bcf	3,6	;RP1=0, select bank0
  6789  0D7C  00E7               	movwf	___flmul@temp+1
  6790  0D7D  0870               	movf	?__Umul8_16,w
  6791  0D7E  00E6               	movwf	___flmul@temp
  6792  0D7F  0866               	movf	___flmul@temp,w
  6793  0D80  00D6               	movwf	??___flmul
  6794  0D81  01D7               	clrf	??___flmul+1
  6795  0D82  01D8               	clrf	??___flmul+2
  6796  0D83  01D9               	clrf	??___flmul+3
  6797  0D84  0856               	movf	??___flmul,w
  6798  0D85  07DC               	addwf	___flmul@grs,f
  6799  0D86  0857               	movf	??___flmul+1,w
  6800  0D87  1103               	clrz
  6801  0D88  1803               	skipnc
  6802  0D89  3E01               	addlw	1
  6803  0D8A  1D03               	btfss	3,2
  6804  0D8B  07DD               	addwf	___flmul@grs+1,f
  6805  0D8C  0858               	movf	??___flmul+2,w
  6806  0D8D  1103               	clrz
  6807  0D8E  1803               	skipnc
  6808  0D8F  3E01               	addlw	1
  6809  0D90  1D03               	btfss	3,2
  6810  0D91  07DE               	addwf	___flmul@grs+2,f
  6811  0D92  0859               	movf	??___flmul+3,w
  6812  0D93  1103               	clrz
  6813  0D94  1803               	skipnc
  6814  0D95  3E01               	addlw	1
  6815  0D96  1D03               	btfss	3,2
  6816  0D97  07DF               	addwf	___flmul@grs+3,f
  6817  0D98  0867               	movf	___flmul@temp+1,w
  6818  0D99  00D6               	movwf	??___flmul
  6819  0D9A  01D7               	clrf	??___flmul+1
  6820  0D9B  01D8               	clrf	??___flmul+2
  6821  0D9C  01D9               	clrf	??___flmul+3
  6822  0D9D  0856               	movf	??___flmul,w
  6823  0D9E  07E2               	addwf	___flmul@prod,f
  6824  0D9F  0857               	movf	??___flmul+1,w
  6825  0DA0  1103               	clrz
  6826  0DA1  1803               	skipnc
  6827  0DA2  3E01               	addlw	1
  6828  0DA3  1D03               	btfss	3,2
  6829  0DA4  07E3               	addwf	___flmul@prod+1,f
  6830  0DA5  0858               	movf	??___flmul+2,w
  6831  0DA6  1103               	clrz
  6832  0DA7  1803               	skipnc
  6833  0DA8  3E01               	addlw	1
  6834  0DA9  1D03               	btfss	3,2
  6835  0DAA  07E4               	addwf	___flmul@prod+2,f
  6836  0DAB  0859               	movf	??___flmul+3,w
  6837  0DAC  1103               	clrz
  6838  0DAD  1803               	skipnc
  6839  0DAE  3E01               	addlw	1
  6840  0DAF  1D03               	btfss	3,2
  6841  0DB0  07E5               	addwf	___flmul@prod+3,f
  6842  0DB1  0850               	movf	___flmul@b+2,w
  6843  0DB2  00D6               	movwf	??___flmul
  6844  0DB3  0856               	movf	??___flmul,w
  6845  0DB4  00F0               	movwf	__Umul8_16@multiplicand
  6846  0DB5  0852               	movf	___flmul@a,w
  6847  0DB6  160A  158A  22DD  120A  158A  	fcall	__Umul8_16
  6848  0DBB  0871               	movf	?__Umul8_16+1,w
  6849  0DBC  1283               	bcf	3,5	;RP0=0, select bank0
  6850  0DBD  1303               	bcf	3,6	;RP1=0, select bank0
  6851  0DBE  00E7               	movwf	___flmul@temp+1
  6852  0DBF  0870               	movf	?__Umul8_16,w
  6853  0DC0  00E6               	movwf	___flmul@temp
  6854  0DC1  0866               	movf	___flmul@temp,w
  6855  0DC2  00D6               	movwf	??___flmul
  6856  0DC3  01D7               	clrf	??___flmul+1
  6857  0DC4  01D8               	clrf	??___flmul+2
  6858  0DC5  01D9               	clrf	??___flmul+3
  6859  0DC6  0856               	movf	??___flmul,w
  6860  0DC7  07DC               	addwf	___flmul@grs,f
  6861  0DC8  0857               	movf	??___flmul+1,w
  6862  0DC9  1103               	clrz
  6863  0DCA  1803               	skipnc
  6864  0DCB  3E01               	addlw	1
  6865  0DCC  1D03               	btfss	3,2
  6866  0DCD  07DD               	addwf	___flmul@grs+1,f
  6867  0DCE  0858               	movf	??___flmul+2,w
  6868  0DCF  1103               	clrz
  6869  0DD0  1803               	skipnc
  6870  0DD1  3E01               	addlw	1
  6871  0DD2  1D03               	btfss	3,2
  6872  0DD3  07DE               	addwf	___flmul@grs+2,f
  6873  0DD4  0859               	movf	??___flmul+3,w
  6874  0DD5  1103               	clrz
  6875  0DD6  1803               	skipnc
  6876  0DD7  3E01               	addlw	1
  6877  0DD8  1D03               	btfss	3,2
  6878  0DD9  07DF               	addwf	___flmul@grs+3,f
  6879  0DDA  0867               	movf	___flmul@temp+1,w
  6880  0DDB  00D6               	movwf	??___flmul
  6881  0DDC  01D7               	clrf	??___flmul+1
  6882  0DDD  01D8               	clrf	??___flmul+2
  6883  0DDE  01D9               	clrf	??___flmul+3
  6884  0DDF  0856               	movf	??___flmul,w
  6885  0DE0  07E2               	addwf	___flmul@prod,f
  6886  0DE1  0857               	movf	??___flmul+1,w
  6887  0DE2  1103               	clrz
  6888  0DE3  1803               	skipnc
  6889  0DE4  3E01               	addlw	1
  6890  0DE5  1D03               	btfss	3,2
  6891  0DE6  07E3               	addwf	___flmul@prod+1,f
  6892  0DE7  0858               	movf	??___flmul+2,w
  6893  0DE8  1103               	clrz
  6894  0DE9  1803               	skipnc
  6895  0DEA  3E01               	addlw	1
  6896  0DEB  1D03               	btfss	3,2
  6897  0DEC  07E4               	addwf	___flmul@prod+2,f
  6898  0DED  0859               	movf	??___flmul+3,w
  6899  0DEE  1103               	clrz
  6900  0DEF  1803               	skipnc
  6901  0DF0  3E01               	addlw	1
  6902  0DF1  1D03               	btfss	3,2
  6903  0DF2  07E5               	addwf	___flmul@prod+3,f
  6904  0DF3  3008               	movlw	8
  6905  0DF4  00D6               	movwf	??___flmul
  6906  0DF5                     u2855:	
  6907  0DF5  1003               	clrc
  6908  0DF6  0DDC               	rlf	___flmul@grs,f
  6909  0DF7  0DDD               	rlf	___flmul@grs+1,f
  6910  0DF8  0DDE               	rlf	___flmul@grs+2,f
  6911  0DF9  0DDF               	rlf	___flmul@grs+3,f
  6912  0DFA  0BD6               	decfsz	??___flmul,f
  6913  0DFB  2DF5               	goto	u2855
  6914  0DFC  084F               	movf	___flmul@b+1,w
  6915  0DFD  00D6               	movwf	??___flmul
  6916  0DFE  0856               	movf	??___flmul,w
  6917  0DFF  00F0               	movwf	__Umul8_16@multiplicand
  6918  0E00  0852               	movf	___flmul@a,w
  6919  0E01  160A  158A  22DD  120A  158A  	fcall	__Umul8_16
  6920  0E06  0871               	movf	?__Umul8_16+1,w
  6921  0E07  1283               	bcf	3,5	;RP0=0, select bank0
  6922  0E08  1303               	bcf	3,6	;RP1=0, select bank0
  6923  0E09  00E7               	movwf	___flmul@temp+1
  6924  0E0A  0870               	movf	?__Umul8_16,w
  6925  0E0B  00E6               	movwf	___flmul@temp
  6926  0E0C  0866               	movf	___flmul@temp,w
  6927  0E0D  00D6               	movwf	??___flmul
  6928  0E0E  0867               	movf	___flmul@temp+1,w
  6929  0E0F  00D7               	movwf	??___flmul+1
  6930  0E10  01D8               	clrf	??___flmul+2
  6931  0E11  01D9               	clrf	??___flmul+3
  6932  0E12  0856               	movf	??___flmul,w
  6933  0E13  07DC               	addwf	___flmul@grs,f
  6934  0E14  0857               	movf	??___flmul+1,w
  6935  0E15  1103               	clrz
  6936  0E16  1803               	skipnc
  6937  0E17  3E01               	addlw	1
  6938  0E18  1D03               	btfss	3,2
  6939  0E19  07DD               	addwf	___flmul@grs+1,f
  6940  0E1A  0858               	movf	??___flmul+2,w
  6941  0E1B  1103               	clrz
  6942  0E1C  1803               	skipnc
  6943  0E1D  3E01               	addlw	1
  6944  0E1E  1D03               	btfss	3,2
  6945  0E1F  07DE               	addwf	___flmul@grs+2,f
  6946  0E20  0859               	movf	??___flmul+3,w
  6947  0E21  1103               	clrz
  6948  0E22  1803               	skipnc
  6949  0E23  3E01               	addlw	1
  6950  0E24  1D03               	btfss	3,2
  6951  0E25  07DF               	addwf	___flmul@grs+3,f
  6952  0E26  084E               	movf	___flmul@b,w
  6953  0E27  00D6               	movwf	??___flmul
  6954  0E28  0856               	movf	??___flmul,w
  6955  0E29  00F0               	movwf	__Umul8_16@multiplicand
  6956  0E2A  0853               	movf	___flmul@a+1,w
  6957  0E2B  160A  158A  22DD  120A  158A  	fcall	__Umul8_16
  6958  0E30  0871               	movf	?__Umul8_16+1,w
  6959  0E31  1283               	bcf	3,5	;RP0=0, select bank0
  6960  0E32  1303               	bcf	3,6	;RP1=0, select bank0
  6961  0E33  00E7               	movwf	___flmul@temp+1
  6962  0E34  0870               	movf	?__Umul8_16,w
  6963  0E35  00E6               	movwf	___flmul@temp
  6964  0E36  0866               	movf	___flmul@temp,w
  6965  0E37  00D6               	movwf	??___flmul
  6966  0E38  0867               	movf	___flmul@temp+1,w
  6967  0E39  00D7               	movwf	??___flmul+1
  6968  0E3A  01D8               	clrf	??___flmul+2
  6969  0E3B  01D9               	clrf	??___flmul+3
  6970  0E3C  0856               	movf	??___flmul,w
  6971  0E3D  07DC               	addwf	___flmul@grs,f
  6972  0E3E  0857               	movf	??___flmul+1,w
  6973  0E3F  1103               	clrz
  6974  0E40  1803               	skipnc
  6975  0E41  3E01               	addlw	1
  6976  0E42  1D03               	btfss	3,2
  6977  0E43  07DD               	addwf	___flmul@grs+1,f
  6978  0E44  0858               	movf	??___flmul+2,w
  6979  0E45  1103               	clrz
  6980  0E46  1803               	skipnc
  6981  0E47  3E01               	addlw	1
  6982  0E48  1D03               	btfss	3,2
  6983  0E49  07DE               	addwf	___flmul@grs+2,f
  6984  0E4A  0859               	movf	??___flmul+3,w
  6985  0E4B  1103               	clrz
  6986  0E4C  1803               	skipnc
  6987  0E4D  3E01               	addlw	1
  6988  0E4E  1D03               	btfss	3,2
  6989  0E4F  07DF               	addwf	___flmul@grs+3,f
  6990  0E50  3008               	movlw	8
  6991  0E51  00D6               	movwf	??___flmul
  6992  0E52                     u2885:	
  6993  0E52  1003               	clrc
  6994  0E53  0DDC               	rlf	___flmul@grs,f
  6995  0E54  0DDD               	rlf	___flmul@grs+1,f
  6996  0E55  0DDE               	rlf	___flmul@grs+2,f
  6997  0E56  0DDF               	rlf	___flmul@grs+3,f
  6998  0E57  0BD6               	decfsz	??___flmul,f
  6999  0E58  2E52               	goto	u2885
  7000  0E59  084E               	movf	___flmul@b,w
  7001  0E5A  00D6               	movwf	??___flmul
  7002  0E5B  0856               	movf	??___flmul,w
  7003  0E5C  00F0               	movwf	__Umul8_16@multiplicand
  7004  0E5D  0852               	movf	___flmul@a,w
  7005  0E5E  160A  158A  22DD  120A  158A  	fcall	__Umul8_16
  7006  0E63  0871               	movf	?__Umul8_16+1,w
  7007  0E64  1283               	bcf	3,5	;RP0=0, select bank0
  7008  0E65  1303               	bcf	3,6	;RP1=0, select bank0
  7009  0E66  00E7               	movwf	___flmul@temp+1
  7010  0E67  0870               	movf	?__Umul8_16,w
  7011  0E68  00E6               	movwf	___flmul@temp
  7012  0E69  0866               	movf	___flmul@temp,w
  7013  0E6A  00D6               	movwf	??___flmul
  7014  0E6B  0867               	movf	___flmul@temp+1,w
  7015  0E6C  00D7               	movwf	??___flmul+1
  7016  0E6D  01D8               	clrf	??___flmul+2
  7017  0E6E  01D9               	clrf	??___flmul+3
  7018  0E6F  0856               	movf	??___flmul,w
  7019  0E70  07DC               	addwf	___flmul@grs,f
  7020  0E71  0857               	movf	??___flmul+1,w
  7021  0E72  1103               	clrz
  7022  0E73  1803               	skipnc
  7023  0E74  3E01               	addlw	1
  7024  0E75  1D03               	btfss	3,2
  7025  0E76  07DD               	addwf	___flmul@grs+1,f
  7026  0E77  0858               	movf	??___flmul+2,w
  7027  0E78  1103               	clrz
  7028  0E79  1803               	skipnc
  7029  0E7A  3E01               	addlw	1
  7030  0E7B  1D03               	btfss	3,2
  7031  0E7C  07DE               	addwf	___flmul@grs+2,f
  7032  0E7D  0859               	movf	??___flmul+3,w
  7033  0E7E  1103               	clrz
  7034  0E7F  1803               	skipnc
  7035  0E80  3E01               	addlw	1
  7036  0E81  1D03               	btfss	3,2
  7037  0E82  07DF               	addwf	___flmul@grs+3,f
  7038  0E83  084F               	movf	___flmul@b+1,w
  7039  0E84  00D6               	movwf	??___flmul
  7040  0E85  0856               	movf	??___flmul,w
  7041  0E86  00F0               	movwf	__Umul8_16@multiplicand
  7042  0E87  0854               	movf	___flmul@a+2,w
  7043  0E88  160A  158A  22DD  120A  158A  	fcall	__Umul8_16
  7044  0E8D  0871               	movf	?__Umul8_16+1,w
  7045  0E8E  1283               	bcf	3,5	;RP0=0, select bank0
  7046  0E8F  1303               	bcf	3,6	;RP1=0, select bank0
  7047  0E90  00E7               	movwf	___flmul@temp+1
  7048  0E91  0870               	movf	?__Umul8_16,w
  7049  0E92  00E6               	movwf	___flmul@temp
  7050  0E93  0866               	movf	___flmul@temp,w
  7051  0E94  00D6               	movwf	??___flmul
  7052  0E95  0867               	movf	___flmul@temp+1,w
  7053  0E96  00D7               	movwf	??___flmul+1
  7054  0E97  01D8               	clrf	??___flmul+2
  7055  0E98  01D9               	clrf	??___flmul+3
  7056  0E99  0856               	movf	??___flmul,w
  7057  0E9A  07E2               	addwf	___flmul@prod,f
  7058  0E9B  0857               	movf	??___flmul+1,w
  7059  0E9C  1103               	clrz
  7060  0E9D  1803               	skipnc
  7061  0E9E  3E01               	addlw	1
  7062  0E9F  1D03               	btfss	3,2
  7063  0EA0  07E3               	addwf	___flmul@prod+1,f
  7064  0EA1  0858               	movf	??___flmul+2,w
  7065  0EA2  1103               	clrz
  7066  0EA3  1803               	skipnc
  7067  0EA4  3E01               	addlw	1
  7068  0EA5  1D03               	btfss	3,2
  7069  0EA6  07E4               	addwf	___flmul@prod+2,f
  7070  0EA7  0859               	movf	??___flmul+3,w
  7071  0EA8  1103               	clrz
  7072  0EA9  1803               	skipnc
  7073  0EAA  3E01               	addlw	1
  7074  0EAB  1D03               	btfss	3,2
  7075  0EAC  07E5               	addwf	___flmul@prod+3,f
  7076  0EAD  0850               	movf	___flmul@b+2,w
  7077  0EAE  00D6               	movwf	??___flmul
  7078  0EAF  0856               	movf	??___flmul,w
  7079  0EB0  00F0               	movwf	__Umul8_16@multiplicand
  7080  0EB1  0853               	movf	___flmul@a+1,w
  7081  0EB2  160A  158A  22DD  120A  158A  	fcall	__Umul8_16
  7082  0EB7  0871               	movf	?__Umul8_16+1,w
  7083  0EB8  1283               	bcf	3,5	;RP0=0, select bank0
  7084  0EB9  1303               	bcf	3,6	;RP1=0, select bank0
  7085  0EBA  00E7               	movwf	___flmul@temp+1
  7086  0EBB  0870               	movf	?__Umul8_16,w
  7087  0EBC  00E6               	movwf	___flmul@temp
  7088  0EBD  0866               	movf	___flmul@temp,w
  7089  0EBE  00D6               	movwf	??___flmul
  7090  0EBF  0867               	movf	___flmul@temp+1,w
  7091  0EC0  00D7               	movwf	??___flmul+1
  7092  0EC1  01D8               	clrf	??___flmul+2
  7093  0EC2  01D9               	clrf	??___flmul+3
  7094  0EC3  0856               	movf	??___flmul,w
  7095  0EC4  07E2               	addwf	___flmul@prod,f
  7096  0EC5  0857               	movf	??___flmul+1,w
  7097  0EC6  1103               	clrz
  7098  0EC7  1803               	skipnc
  7099  0EC8  3E01               	addlw	1
  7100  0EC9  1D03               	btfss	3,2
  7101  0ECA  07E3               	addwf	___flmul@prod+1,f
  7102  0ECB  0858               	movf	??___flmul+2,w
  7103  0ECC  1103               	clrz
  7104  0ECD  1803               	skipnc
  7105  0ECE  3E01               	addlw	1
  7106  0ECF  1D03               	btfss	3,2
  7107  0ED0  07E4               	addwf	___flmul@prod+2,f
  7108  0ED1  0859               	movf	??___flmul+3,w
  7109  0ED2  1103               	clrz
  7110  0ED3  1803               	skipnc
  7111  0ED4  3E01               	addlw	1
  7112  0ED5  1D03               	btfss	3,2
  7113  0ED6  07E5               	addwf	___flmul@prod+3,f
  7114  0ED7  0850               	movf	___flmul@b+2,w
  7115  0ED8  00D6               	movwf	??___flmul
  7116  0ED9  0856               	movf	??___flmul,w
  7117  0EDA  00F0               	movwf	__Umul8_16@multiplicand
  7118  0EDB  0854               	movf	___flmul@a+2,w
  7119  0EDC  160A  158A  22DD  120A  158A  	fcall	__Umul8_16
  7120  0EE1  0871               	movf	?__Umul8_16+1,w
  7121  0EE2  1283               	bcf	3,5	;RP0=0, select bank0
  7122  0EE3  1303               	bcf	3,6	;RP1=0, select bank0
  7123  0EE4  00E7               	movwf	___flmul@temp+1
  7124  0EE5  0870               	movf	?__Umul8_16,w
  7125  0EE6  00E6               	movwf	___flmul@temp
  7126  0EE7  0866               	movf	___flmul@temp,w
  7127  0EE8  00D6               	movwf	??___flmul
  7128  0EE9  0867               	movf	___flmul@temp+1,w
  7129  0EEA  00D7               	movwf	??___flmul+1
  7130  0EEB  01D8               	clrf	??___flmul+2
  7131  0EEC  01D9               	clrf	??___flmul+3
  7132  0EED  3008               	movlw	8
  7133  0EEE                     u2925:	
  7134  0EEE  1003               	clrc
  7135  0EEF  0DD6               	rlf	??___flmul,f
  7136  0EF0  0DD7               	rlf	??___flmul+1,f
  7137  0EF1  0DD8               	rlf	??___flmul+2,f
  7138  0EF2  0DD9               	rlf	??___flmul+3,f
  7139  0EF3  3EFF               	addlw	-1
  7140  0EF4  1D03               	skipz
  7141  0EF5  2EEE               	goto	u2925
  7142  0EF6  0856               	movf	??___flmul,w
  7143  0EF7  07E2               	addwf	___flmul@prod,f
  7144  0EF8  0857               	movf	??___flmul+1,w
  7145  0EF9  1103               	clrz
  7146  0EFA  1803               	skipnc
  7147  0EFB  3E01               	addlw	1
  7148  0EFC  1D03               	btfss	3,2
  7149  0EFD  07E3               	addwf	___flmul@prod+1,f
  7150  0EFE  0858               	movf	??___flmul+2,w
  7151  0EFF  1103               	clrz
  7152  0F00  1803               	skipnc
  7153  0F01  3E01               	addlw	1
  7154  0F02  1D03               	btfss	3,2
  7155  0F03  07E4               	addwf	___flmul@prod+2,f
  7156  0F04  0859               	movf	??___flmul+3,w
  7157  0F05  1103               	clrz
  7158  0F06  1803               	skipnc
  7159  0F07  3E01               	addlw	1
  7160  0F08  1D03               	btfss	3,2
  7161  0F09  07E5               	addwf	___flmul@prod+3,f
  7162  0F0A  085C               	movf	___flmul@grs,w
  7163  0F0B  00D6               	movwf	??___flmul
  7164  0F0C  085D               	movf	___flmul@grs+1,w
  7165  0F0D  00D7               	movwf	??___flmul+1
  7166  0F0E  085E               	movf	___flmul@grs+2,w
  7167  0F0F  00D8               	movwf	??___flmul+2
  7168  0F10  085F               	movf	___flmul@grs+3,w
  7169  0F11  00D9               	movwf	??___flmul+3
  7170  0F12  3018               	movlw	24
  7171  0F13                     u2945:	
  7172  0F13  1003               	clrc
  7173  0F14  0CD9               	rrf	??___flmul+3,f
  7174  0F15  0CD8               	rrf	??___flmul+2,f
  7175  0F16  0CD7               	rrf	??___flmul+1,f
  7176  0F17  0CD6               	rrf	??___flmul,f
  7177  0F18  3EFF               	addlw	-1
  7178  0F19  1D03               	skipz
  7179  0F1A  2F13               	goto	u2945
  7180  0F1B  0856               	movf	??___flmul,w
  7181  0F1C  07E2               	addwf	___flmul@prod,f
  7182  0F1D  0857               	movf	??___flmul+1,w
  7183  0F1E  1103               	clrz
  7184  0F1F  1803               	skipnc
  7185  0F20  3E01               	addlw	1
  7186  0F21  1D03               	btfss	3,2
  7187  0F22  07E3               	addwf	___flmul@prod+1,f
  7188  0F23  0858               	movf	??___flmul+2,w
  7189  0F24  1103               	clrz
  7190  0F25  1803               	skipnc
  7191  0F26  3E01               	addlw	1
  7192  0F27  1D03               	btfss	3,2
  7193  0F28  07E4               	addwf	___flmul@prod+2,f
  7194  0F29  0859               	movf	??___flmul+3,w
  7195  0F2A  1103               	clrz
  7196  0F2B  1803               	skipnc
  7197  0F2C  3E01               	addlw	1
  7198  0F2D  1D03               	btfss	3,2
  7199  0F2E  07E5               	addwf	___flmul@prod+3,f
  7200  0F2F  3008               	movlw	8
  7201  0F30  00D6               	movwf	??___flmul
  7202  0F31                     u2965:	
  7203  0F31  1003               	clrc
  7204  0F32  0DDC               	rlf	___flmul@grs,f
  7205  0F33  0DDD               	rlf	___flmul@grs+1,f
  7206  0F34  0DDE               	rlf	___flmul@grs+2,f
  7207  0F35  0DDF               	rlf	___flmul@grs+3,f
  7208  0F36  0BD6               	decfsz	??___flmul,f
  7209  0F37  2F31               	goto	u2965
  7210  0F38  0861               	movf	___flmul@bexp,w
  7211  0F39  0760               	addwf	___flmul@aexp,w
  7212  0F3A  00D6               	movwf	??___flmul
  7213  0F3B  01D7               	clrf	??___flmul+1
  7214  0F3C  0DD7               	rlf	??___flmul+1,f
  7215  0F3D  0856               	movf	??___flmul,w
  7216  0F3E  3E82               	addlw	130
  7217  0F3F  00E6               	movwf	___flmul@temp
  7218  0F40  0857               	movf	??___flmul+1,w
  7219  0F41  1803               	skipnc
  7220  0F42  3E01               	addlw	1
  7221  0F43  3EFF               	addlw	255
  7222  0F44  00E7               	movwf	___flmul@temp+1
  7223  0F45                     l2326:	
  7224  0F45  1BE4               	btfsc	___flmul@prod+2,7
  7225  0F46  2F62               	goto	l2328
  7226  0F47  3001               	movlw	1
  7227  0F48  00D6               	movwf	??___flmul
  7228  0F49                     u2975:	
  7229  0F49  1003               	clrc
  7230  0F4A  0DE2               	rlf	___flmul@prod,f
  7231  0F4B  0DE3               	rlf	___flmul@prod+1,f
  7232  0F4C  0DE4               	rlf	___flmul@prod+2,f
  7233  0F4D  0DE5               	rlf	___flmul@prod+3,f
  7234  0F4E  0BD6               	decfsz	??___flmul,f
  7235  0F4F  2F49               	goto	u2975
  7236  0F50  1BDF               	btfsc	___flmul@grs+3,7
  7237  0F51  1462               	bsf	___flmul@prod,0
  7238  0F52  3001               	movlw	1
  7239  0F53  00D6               	movwf	??___flmul
  7240  0F54                     u2995:	
  7241  0F54  1003               	clrc
  7242  0F55  0DDC               	rlf	___flmul@grs,f
  7243  0F56  0DDD               	rlf	___flmul@grs+1,f
  7244  0F57  0DDE               	rlf	___flmul@grs+2,f
  7245  0F58  0DDF               	rlf	___flmul@grs+3,f
  7246  0F59  0BD6               	decfsz	??___flmul,f
  7247  0F5A  2F54               	goto	u2995
  7248  0F5B  30FF               	movlw	255
  7249  0F5C  07E6               	addwf	___flmul@temp,f
  7250  0F5D  1803               	skipnc
  7251  0F5E  0AE7               	incf	___flmul@temp+1,f
  7252  0F5F  30FF               	movlw	255
  7253  0F60  07E7               	addwf	___flmul@temp+1,f
  7254  0F61  2F45               	goto	l2326
  7255  0F62                     l2328:	
  7256  0F62  01E0               	clrf	___flmul@aexp
  7257  0F63  1FDF               	btfss	___flmul@grs+3,7
  7258  0F64  2F7B               	goto	l2338
  7259  0F65  30FF               	movlw	255
  7260  0F66  055C               	andwf	___flmul@grs,w
  7261  0F67  00D6               	movwf	??___flmul
  7262  0F68  30FF               	movlw	255
  7263  0F69  055D               	andwf	___flmul@grs+1,w
  7264  0F6A  00D7               	movwf	??___flmul+1
  7265  0F6B  30FF               	movlw	255
  7266  0F6C  055E               	andwf	___flmul@grs+2,w
  7267  0F6D  00D8               	movwf	??___flmul+2
  7268  0F6E  307F               	movlw	127
  7269  0F6F  055F               	andwf	___flmul@grs+3,w
  7270  0F70  00D9               	movwf	??___flmul+3
  7271  0F71  0859               	movf	??___flmul+3,w
  7272  0F72  0458               	iorwf	??___flmul+2,w
  7273  0F73  0457               	iorwf	??___flmul+1,w
  7274  0F74  0456               	iorwf	??___flmul,w
  7275  0F75  1903               	skipnz
  7276  0F76  1862               	btfsc	___flmul@prod,0
  7277  0F77  2F79               	goto	l2334
  7278  0F78  2F7B               	goto	l2338
  7279  0F79                     l2334:	
  7280  0F79  01E0               	clrf	___flmul@aexp
  7281  0F7A  0AE0               	incf	___flmul@aexp,f
  7282  0F7B                     l2338:	
  7283  0F7B  0860               	movf	___flmul@aexp,w
  7284  0F7C  1903               	btfsc	3,2
  7285  0F7D  2FAD               	goto	l2348
  7286  0F7E  3001               	movlw	1
  7287  0F7F  07E2               	addwf	___flmul@prod,f
  7288  0F80  3000               	movlw	0
  7289  0F81  1803               	skipnc
  7290  0F82  3001               	movlw	1
  7291  0F83  07E3               	addwf	___flmul@prod+1,f
  7292  0F84  3000               	movlw	0
  7293  0F85  1803               	skipnc
  7294  0F86  3001               	movlw	1
  7295  0F87  07E4               	addwf	___flmul@prod+2,f
  7296  0F88  3000               	movlw	0
  7297  0F89  1803               	skipnc
  7298  0F8A  3001               	movlw	1
  7299  0F8B  07E5               	addwf	___flmul@prod+3,f
  7300  0F8C  1C65               	btfss	___flmul@prod+3,0
  7301  0F8D  2FAD               	goto	l2348
  7302  0F8E  0862               	movf	___flmul@prod,w
  7303  0F8F  00D6               	movwf	??___flmul
  7304  0F90  0863               	movf	___flmul@prod+1,w
  7305  0F91  00D7               	movwf	??___flmul+1
  7306  0F92  0864               	movf	___flmul@prod+2,w
  7307  0F93  00D8               	movwf	??___flmul+2
  7308  0F94  0865               	movf	___flmul@prod+3,w
  7309  0F95  00D9               	movwf	??___flmul+3
  7310  0F96  3001               	movlw	1
  7311  0F97  00DA               	movwf	??___flmul+4
  7312  0F98                     u3065:	
  7313  0F98  0D59               	rlf	??___flmul+3,w
  7314  0F99  0CD9               	rrf	??___flmul+3,f
  7315  0F9A  0CD8               	rrf	??___flmul+2,f
  7316  0F9B  0CD7               	rrf	??___flmul+1,f
  7317  0F9C  0CD6               	rrf	??___flmul,f
  7318  0F9D  0BDA               	decfsz	??___flmul+4,f
  7319  0F9E  2F98               	goto	u3065
  7320  0F9F  0859               	movf	??___flmul+3,w
  7321  0FA0  00E5               	movwf	___flmul@prod+3
  7322  0FA1  0858               	movf	??___flmul+2,w
  7323  0FA2  00E4               	movwf	___flmul@prod+2
  7324  0FA3  0857               	movf	??___flmul+1,w
  7325  0FA4  00E3               	movwf	___flmul@prod+1
  7326  0FA5  0856               	movf	??___flmul,w
  7327  0FA6  00E2               	movwf	___flmul@prod
  7328  0FA7  3001               	movlw	1
  7329  0FA8  07E6               	addwf	___flmul@temp,f
  7330  0FA9  1803               	skipnc
  7331  0FAA  0AE7               	incf	___flmul@temp+1,f
  7332  0FAB  3000               	movlw	0
  7333  0FAC  07E7               	addwf	___flmul@temp+1,f
  7334  0FAD                     l2348:	
  7335  0FAD  0867               	movf	___flmul@temp+1,w
  7336  0FAE  3A80               	xorlw	128
  7337  0FAF  00FF               	movwf	127
  7338  0FB0  3080               	movlw	128
  7339  0FB1  027F               	subwf	127,w
  7340  0FB2  1D03               	skipz
  7341  0FB3  2FB6               	goto	u3075
  7342  0FB4  30FF               	movlw	255
  7343  0FB5  0266               	subwf	___flmul@temp,w
  7344  0FB6                     u3075:	
  7345  0FB6  1C03               	skipc
  7346  0FB7  2FC3               	goto	l2352
  7347  0FB8  307F               	movlw	127
  7348  0FB9  1283               	bcf	3,5	;RP0=0, select bank0
  7349  0FBA  1303               	bcf	3,6	;RP1=0, select bank0
  7350  0FBB  00E5               	movwf	___flmul@prod+3
  7351  0FBC  3080               	movlw	128
  7352  0FBD  00E4               	movwf	___flmul@prod+2
  7353  0FBE  3000               	movlw	0
  7354  0FBF  00E3               	movwf	___flmul@prod+1
  7355  0FC0  3000               	movlw	0
  7356  0FC1  00E2               	movwf	___flmul@prod
  7357  0FC2  2FF3               	goto	l626
  7358  0FC3                     l2352:	
  7359  0FC3  1283               	bcf	3,5	;RP0=0, select bank0
  7360  0FC4  1303               	bcf	3,6	;RP1=0, select bank0
  7361  0FC5  0867               	movf	___flmul@temp+1,w
  7362  0FC6  3A80               	xorlw	128
  7363  0FC7  00FF               	movwf	127
  7364  0FC8  3080               	movlw	128
  7365  0FC9  027F               	subwf	127,w
  7366  0FCA  1D03               	skipz
  7367  0FCB  2FCE               	goto	u3085
  7368  0FCC  3001               	movlw	1
  7369  0FCD  0266               	subwf	___flmul@temp,w
  7370  0FCE                     u3085:	
  7371  0FCE  1803               	skipnc
  7372  0FCF  2FDC               	goto	l2358
  7373  0FD0  3000               	movlw	0
  7374  0FD1  1283               	bcf	3,5	;RP0=0, select bank0
  7375  0FD2  1303               	bcf	3,6	;RP1=0, select bank0
  7376  0FD3  00E5               	movwf	___flmul@prod+3
  7377  0FD4  3000               	movlw	0
  7378  0FD5  00E4               	movwf	___flmul@prod+2
  7379  0FD6  3000               	movlw	0
  7380  0FD7  00E3               	movwf	___flmul@prod+1
  7381  0FD8  3000               	movlw	0
  7382  0FD9  00E2               	movwf	___flmul@prod
  7383  0FDA  01DB               	clrf	___flmul@sign
  7384  0FDB  2FF3               	goto	l626
  7385  0FDC                     l2358:	
  7386  0FDC  1283               	bcf	3,5	;RP0=0, select bank0
  7387  0FDD  1303               	bcf	3,6	;RP1=0, select bank0
  7388  0FDE  0866               	movf	___flmul@temp,w
  7389  0FDF  00D6               	movwf	??___flmul
  7390  0FE0  0856               	movf	??___flmul,w
  7391  0FE1  00E1               	movwf	___flmul@bexp
  7392  0FE2  30FF               	movlw	255
  7393  0FE3  05E2               	andwf	___flmul@prod,f
  7394  0FE4  30FF               	movlw	255
  7395  0FE5  05E3               	andwf	___flmul@prod+1,f
  7396  0FE6  307F               	movlw	127
  7397  0FE7  05E4               	andwf	___flmul@prod+2,f
  7398  0FE8  3000               	movlw	0
  7399  0FE9  05E5               	andwf	___flmul@prod+3,f
  7400  0FEA  1861               	btfsc	___flmul@bexp,0
  7401  0FEB  17E4               	bsf	___flmul@prod+2,7
  7402  0FEC  0861               	movf	___flmul@bexp,w
  7403  0FED  00D6               	movwf	??___flmul
  7404  0FEE  1003               	clrc
  7405  0FEF  0C56               	rrf	??___flmul,w
  7406  0FF0  00D7               	movwf	??___flmul+1
  7407  0FF1  0857               	movf	??___flmul+1,w
  7408  0FF2  00E5               	movwf	___flmul@prod+3
  7409  0FF3                     l626:	
  7410  0FF3  085B               	movf	___flmul@sign,w
  7411  0FF4  00D6               	movwf	??___flmul
  7412  0FF5  0856               	movf	??___flmul,w
  7413  0FF6  04E5               	iorwf	___flmul@prod+3,f
  7414  0FF7  0865               	movf	___flmul@prod+3,w
  7415  0FF8  00D1               	movwf	?___flmul+3
  7416  0FF9  0864               	movf	___flmul@prod+2,w
  7417  0FFA  00D0               	movwf	?___flmul+2
  7418  0FFB  0863               	movf	___flmul@prod+1,w
  7419  0FFC  00CF               	movwf	?___flmul+1
  7420  0FFD  0862               	movf	___flmul@prod,w
  7421  0FFE  00CE               	movwf	?___flmul
  7422  0FFF  0008               	return
  7423  1000                     __end_of___flmul:	
  7424                           
  7425                           	psect	text22
  7426  1ADD                     __ptext22:	
  7427 ;; *************** function __Umul8_16 *****************
  7428 ;; Defined at:
  7429 ;;		line 4 in file "C:\Program Files (x86)\Microchip\xc8\v2.05\pic\sources\c90\common\Umul8_16.c"
  7430 ;; Parameters:    Size  Location     Type
  7431 ;;  multiplier      1    wreg     unsigned char 
  7432 ;;  multiplicand    1    0[COMMON] unsigned char 
  7433 ;; Auto vars:     Size  Location     Type
  7434 ;;  multiplier      1    8[COMMON] unsigned char 
  7435 ;;  word_mpld       2    6[COMMON] unsigned int 
  7436 ;;  product         2    4[COMMON] unsigned int 
  7437 ;; Return value:  Size  Location     Type
  7438 ;;                  2    0[COMMON] unsigned int 
  7439 ;; Registers used:
  7440 ;;		wreg, status,2, status,0
  7441 ;; Tracked objects:
  7442 ;;		On entry : 0/0
  7443 ;;		On exit  : 0/0
  7444 ;;		Unchanged: 0/0
  7445 ;; Data sizes:     COMMON   BANK0   BANK1   BANK3   BANK2
  7446 ;;      Params:         2       0       0       0       0
  7447 ;;      Locals:         5       0       0       0       0
  7448 ;;      Temps:          2       0       0       0       0
  7449 ;;      Totals:         9       0       0       0       0
  7450 ;;Total ram usage:        9 bytes
  7451 ;; Hardware stack levels used:    1
  7452 ;; This function calls:
  7453 ;;		Nothing
  7454 ;; This function is called by:
  7455 ;;		___flmul
  7456 ;; This function uses a non-reentrant model
  7457 ;;
  7458                           
  7459                           
  7460                           ;psect for function __Umul8_16
  7461  1ADD                     __Umul8_16:	
  7462                           
  7463                           ;incstack = 0
  7464                           ; Regs used in __Umul8_16: [wreg+status,2+status,0]
  7465                           ;__Umul8_16@multiplier stored from wreg
  7466  1ADD  00F8               	movwf	__Umul8_16@multiplier
  7467  1ADE  01F4               	clrf	__Umul8_16@product
  7468  1ADF  01F5               	clrf	__Umul8_16@product+1
  7469  1AE0  0870               	movf	__Umul8_16@multiplicand,w
  7470  1AE1  00F2               	movwf	??__Umul8_16
  7471  1AE2  01F3               	clrf	??__Umul8_16+1
  7472  1AE3  0872               	movf	??__Umul8_16,w
  7473  1AE4  00F6               	movwf	__Umul8_16@word_mpld
  7474  1AE5  0873               	movf	??__Umul8_16+1,w
  7475  1AE6  00F7               	movwf	__Umul8_16@word_mpld+1
  7476  1AE7                     l1998:	
  7477  1AE7  1C78               	btfss	__Umul8_16@multiplier,0
  7478  1AE8  2AEF               	goto	l740
  7479  1AE9  0876               	movf	__Umul8_16@word_mpld,w
  7480  1AEA  07F4               	addwf	__Umul8_16@product,f
  7481  1AEB  1803               	skipnc
  7482  1AEC  0AF5               	incf	__Umul8_16@product+1,f
  7483  1AED  0877               	movf	__Umul8_16@word_mpld+1,w
  7484  1AEE  07F5               	addwf	__Umul8_16@product+1,f
  7485  1AEF                     l740:	
  7486  1AEF  3001               	movlw	1
  7487  1AF0                     u2175:	
  7488  1AF0  1003               	clrc
  7489  1AF1  0DF6               	rlf	__Umul8_16@word_mpld,f
  7490  1AF2  0DF7               	rlf	__Umul8_16@word_mpld+1,f
  7491  1AF3  3EFF               	addlw	-1
  7492  1AF4  1D03               	skipz
  7493  1AF5  2AF0               	goto	u2175
  7494  1AF6  1003               	clrc
  7495  1AF7  0CF8               	rrf	__Umul8_16@multiplier,f
  7496  1AF8  0878               	movf	__Umul8_16@multiplier,w
  7497  1AF9  1D03               	btfss	3,2
  7498  1AFA  2AE7               	goto	l1998
  7499  1AFB  0875               	movf	__Umul8_16@product+1,w
  7500  1AFC  00F1               	movwf	?__Umul8_16+1
  7501  1AFD  0874               	movf	__Umul8_16@product,w
  7502  1AFE  00F0               	movwf	?__Umul8_16
  7503  1AFF  0008               	return
  7504  1B00                     __end_of__Umul8_16:	
  7505                           
  7506                           	psect	text23
  7507  1A99                     __ptext23:	
  7508 ;; *************** function _Lcd_Print_String *****************
  7509 ;; Defined at:
  7510 ;;		line 148 in file "sun_main.c"
  7511 ;; Parameters:    Size  Location     Type
  7512 ;;  a               1    wreg     PTR unsigned char 
  7513 ;;		 -> main@e(3), main@d(3), main@c(3), main@b(3), 
  7514 ;;		 -> main@a(3), Lcd_Print_Ang@str(80), 
  7515 ;; Auto vars:     Size  Location     Type
  7516 ;;  a               1    2[BANK0 ] PTR unsigned char 
  7517 ;;		 -> main@e(3), main@d(3), main@c(3), main@b(3), 
  7518 ;;		 -> main@a(3), Lcd_Print_Ang@str(80), 
  7519 ;;  i               2    0[BANK0 ] int 
  7520 ;; Return value:  Size  Location     Type
  7521 ;;                  1    wreg      void 
  7522 ;; Registers used:
  7523 ;;		wreg, fsr0l, fsr0h, status,2, status,0, pclath, cstack
  7524 ;; Tracked objects:
  7525 ;;		On entry : 0/0
  7526 ;;		On exit  : 0/0
  7527 ;;		Unchanged: 0/0
  7528 ;; Data sizes:     COMMON   BANK0   BANK1   BANK3   BANK2
  7529 ;;      Params:         0       0       0       0       0
  7530 ;;      Locals:         0       3       0       0       0
  7531 ;;      Temps:          1       0       0       0       0
  7532 ;;      Totals:         1       3       0       0       0
  7533 ;;Total ram usage:        4 bytes
  7534 ;; Hardware stack levels used:    1
  7535 ;; Hardware stack levels required when called:    2
  7536 ;; This function calls:
  7537 ;;		_Lcd_Print_Char
  7538 ;; This function is called by:
  7539 ;;		_Lcd_Print_Ang
  7540 ;;		_main
  7541 ;; This function uses a non-reentrant model
  7542 ;;
  7543                           
  7544                           
  7545                           ;psect for function _Lcd_Print_String
  7546  1A99                     _Lcd_Print_String:	
  7547                           
  7548                           ;incstack = 0
  7549                           ; Regs used in _Lcd_Print_String: [wreg-fsr0h+status,2+status,0+pclath+cstack]
  7550                           ;Lcd_Print_String@a stored from wreg
  7551  1A99  1283               	bcf	3,5	;RP0=0, select bank0
  7552  1A9A  1303               	bcf	3,6	;RP1=0, select bank0
  7553  1A9B  00A2               	movwf	Lcd_Print_String@a
  7554                           
  7555                           ;sun_main.c: 148: void Lcd_Print_String(char *a);sun_main.c: 149: {;sun_main.c: 150:    
      +                           int i;;sun_main.c: 151:     for(i=0;a[i]!='\0';i++)
  7556  1A9C  01A0               	clrf	Lcd_Print_String@i
  7557  1A9D  01A1               	clrf	Lcd_Print_String@i+1
  7558  1A9E                     l2770:	
  7559  1A9E  0820               	movf	Lcd_Print_String@i,w
  7560  1A9F  0722               	addwf	Lcd_Print_String@a,w
  7561  1AA0  00FD               	movwf	??_Lcd_Print_String
  7562  1AA1  087D               	movf	??_Lcd_Print_String,w
  7563  1AA2  0084               	movwf	4
  7564  1AA3  1783               	bsf	3,7	;select IRP bank2
  7565  1AA4  0800               	movf	0,w
  7566  1AA5  1903               	btfsc	3,2
  7567  1AA6  0008               	return
  7568                           
  7569                           ;sun_main.c: 152:        Lcd_Print_Char(a[i]);
  7570  1AA7  0820               	movf	Lcd_Print_String@i,w
  7571  1AA8  0722               	addwf	Lcd_Print_String@a,w
  7572  1AA9  00FD               	movwf	??_Lcd_Print_String
  7573  1AAA  087D               	movf	??_Lcd_Print_String,w
  7574  1AAB  0084               	movwf	4
  7575  1AAC  0800               	movf	0,w
  7576  1AAD  160A  158A  2325  160A  158A  	fcall	_Lcd_Print_Char
  7577  1AB2  3001               	movlw	1
  7578  1AB3  1283               	bcf	3,5	;RP0=0, select bank0
  7579  1AB4  1303               	bcf	3,6	;RP1=0, select bank0
  7580  1AB5  07A0               	addwf	Lcd_Print_String@i,f
  7581  1AB6  1803               	skipnc
  7582  1AB7  0AA1               	incf	Lcd_Print_String@i+1,f
  7583  1AB8  3000               	movlw	0
  7584  1AB9  07A1               	addwf	Lcd_Print_String@i+1,f
  7585  1ABA  2A9E               	goto	l2770
  7586  1ABB                     __end_of_Lcd_Print_String:	
  7587                           
  7588                           	psect	text24
  7589  1B25                     __ptext24:	
  7590 ;; *************** function _Lcd_Print_Char *****************
  7591 ;; Defined at:
  7592 ;;		line 132 in file "sun_main.c"
  7593 ;; Parameters:    Size  Location     Type
  7594 ;;  data            1    wreg     unsigned char 
  7595 ;; Auto vars:     Size  Location     Type
  7596 ;;  data            1    4[COMMON] unsigned char 
  7597 ;;  i               4    0        long 
  7598 ;;  i               4    0        long 
  7599 ;;  Upper_Nibble    1    3[COMMON] unsigned char 
  7600 ;;  Lower_Nibble    1    2[COMMON] unsigned char 
  7601 ;; Return value:  Size  Location     Type
  7602 ;;                  1    wreg      void 
  7603 ;; Registers used:
  7604 ;;		wreg, status,2, status,0, pclath, cstack
  7605 ;; Tracked objects:
  7606 ;;		On entry : 0/0
  7607 ;;		On exit  : 0/0
  7608 ;;		Unchanged: 0/0
  7609 ;; Data sizes:     COMMON   BANK0   BANK1   BANK3   BANK2
  7610 ;;      Params:         0       0       0       0       0
  7611 ;;      Locals:        11       0       0       0       0
  7612 ;;      Temps:          1       0       0       0       0
  7613 ;;      Totals:        12       0       0       0       0
  7614 ;;Total ram usage:       12 bytes
  7615 ;; Hardware stack levels used:    1
  7616 ;; Hardware stack levels required when called:    1
  7617 ;; This function calls:
  7618 ;;		_Lcd_SetBit
  7619 ;; This function is called by:
  7620 ;;		_Lcd_Print_String
  7621 ;; This function uses a non-reentrant model
  7622 ;;
  7623                           
  7624                           
  7625                           ;psect for function _Lcd_Print_Char
  7626  1B25                     _Lcd_Print_Char:	
  7627                           
  7628                           ;incstack = 0
  7629                           ; Regs used in _Lcd_Print_Char: [wreg+status,2+status,0+pclath+cstack]
  7630                           ;Lcd_Print_Char@data stored from wreg
  7631  1B25  00F4               	movwf	Lcd_Print_Char@data
  7632                           
  7633                           ;sun_main.c: 132: void Lcd_Print_Char(char data);sun_main.c: 133: {;sun_main.c: 134:    
      +                          char Lower_Nibble,Upper_Nibble;;sun_main.c: 135:    Lower_Nibble = data&0x0F;
  7634  1B26  0874               	movf	Lcd_Print_Char@data,w
  7635  1B27  390F               	andlw	15
  7636  1B28  00F1               	movwf	??_Lcd_Print_Char
  7637  1B29  0871               	movf	??_Lcd_Print_Char,w
  7638  1B2A  00F2               	movwf	Lcd_Print_Char@Lower_Nibble
  7639                           
  7640                           ;sun_main.c: 136:    Upper_Nibble = data&0xF0;
  7641  1B2B  0874               	movf	Lcd_Print_Char@data,w
  7642  1B2C  39F0               	andlw	240
  7643  1B2D  00F1               	movwf	??_Lcd_Print_Char
  7644  1B2E  0871               	movf	??_Lcd_Print_Char,w
  7645  1B2F  00F3               	movwf	Lcd_Print_Char@Upper_Nibble
  7646                           
  7647                           ;sun_main.c: 137:    RD2 = 1;
  7648  1B30  1283               	bcf	3,5	;RP0=0, select bank0
  7649  1B31  1303               	bcf	3,6	;RP1=0, select bank0
  7650  1B32  1508               	bsf	8,2	;volatile
  7651                           
  7652                           ;sun_main.c: 138:    Lcd_SetBit(Upper_Nibble>>4);
  7653  1B33  0873               	movf	Lcd_Print_Char@Upper_Nibble,w
  7654  1B34  00F1               	movwf	??_Lcd_Print_Char
  7655  1B35  3004               	movlw	4
  7656  1B36                     u3505:	
  7657  1B36  1003               	clrc
  7658  1B37  0CF1               	rrf	??_Lcd_Print_Char,f
  7659  1B38  3EFF               	addlw	-1
  7660  1B39  1D03               	skipz
  7661  1B3A  2B36               	goto	u3505
  7662  1B3B  0871               	movf	??_Lcd_Print_Char,w
  7663  1B3C  160A  158A  2265  160A  158A  	fcall	_Lcd_SetBit
  7664                           
  7665                           ;sun_main.c: 139:    RD3 = 1;
  7666  1B41  1283               	bcf	3,5	;RP0=0, select bank0
  7667  1B42  1303               	bcf	3,6	;RP1=0, select bank0
  7668  1B43  1588               	bsf	8,3	;volatile
  7669                           
  7670                           ;sun_main.c: 141:    RD3 = 0;
  7671  1B44  1188               	bcf	8,3	;volatile
  7672                           
  7673                           ;sun_main.c: 142:    Lcd_SetBit(Lower_Nibble);
  7674  1B45  0872               	movf	Lcd_Print_Char@Lower_Nibble,w
  7675  1B46  160A  158A  2265   	fcall	_Lcd_SetBit
  7676                           
  7677                           ;sun_main.c: 143:    RD3 = 1;
  7678  1B49  1283               	bcf	3,5	;RP0=0, select bank0
  7679  1B4A  1303               	bcf	3,6	;RP1=0, select bank0
  7680  1B4B  1588               	bsf	8,3	;volatile
  7681                           
  7682                           ;sun_main.c: 145:    RD3 = 0;
  7683  1B4C  1188               	bcf	8,3	;volatile
  7684  1B4D  0008               	return
  7685  1B4E                     __end_of_Lcd_Print_Char:	
  7686                           
  7687                           	psect	text25
  7688  1A26                     __ptext25:	
  7689 ;; *************** function _Lcd_Clear *****************
  7690 ;; Defined at:
  7691 ;;		line 88 in file "sun_main.c"
  7692 ;; Parameters:    Size  Location     Type
  7693 ;;		None
  7694 ;; Auto vars:     Size  Location     Type
  7695 ;;		None
  7696 ;; Return value:  Size  Location     Type
  7697 ;;                  1    wreg      void 
  7698 ;; Registers used:
  7699 ;;		wreg, status,2, status,0, pclath, cstack
  7700 ;; Tracked objects:
  7701 ;;		On entry : 0/0
  7702 ;;		On exit  : 0/0
  7703 ;;		Unchanged: 0/0
  7704 ;; Data sizes:     COMMON   BANK0   BANK1   BANK3   BANK2
  7705 ;;      Params:         0       0       0       0       0
  7706 ;;      Locals:         0       0       0       0       0
  7707 ;;      Temps:          0       0       0       0       0
  7708 ;;      Totals:         0       0       0       0       0
  7709 ;;Total ram usage:        0 bytes
  7710 ;; Hardware stack levels used:    1
  7711 ;; Hardware stack levels required when called:    2
  7712 ;; This function calls:
  7713 ;;		_Lcd_Cmd
  7714 ;; This function is called by:
  7715 ;;		_main
  7716 ;; This function uses a non-reentrant model
  7717 ;;
  7718                           
  7719                           
  7720                           ;psect for function _Lcd_Clear
  7721  1A26                     _Lcd_Clear:	
  7722                           
  7723                           ;sun_main.c: 90:     Lcd_Cmd(0);
  7724                           
  7725                           ;incstack = 0
  7726                           ; Regs used in _Lcd_Clear: [wreg+status,2+status,0+pclath+cstack]
  7727  1A26  3000               	movlw	0
  7728  1A27  160A  158A  227F  160A  158A  	fcall	_Lcd_Cmd
  7729                           
  7730                           ;sun_main.c: 91:     Lcd_Cmd(1);
  7731  1A2C  3001               	movlw	1
  7732  1A2D  160A  158A  227F   	fcall	_Lcd_Cmd
  7733  1A30  0008               	return
  7734  1A31                     __end_of_Lcd_Clear:	
  7735                           
  7736                           	psect	text26
  7737  1A7F                     __ptext26:	
  7738 ;; *************** function _Lcd_Cmd *****************
  7739 ;; Defined at:
  7740 ;;		line 79 in file "sun_main.c"
  7741 ;; Parameters:    Size  Location     Type
  7742 ;;  a               1    wreg     unsigned char 
  7743 ;; Auto vars:     Size  Location     Type
  7744 ;;  a               1    3[COMMON] unsigned char 
  7745 ;; Return value:  Size  Location     Type
  7746 ;;                  1    wreg      void 
  7747 ;; Registers used:
  7748 ;;		wreg, status,2, status,0, pclath, cstack
  7749 ;; Tracked objects:
  7750 ;;		On entry : 0/0
  7751 ;;		On exit  : 0/0
  7752 ;;		Unchanged: 0/0
  7753 ;; Data sizes:     COMMON   BANK0   BANK1   BANK3   BANK2
  7754 ;;      Params:         0       0       0       0       0
  7755 ;;      Locals:         1       0       0       0       0
  7756 ;;      Temps:          2       0       0       0       0
  7757 ;;      Totals:         3       0       0       0       0
  7758 ;;Total ram usage:        3 bytes
  7759 ;; Hardware stack levels used:    1
  7760 ;; Hardware stack levels required when called:    1
  7761 ;; This function calls:
  7762 ;;		_Lcd_SetBit
  7763 ;; This function is called by:
  7764 ;;		_Lcd_Clear
  7765 ;;		_Lcd_Set_Cursor
  7766 ;;		_Lcd_Start
  7767 ;; This function uses a non-reentrant model
  7768 ;;
  7769                           
  7770                           
  7771                           ;psect for function _Lcd_Cmd
  7772  1A7F                     _Lcd_Cmd:	
  7773                           
  7774                           ;incstack = 0
  7775                           ; Regs used in _Lcd_Cmd: [wreg+status,2+status,0+pclath+cstack]
  7776                           ;Lcd_Cmd@a stored from wreg
  7777  1A7F  00F3               	movwf	Lcd_Cmd@a
  7778                           
  7779                           ;sun_main.c: 79: void Lcd_Cmd(char a);sun_main.c: 80: {;sun_main.c: 81:     RD2 = 0;
  7780  1A80  1283               	bcf	3,5	;RP0=0, select bank0
  7781  1A81  1303               	bcf	3,6	;RP1=0, select bank0
  7782  1A82  1108               	bcf	8,2	;volatile
  7783                           
  7784                           ;sun_main.c: 82:     Lcd_SetBit(a);
  7785  1A83  0873               	movf	Lcd_Cmd@a,w
  7786  1A84  160A  158A  2265  160A  158A  	fcall	_Lcd_SetBit
  7787                           
  7788                           ;sun_main.c: 83:     RD3 = 1;
  7789  1A89  1283               	bcf	3,5	;RP0=0, select bank0
  7790  1A8A  1303               	bcf	3,6	;RP1=0, select bank0
  7791  1A8B  1588               	bsf	8,3	;volatile
  7792                           
  7793                           ;sun_main.c: 84:         _delay((unsigned long)((4)*(20000000/4000.0)));
  7794  1A8C  301A               	movlw	26
  7795  1A8D  00F2               	movwf	??_Lcd_Cmd+1
  7796  1A8E  30F8               	movlw	248
  7797  1A8F  00F1               	movwf	??_Lcd_Cmd
  7798  1A90                     u4387:	
  7799  1A90  0BF1               	decfsz	??_Lcd_Cmd,f
  7800  1A91  2A90               	goto	u4387
  7801  1A92  0BF2               	decfsz	??_Lcd_Cmd+1,f
  7802  1A93  2A90               	goto	u4387
  7803  1A94  0000               	nop
  7804                           
  7805                           ;sun_main.c: 85:         RD3 = 0;
  7806  1A95  1283               	bcf	3,5	;RP0=0, select bank0
  7807  1A96  1303               	bcf	3,6	;RP1=0, select bank0
  7808  1A97  1188               	bcf	8,3	;volatile
  7809  1A98  0008               	return
  7810  1A99                     __end_of_Lcd_Cmd:	
  7811                           
  7812                           	psect	text27
  7813  1A65                     __ptext27:	
  7814 ;; *************** function _Lcd_SetBit *****************
  7815 ;; Defined at:
  7816 ;;		line 56 in file "sun_main.c"
  7817 ;; Parameters:    Size  Location     Type
  7818 ;;  data_bit        1    wreg     unsigned char 
  7819 ;; Auto vars:     Size  Location     Type
  7820 ;;  data_bit        1    0[COMMON] unsigned char 
  7821 ;; Return value:  Size  Location     Type
  7822 ;;                  1    wreg      void 
  7823 ;; Registers used:
  7824 ;;		wreg
  7825 ;; Tracked objects:
  7826 ;;		On entry : 0/0
  7827 ;;		On exit  : 0/0
  7828 ;;		Unchanged: 0/0
  7829 ;; Data sizes:     COMMON   BANK0   BANK1   BANK3   BANK2
  7830 ;;      Params:         0       0       0       0       0
  7831 ;;      Locals:         1       0       0       0       0
  7832 ;;      Temps:          0       0       0       0       0
  7833 ;;      Totals:         1       0       0       0       0
  7834 ;;Total ram usage:        1 bytes
  7835 ;; Hardware stack levels used:    1
  7836 ;; This function calls:
  7837 ;;		Nothing
  7838 ;; This function is called by:
  7839 ;;		_Lcd_Cmd
  7840 ;;		_Lcd_Start
  7841 ;;		_Lcd_Print_Char
  7842 ;; This function uses a non-reentrant model
  7843 ;;
  7844                           
  7845                           
  7846                           ;psect for function _Lcd_SetBit
  7847  1A65                     _Lcd_SetBit:	
  7848                           
  7849                           ;incstack = 0
  7850                           ; Regs used in _Lcd_SetBit: [wreg]
  7851                           ;Lcd_SetBit@data_bit stored from wreg
  7852  1A65  00F0               	movwf	Lcd_SetBit@data_bit
  7853                           
  7854                           ;sun_main.c: 56: void Lcd_SetBit(char data_bit);sun_main.c: 57: {;sun_main.c: 58:     if
      +                          (data_bit& 1)
  7855  1A66  1C70               	btfss	Lcd_SetBit@data_bit,0
  7856  1A67  2A6C               	goto	l52
  7857                           
  7858                           ;sun_main.c: 59:         RD4 = 1;
  7859  1A68  1283               	bcf	3,5	;RP0=0, select bank0
  7860  1A69  1303               	bcf	3,6	;RP1=0, select bank0
  7861  1A6A  1608               	bsf	8,4	;volatile
  7862  1A6B  2A6F               	goto	l53
  7863  1A6C                     l52:	
  7864                           ;sun_main.c: 60:     else
  7865                           
  7866                           
  7867                           ;sun_main.c: 61:         RD4 = 0;
  7868  1A6C  1283               	bcf	3,5	;RP0=0, select bank0
  7869  1A6D  1303               	bcf	3,6	;RP1=0, select bank0
  7870  1A6E  1208               	bcf	8,4	;volatile
  7871  1A6F                     l53:	
  7872                           
  7873                           ;sun_main.c: 63:     if(data_bit& 2)
  7874  1A6F  1CF0               	btfss	Lcd_SetBit@data_bit,1
  7875  1A70  2A73               	goto	l54
  7876                           
  7877                           ;sun_main.c: 64:         RD5 = 1;
  7878  1A71  1688               	bsf	8,5	;volatile
  7879  1A72  2A74               	goto	l55
  7880  1A73                     l54:	
  7881                           ;sun_main.c: 65:     else
  7882                           
  7883                           
  7884                           ;sun_main.c: 66:         RD5 = 0;
  7885  1A73  1288               	bcf	8,5	;volatile
  7886  1A74                     l55:	
  7887                           
  7888                           ;sun_main.c: 68:     if(data_bit& 4)
  7889  1A74  1D70               	btfss	Lcd_SetBit@data_bit,2
  7890  1A75  2A78               	goto	l56
  7891                           
  7892                           ;sun_main.c: 69:         RD6 = 1;
  7893  1A76  1708               	bsf	8,6	;volatile
  7894  1A77  2A79               	goto	l57
  7895  1A78                     l56:	
  7896                           ;sun_main.c: 70:     else
  7897                           
  7898                           
  7899                           ;sun_main.c: 71:         RD6 = 0;
  7900  1A78  1308               	bcf	8,6	;volatile
  7901  1A79                     l57:	
  7902                           
  7903                           ;sun_main.c: 73:     if(data_bit& 8)
  7904  1A79  1DF0               	btfss	Lcd_SetBit@data_bit,3
  7905  1A7A  2A7D               	goto	l58
  7906                           
  7907                           ;sun_main.c: 74:         RD7 = 1;
  7908  1A7B  1788               	bsf	8,7	;volatile
  7909  1A7C  0008               	return
  7910  1A7D                     l58:	
  7911                           ;sun_main.c: 75:     else
  7912                           
  7913                           
  7914                           ;sun_main.c: 76:         RD7 = 0;
  7915  1A7D  1388               	bcf	8,7	;volatile
  7916  1A7E  0008               	return
  7917  1A7F                     __end_of_Lcd_SetBit:	
  7918                           
  7919                           	psect	text28
  7920  1B00                     __ptext28:	
  7921 ;; *************** function _ADC_Read *****************
  7922 ;; Defined at:
  7923 ;;		line 47 in file "sun_main.c"
  7924 ;; Parameters:    Size  Location     Type
  7925 ;;  channel         1    wreg     unsigned char 
  7926 ;; Auto vars:     Size  Location     Type
  7927 ;;  channel         1    4[COMMON] unsigned char 
  7928 ;; Return value:  Size  Location     Type
  7929 ;;                  2    0[COMMON] unsigned int 
  7930 ;; Registers used:
  7931 ;;		wreg, status,2, status,0
  7932 ;; Tracked objects:
  7933 ;;		On entry : 0/0
  7934 ;;		On exit  : 0/0
  7935 ;;		Unchanged: 0/0
  7936 ;; Data sizes:     COMMON   BANK0   BANK1   BANK3   BANK2
  7937 ;;      Params:         2       0       0       0       0
  7938 ;;      Locals:         1       0       0       0       0
  7939 ;;      Temps:          2       0       0       0       0
  7940 ;;      Totals:         5       0       0       0       0
  7941 ;;Total ram usage:        5 bytes
  7942 ;; Hardware stack levels used:    1
  7943 ;; This function calls:
  7944 ;;		Nothing
  7945 ;; This function is called by:
  7946 ;;		_main
  7947 ;; This function uses a non-reentrant model
  7948 ;;
  7949                           
  7950                           
  7951                           ;psect for function _ADC_Read
  7952  1B00                     _ADC_Read:	
  7953                           
  7954                           ;incstack = 0
  7955                           ; Regs used in _ADC_Read: [wreg+status,2+status,0]
  7956                           ;ADC_Read@channel stored from wreg
  7957  1B00  00F4               	movwf	ADC_Read@channel
  7958                           
  7959                           ;sun_main.c: 47: unsigned int ADC_Read(unsigned char channel);sun_main.c: 48: {;sun_main
      +                          .c: 49:   ADCON0 |= channel<<3;
  7960  1B01  0874               	movf	ADC_Read@channel,w	;volatile
  7961  1B02  00F2               	movwf	??_ADC_Read
  7962  1B03  3002               	movlw	2
  7963  1B04                     u4255:	
  7964  1B04  1003               	clrc
  7965  1B05  0DF2               	rlf	??_ADC_Read,f
  7966  1B06  3EFF               	addlw	-1
  7967  1B07  1D03               	skipz
  7968  1B08  2B04               	goto	u4255
  7969  1B09  1003               	clrc
  7970  1B0A  0D72               	rlf	??_ADC_Read,w
  7971  1B0B  00F3               	movwf	??_ADC_Read+1
  7972  1B0C  0873               	movf	??_ADC_Read+1,w
  7973  1B0D  1283               	bcf	3,5	;RP0=0, select bank0
  7974  1B0E  1303               	bcf	3,6	;RP1=0, select bank0
  7975  1B0F  049F               	iorwf	31,f	;volatile
  7976                           
  7977                           ;sun_main.c: 50:   _delay((unsigned long)((2)*(20000000/4000.0)));
  7978  1B10  300D               	movlw	13
  7979  1B11  00F3               	movwf	??_ADC_Read+1
  7980  1B12  30FB               	movlw	251
  7981  1B13  00F2               	movwf	??_ADC_Read
  7982  1B14                     u4397:	
  7983  1B14  0BF2               	decfsz	??_ADC_Read,f
  7984  1B15  2B14               	goto	u4397
  7985  1B16  0BF3               	decfsz	??_ADC_Read+1,f
  7986  1B17  2B14               	goto	u4397
  7987  1B18  2B19               	nop2
  7988                           
  7989                           ;sun_main.c: 51:   GO_nDONE = 1;
  7990  1B19  1283               	bcf	3,5	;RP0=0, select bank0
  7991  1B1A  1303               	bcf	3,6	;RP1=0, select bank0
  7992  1B1B  151F               	bsf	31,2	;volatile
  7993  1B1C                     l46:	
  7994                           ;sun_main.c: 52:   while(GO_nDONE);
  7995                           
  7996  1B1C  191F               	btfsc	31,2	;volatile
  7997  1B1D  2B1C               	goto	l46
  7998                           
  7999                           ;sun_main.c: 53:   return ((ADRESH<<8)|ADRESL);
  8000  1B1E  081E               	movf	30,w	;volatile
  8001  1B1F  00F1               	movwf	?_ADC_Read+1
  8002  1B20  1683               	bsf	3,5	;RP0=1, select bank1
  8003  1B21  1303               	bcf	3,6	;RP1=0, select bank1
  8004  1B22  081E               	movf	30,w	;volatile
  8005  1B23  00F0               	movwf	?_ADC_Read
  8006  1B24  0008               	return
  8007  1B25                     __end_of_ADC_Read:	
  8008                           
  8009                           	psect	text29
  8010  1A3C                     __ptext29:	
  8011 ;; *************** function _ADC_Initialize *****************
  8012 ;; Defined at:
  8013 ;;		line 40 in file "sun_main.c"
  8014 ;; Parameters:    Size  Location     Type
  8015 ;;		None
  8016 ;; Auto vars:     Size  Location     Type
  8017 ;;		None
  8018 ;; Return value:  Size  Location     Type
  8019 ;;                  1    wreg      void 
  8020 ;; Registers used:
  8021 ;;		wreg
  8022 ;; Tracked objects:
  8023 ;;		On entry : 0/0
  8024 ;;		On exit  : 0/0
  8025 ;;		Unchanged: 0/0
  8026 ;; Data sizes:     COMMON   BANK0   BANK1   BANK3   BANK2
  8027 ;;      Params:         0       0       0       0       0
  8028 ;;      Locals:         0       0       0       0       0
  8029 ;;      Temps:          0       0       0       0       0
  8030 ;;      Totals:         0       0       0       0       0
  8031 ;;Total ram usage:        0 bytes
  8032 ;; Hardware stack levels used:    1
  8033 ;; This function calls:
  8034 ;;		Nothing
  8035 ;; This function is called by:
  8036 ;;		_main
  8037 ;; This function uses a non-reentrant model
  8038 ;;
  8039                           
  8040                           
  8041                           ;psect for function _ADC_Initialize
  8042  1A3C                     _ADC_Initialize:	
  8043                           
  8044                           ;sun_main.c: 42:   ADCON0 = 0b10000000;
  8045                           
  8046                           ;incstack = 0
  8047                           ; Regs used in _ADC_Initialize: [wreg]
  8048  1A3C  3080               	movlw	128
  8049  1A3D  1283               	bcf	3,5	;RP0=0, select bank0
  8050  1A3E  1303               	bcf	3,6	;RP1=0, select bank0
  8051  1A3F  009F               	movwf	31	;volatile
  8052                           
  8053                           ;sun_main.c: 43:   ADCON1 = 0b10000000;
  8054  1A40  3080               	movlw	128
  8055  1A41  1683               	bsf	3,5	;RP0=1, select bank1
  8056  1A42  1303               	bcf	3,6	;RP1=0, select bank1
  8057  1A43  009F               	movwf	31	;volatile
  8058                           
  8059                           ;sun_main.c: 44:  ADON=1;
  8060  1A44  1283               	bcf	3,5	;RP0=0, select bank0
  8061  1A45  1303               	bcf	3,6	;RP1=0, select bank0
  8062  1A46  141F               	bsf	31,0	;volatile
  8063  1A47  0008               	return
  8064  1A48                     __end_of_ADC_Initialize:	
  8065  007E                     btemp	set	126	;btemp
  8066  007E                     wtemp0	set	126
  8067                           
  8068                           	psect	maintext_split_1
  8069  0045                     L5:	
  8070  0045  1683               	bsf	3,5	;RP0=1, select bank1
  8071  0046  1303               	bcf	3,6	;RP1=0, select bank1
  8072  0047  00DE               	movwf	??_main^(0+128)
  8073  0048  0871               	movf	?_ADC_Read+1,w
  8074  0049  00DF               	movwf	(??_main^(0+128)+1)
  8075  004A  01E0               	clrf	(??_main^(0+128)+2)
  8076  004B  01E1               	clrf	(??_main^(0+128)+3)
  8077  004C  0861               	movf	(??_main+3)^(0+128),w
  8078  004D  00F8               	movwf	___xxtofl@val+3
  8079  004E  0860               	movf	(??_main+2)^(0+128),w
  8080  004F  00F7               	movwf	___xxtofl@val+2
  8081  0050  085F               	movf	(??_main+1)^(0+128),w
  8082  0051  00F6               	movwf	___xxtofl@val+1
  8083  0052  085E               	movf	??_main^(0+128),w
  8084  0053  00F5               	movwf	___xxtofl@val
  8085  0054  3000               	movlw	0
  8086  0055  160A  158A  267B  120A  118A  	fcall	___xxtofl
  8087  005A  0878               	movf	?___xxtofl+3,w
  8088  005B  1283               	bcf	3,5	;RP0=0, select bank2
  8089  005C  1703               	bsf	3,6	;RP1=1, select bank2
  8090  005D  00CA               	movwf	(main@y+3)^(0+256)
  8091  005E  0877               	movf	?___xxtofl+2,w
  8092  005F  00C9               	movwf	(main@y+2)^(0+256)
  8093  0060  0876               	movf	?___xxtofl+1,w
  8094  0061  00C8               	movwf	(main@y+1)^(0+256)
  8095  0062  0875               	movf	?___xxtofl,w
  8096  0063  00C7               	movwf	main@y^(0+256)
  8097                           
  8098                           ;sun_main.c: 186:  z = (ADC_Read(2));
  8099  0064  3002               	movlw	2
  8100  0065  160A  158A  2300  120A  118A  	fcall	_ADC_Read
  8101  006A  0870               	movf	?_ADC_Read,w
  8102  006B  1683               	bsf	3,5	;RP0=1, select bank1
  8103  006C  1303               	bcf	3,6	;RP1=0, select bank1
  8104  006D  00DE               	movwf	??_main^(0+128)
  8105  006E  0871               	movf	?_ADC_Read+1,w
  8106  006F  00DF               	movwf	(??_main^(0+128)+1)
  8107  0070  01E0               	clrf	(??_main^(0+128)+2)
  8108  0071  01E1               	clrf	(??_main^(0+128)+3)
  8109  0072  0861               	movf	(??_main+3)^(0+128),w
  8110  0073  00F8               	movwf	___xxtofl@val+3
  8111  0074  0860               	movf	(??_main+2)^(0+128),w
  8112  0075  00F7               	movwf	___xxtofl@val+2
  8113  0076  085F               	movf	(??_main+1)^(0+128),w
  8114  0077  00F6               	movwf	___xxtofl@val+1
  8115  0078  085E               	movf	??_main^(0+128),w
  8116  0079  00F5               	movwf	___xxtofl@val
  8117  007A  3000               	movlw	0
  8118  007B  160A  158A  267B  120A  118A  	fcall	___xxtofl
  8119  0080  0878               	movf	?___xxtofl+3,w
  8120  0081  1283               	bcf	3,5	;RP0=0, select bank2
  8121  0082  1703               	bsf	3,6	;RP1=1, select bank2
  8122  0083  00CE               	movwf	(main@z+3)^(0+256)
  8123  0084  0877               	movf	?___xxtofl+2,w
  8124  0085  00CD               	movwf	(main@z+2)^(0+256)
  8125  0086  0876               	movf	?___xxtofl+1,w
  8126  0087  00CC               	movwf	(main@z+1)^(0+256)
  8127  0088  0875               	movf	?___xxtofl,w
  8128  0089  00CB               	movwf	main@z^(0+256)
  8129                           
  8130                           ;sun_main.c: 187:  negx = (ADC_Read(3));
  8131  008A  3003               	movlw	3
  8132  008B  160A  158A  2300  120A  118A  	fcall	_ADC_Read
  8133  0090  0870               	movf	?_ADC_Read,w
  8134  0091  1683               	bsf	3,5	;RP0=1, select bank1
  8135  0092  1303               	bcf	3,6	;RP1=0, select bank1
  8136  0093  00DE               	movwf	??_main^(0+128)
  8137  0094  0871               	movf	?_ADC_Read+1,w
  8138  0095  00DF               	movwf	(??_main^(0+128)+1)
  8139  0096  01E0               	clrf	(??_main^(0+128)+2)
  8140  0097  01E1               	clrf	(??_main^(0+128)+3)
  8141  0098  0861               	movf	(??_main+3)^(0+128),w
  8142  0099  00F8               	movwf	___xxtofl@val+3
  8143  009A  0860               	movf	(??_main+2)^(0+128),w
  8144  009B  00F7               	movwf	___xxtofl@val+2
  8145  009C  085F               	movf	(??_main+1)^(0+128),w
  8146  009D  00F6               	movwf	___xxtofl@val+1
  8147  009E  085E               	movf	??_main^(0+128),w
  8148  009F  00F5               	movwf	___xxtofl@val
  8149  00A0  3000               	movlw	0
  8150  00A1  160A  158A  267B  120A  118A  	fcall	___xxtofl
  8151  00A6  0878               	movf	?___xxtofl+3,w
  8152  00A7  1283               	bcf	3,5	;RP0=0, select bank2
  8153  00A8  1703               	bsf	3,6	;RP1=1, select bank2
  8154  00A9  00D2               	movwf	(main@negx+3)^(0+256)
  8155  00AA  0877               	movf	?___xxtofl+2,w
  8156  00AB  00D1               	movwf	(main@negx+2)^(0+256)
  8157  00AC  0876               	movf	?___xxtofl+1,w
  8158  00AD  00D0               	movwf	(main@negx+1)^(0+256)
  8159  00AE  0875               	movf	?___xxtofl,w
  8160  00AF  00CF               	movwf	main@negx^(0+256)
  8161                           
  8162                           ;sun_main.c: 188:  negy = (ADC_Read(4));
  8163  00B0  3004               	movlw	4
  8164  00B1  160A  158A  2300  120A  118A  	fcall	_ADC_Read
  8165  00B6  0870               	movf	?_ADC_Read,w
  8166  00B7  1683               	bsf	3,5	;RP0=1, select bank1
  8167  00B8  1303               	bcf	3,6	;RP1=0, select bank1
  8168  00B9  00DE               	movwf	??_main^(0+128)
  8169  00BA  0871               	movf	?_ADC_Read+1,w
  8170  00BB  00DF               	movwf	(??_main^(0+128)+1)
  8171  00BC  01E0               	clrf	(??_main^(0+128)+2)
  8172  00BD  01E1               	clrf	(??_main^(0+128)+3)
  8173  00BE  0861               	movf	(??_main+3)^(0+128),w
  8174  00BF  00F8               	movwf	___xxtofl@val+3
  8175  00C0  0860               	movf	(??_main+2)^(0+128),w
  8176  00C1  00F7               	movwf	___xxtofl@val+2
  8177  00C2  085F               	movf	(??_main+1)^(0+128),w
  8178  00C3  00F6               	movwf	___xxtofl@val+1
  8179  00C4  085E               	movf	??_main^(0+128),w
  8180  00C5  00F5               	movwf	___xxtofl@val
  8181  00C6  3000               	movlw	0
  8182  00C7  160A  158A  267B  120A  118A  	fcall	___xxtofl
  8183  00CC  0878               	movf	?___xxtofl+3,w
  8184  00CD  1283               	bcf	3,5	;RP0=0, select bank2
  8185  00CE  1703               	bsf	3,6	;RP1=1, select bank2
  8186  00CF  00D6               	movwf	(main@negy+3)^(0+256)
  8187  00D0  0877               	movf	?___xxtofl+2,w
  8188  00D1  00D5               	movwf	(main@negy+2)^(0+256)
  8189  00D2  0876               	movf	?___xxtofl+1,w
  8190  00D3  00D4               	movwf	(main@negy+1)^(0+256)
  8191  00D4  0875               	movf	?___xxtofl,w
  8192  00D5  00D3               	movwf	main@negy^(0+256)
  8193                           
  8194                           ;sun_main.c: 193: r= sqrt((x+negx)*(x+negx) + (y+negy)*(y+negy) + z*z)+1;
  8195  00D6  0856               	movf	(main@negy+3)^(0+256),w
  8196  00D7  1283               	bcf	3,5	;RP0=0, select bank0
  8197  00D8  1303               	bcf	3,6	;RP1=0, select bank0
  8198  00D9  00A3               	movwf	___fladd@b+3
  8199  00DA  1283               	bcf	3,5	;RP0=0, select bank2
  8200  00DB  1703               	bsf	3,6	;RP1=1, select bank2
  8201  00DC  0855               	movf	(main@negy+2)^(0+256),w
  8202  00DD  1283               	bcf	3,5	;RP0=0, select bank0
  8203  00DE  1303               	bcf	3,6	;RP1=0, select bank0
  8204  00DF  00A2               	movwf	___fladd@b+2
  8205  00E0  1283               	bcf	3,5	;RP0=0, select bank2
  8206  00E1  1703               	bsf	3,6	;RP1=1, select bank2
  8207  00E2  0854               	movf	(main@negy+1)^(0+256),w
  8208  00E3  1283               	bcf	3,5	;RP0=0, select bank0
  8209  00E4  1303               	bcf	3,6	;RP1=0, select bank0
  8210  00E5  00A1               	movwf	___fladd@b+1
  8211  00E6  1283               	bcf	3,5	;RP0=0, select bank2
  8212  00E7  1703               	bsf	3,6	;RP1=1, select bank2
  8213  00E8  0853               	movf	main@negy^(0+256),w
  8214  00E9  1283               	bcf	3,5	;RP0=0, select bank0
  8215  00EA  1303               	bcf	3,6	;RP1=0, select bank0
  8216  00EB  00A0               	movwf	___fladd@b
  8217  00EC  1283               	bcf	3,5	;RP0=0, select bank2
  8218  00ED  1703               	bsf	3,6	;RP1=1, select bank2
  8219  00EE  084A               	movf	(main@y+3)^(0+256),w
  8220  00EF  1283               	bcf	3,5	;RP0=0, select bank0
  8221  00F0  1303               	bcf	3,6	;RP1=0, select bank0
  8222  00F1  00A7               	movwf	___fladd@a+3
  8223  00F2  1283               	bcf	3,5	;RP0=0, select bank2
  8224  00F3  1703               	bsf	3,6	;RP1=1, select bank2
  8225  00F4  0849               	movf	(main@y+2)^(0+256),w
  8226  00F5  1283               	bcf	3,5	;RP0=0, select bank0
  8227  00F6  1303               	bcf	3,6	;RP1=0, select bank0
  8228  00F7  00A6               	movwf	___fladd@a+2
  8229  00F8  1283               	bcf	3,5	;RP0=0, select bank2
  8230  00F9  1703               	bsf	3,6	;RP1=1, select bank2
  8231  00FA  0848               	movf	(main@y+1)^(0+256),w
  8232  00FB  1283               	bcf	3,5	;RP0=0, select bank0
  8233  00FC  1303               	bcf	3,6	;RP1=0, select bank0
  8234  00FD  00A5               	movwf	___fladd@a+1
  8235  00FE  1283               	bcf	3,5	;RP0=0, select bank2
  8236  00FF  1703               	bsf	3,6	;RP1=1, select bank2
  8237  0100  0847               	movf	main@y^(0+256),w
  8238  0101  1283               	bcf	3,5	;RP0=0, select bank0
  8239  0102  1303               	bcf	3,6	;RP1=0, select bank0
  8240  0103  00A4               	movwf	___fladd@a
  8241  0104  160A  118A  233E  120A  118A  	fcall	___fladd
  8242  0109  1283               	bcf	3,5	;RP0=0, select bank0
  8243  010A  1303               	bcf	3,6	;RP1=0, select bank0
  8244  010B  0823               	movf	?___fladd+3,w
  8245  010C  00D1               	movwf	___flmul@b+3
  8246  010D  0822               	movf	?___fladd+2,w
  8247  010E  00D0               	movwf	___flmul@b+2
  8248  010F  0821               	movf	?___fladd+1,w
  8249  0110  00CF               	movwf	___flmul@b+1
  8250  0111  0820               	movf	?___fladd,w
  8251  0112  00CE               	movwf	___flmul@b
  8252  0113  1283               	bcf	3,5	;RP0=0, select bank2
  8253  0114  1703               	bsf	3,6	;RP1=1, select bank2
  8254  0115  0856               	movf	(main@negy+3)^(0+256),w
  8255  0116  1283               	bcf	3,5	;RP0=0, select bank0
  8256  0117  1303               	bcf	3,6	;RP1=0, select bank0
  8257  0118  00A3               	movwf	___fladd@b+3
  8258  0119  1283               	bcf	3,5	;RP0=0, select bank2
  8259  011A  1703               	bsf	3,6	;RP1=1, select bank2
  8260  011B  0855               	movf	(main@negy+2)^(0+256),w
  8261  011C  1283               	bcf	3,5	;RP0=0, select bank0
  8262  011D  1303               	bcf	3,6	;RP1=0, select bank0
  8263  011E  00A2               	movwf	___fladd@b+2
  8264  011F  1283               	bcf	3,5	;RP0=0, select bank2
  8265  0120  1703               	bsf	3,6	;RP1=1, select bank2
  8266  0121  0854               	movf	(main@negy+1)^(0+256),w
  8267  0122  1283               	bcf	3,5	;RP0=0, select bank0
  8268  0123  1303               	bcf	3,6	;RP1=0, select bank0
  8269  0124  00A1               	movwf	___fladd@b+1
  8270  0125  1283               	bcf	3,5	;RP0=0, select bank2
  8271  0126  1703               	bsf	3,6	;RP1=1, select bank2
  8272  0127  0853               	movf	main@negy^(0+256),w
  8273  0128  1283               	bcf	3,5	;RP0=0, select bank0
  8274  0129  1303               	bcf	3,6	;RP1=0, select bank0
  8275  012A  00A0               	movwf	___fladd@b
  8276  012B  1283               	bcf	3,5	;RP0=0, select bank2
  8277  012C  1703               	bsf	3,6	;RP1=1, select bank2
  8278  012D  084A               	movf	(main@y+3)^(0+256),w
  8279  012E  1283               	bcf	3,5	;RP0=0, select bank0
  8280  012F  1303               	bcf	3,6	;RP1=0, select bank0
  8281  0130  00A7               	movwf	___fladd@a+3
  8282  0131  1283               	bcf	3,5	;RP0=0, select bank2
  8283  0132  1703               	bsf	3,6	;RP1=1, select bank2
  8284  0133  0849               	movf	(main@y+2)^(0+256),w
  8285  0134  1283               	bcf	3,5	;RP0=0, select bank0
  8286  0135  1303               	bcf	3,6	;RP1=0, select bank0
  8287  0136  00A6               	movwf	___fladd@a+2
  8288  0137  1283               	bcf	3,5	;RP0=0, select bank2
  8289  0138  1703               	bsf	3,6	;RP1=1, select bank2
  8290  0139  0848               	movf	(main@y+1)^(0+256),w
  8291  013A  1283               	bcf	3,5	;RP0=0, select bank0
  8292  013B  1303               	bcf	3,6	;RP1=0, select bank0
  8293  013C  00A5               	movwf	___fladd@a+1
  8294  013D  1283               	bcf	3,5	;RP0=0, select bank2
  8295  013E  1703               	bsf	3,6	;RP1=1, select bank2
  8296  013F  0847               	movf	main@y^(0+256),w
  8297  0140  1283               	bcf	3,5	;RP0=0, select bank0
  8298  0141  1303               	bcf	3,6	;RP1=0, select bank0
  8299  0142  00A4               	movwf	___fladd@a
  8300  0143  160A  118A  233E  120A  118A  	fcall	___fladd
  8301  0148  1283               	bcf	3,5	;RP0=0, select bank0
  8302  0149  1303               	bcf	3,6	;RP1=0, select bank0
  8303  014A  0823               	movf	?___fladd+3,w
  8304  014B  00D5               	movwf	___flmul@a+3
  8305  014C  0822               	movf	?___fladd+2,w
  8306  014D  00D4               	movwf	___flmul@a+2
  8307  014E  0821               	movf	?___fladd+1,w
  8308  014F  00D3               	movwf	___flmul@a+1
  8309  0150  0820               	movf	?___fladd,w
  8310  0151  00D2               	movwf	___flmul@a
  8311  0152  120A  158A  24EB  120A  118A  	fcall	___flmul
  8312  0157  1283               	bcf	3,5	;RP0=0, select bank0
  8313  0158  1303               	bcf	3,6	;RP1=0, select bank0
  8314  0159  0851               	movf	?___flmul+3,w
  8315  015A  1283               	bcf	3,5	;RP0=0, select bank2
  8316  015B  1703               	bsf	3,6	;RP1=1, select bank2
  8317  015C  00A2               	movwf	(_main$874+3)^(0+256)
  8318  015D  1283               	bcf	3,5	;RP0=0, select bank0
  8319  015E  1303               	bcf	3,6	;RP1=0, select bank0
  8320  015F  0850               	movf	?___flmul+2,w
  8321  0160  1283               	bcf	3,5	;RP0=0, select bank2
  8322  0161  1703               	bsf	3,6	;RP1=1, select bank2
  8323  0162  00A1               	movwf	(_main$874+2)^(0+256)
  8324  0163  1283               	bcf	3,5	;RP0=0, select bank0
  8325  0164  1303               	bcf	3,6	;RP1=0, select bank0
  8326  0165  084F               	movf	?___flmul+1,w
  8327  0166  1283               	bcf	3,5	;RP0=0, select bank2
  8328  0167  1703               	bsf	3,6	;RP1=1, select bank2
  8329  0168  00A0               	movwf	(_main$874+1)^(0+256)
  8330  0169  1283               	bcf	3,5	;RP0=0, select bank0
  8331  016A  1303               	bcf	3,6	;RP1=0, select bank0
  8332  016B  084E               	movf	?___flmul,w
  8333  016C  1283               	bcf	3,5	;RP0=0, select bank2
  8334  016D  1703               	bsf	3,6	;RP1=1, select bank2
  8335  016E  009F               	movwf	_main$874^(0+256)
  8336                           
  8337                           ;sun_main.c: 193: r= sqrt((x+negx)*(x+negx) + (y+negy)*(y+negy) + z*z)+1;
  8338  016F  0852               	movf	(main@negx+3)^(0+256),w
  8339  0170  1283               	bcf	3,5	;RP0=0, select bank0
  8340  0171  1303               	bcf	3,6	;RP1=0, select bank0
  8341  0172  00A3               	movwf	___fladd@b+3
  8342  0173  1283               	bcf	3,5	;RP0=0, select bank2
  8343  0174  1703               	bsf	3,6	;RP1=1, select bank2
  8344  0175  0851               	movf	(main@negx+2)^(0+256),w
  8345  0176  1283               	bcf	3,5	;RP0=0, select bank0
  8346  0177  1303               	bcf	3,6	;RP1=0, select bank0
  8347  0178  00A2               	movwf	___fladd@b+2
  8348  0179  1283               	bcf	3,5	;RP0=0, select bank2
  8349  017A  1703               	bsf	3,6	;RP1=1, select bank2
  8350  017B  0850               	movf	(main@negx+1)^(0+256),w
  8351  017C  1283               	bcf	3,5	;RP0=0, select bank0
  8352  017D  1303               	bcf	3,6	;RP1=0, select bank0
  8353  017E  00A1               	movwf	___fladd@b+1
  8354  017F  1283               	bcf	3,5	;RP0=0, select bank2
  8355  0180  1703               	bsf	3,6	;RP1=1, select bank2
  8356  0181  084F               	movf	main@negx^(0+256),w
  8357  0182  1283               	bcf	3,5	;RP0=0, select bank0
  8358  0183  1303               	bcf	3,6	;RP1=0, select bank0
  8359  0184  00A0               	movwf	___fladd@b
  8360  0185  1283               	bcf	3,5	;RP0=0, select bank2
  8361  0186  1703               	bsf	3,6	;RP1=1, select bank2
  8362  0187  0846               	movf	(main@x+3)^(0+256),w
  8363  0188  1283               	bcf	3,5	;RP0=0, select bank0
  8364  0189  1303               	bcf	3,6	;RP1=0, select bank0
  8365  018A  00A7               	movwf	___fladd@a+3
  8366  018B  1283               	bcf	3,5	;RP0=0, select bank2
  8367  018C  1703               	bsf	3,6	;RP1=1, select bank2
  8368  018D  0845               	movf	(main@x+2)^(0+256),w
  8369  018E  1283               	bcf	3,5	;RP0=0, select bank0
  8370  018F  1303               	bcf	3,6	;RP1=0, select bank0
  8371  0190  00A6               	movwf	___fladd@a+2
  8372  0191  1283               	bcf	3,5	;RP0=0, select bank2
  8373  0192  1703               	bsf	3,6	;RP1=1, select bank2
  8374  0193  0844               	movf	(main@x+1)^(0+256),w
  8375  0194  1283               	bcf	3,5	;RP0=0, select bank0
  8376  0195  1303               	bcf	3,6	;RP1=0, select bank0
  8377  0196  00A5               	movwf	___fladd@a+1
  8378  0197  1283               	bcf	3,5	;RP0=0, select bank2
  8379  0198  1703               	bsf	3,6	;RP1=1, select bank2
  8380  0199  0843               	movf	main@x^(0+256),w
  8381  019A  1283               	bcf	3,5	;RP0=0, select bank0
  8382  019B  1303               	bcf	3,6	;RP1=0, select bank0
  8383  019C  00A4               	movwf	___fladd@a
  8384  019D  160A  118A  233E  120A  118A  	fcall	___fladd
  8385  01A2  1283               	bcf	3,5	;RP0=0, select bank0
  8386  01A3  1303               	bcf	3,6	;RP1=0, select bank0
  8387  01A4  0823               	movf	?___fladd+3,w
  8388  01A5  00D1               	movwf	___flmul@b+3
  8389  01A6  0822               	movf	?___fladd+2,w
  8390  01A7  00D0               	movwf	___flmul@b+2
  8391  01A8  0821               	movf	?___fladd+1,w
  8392  01A9  00CF               	movwf	___flmul@b+1
  8393  01AA  0820               	movf	?___fladd,w
  8394  01AB  00CE               	movwf	___flmul@b
  8395  01AC  1283               	bcf	3,5	;RP0=0, select bank2
  8396  01AD  1703               	bsf	3,6	;RP1=1, select bank2
  8397  01AE  0852               	movf	(main@negx+3)^(0+256),w
  8398  01AF  1283               	bcf	3,5	;RP0=0, select bank0
  8399  01B0  1303               	bcf	3,6	;RP1=0, select bank0
  8400  01B1  00A3               	movwf	___fladd@b+3
  8401  01B2  1283               	bcf	3,5	;RP0=0, select bank2
  8402  01B3  1703               	bsf	3,6	;RP1=1, select bank2
  8403  01B4  0851               	movf	(main@negx+2)^(0+256),w
  8404  01B5  1283               	bcf	3,5	;RP0=0, select bank0
  8405  01B6  1303               	bcf	3,6	;RP1=0, select bank0
  8406  01B7  00A2               	movwf	___fladd@b+2
  8407  01B8  1283               	bcf	3,5	;RP0=0, select bank2
  8408  01B9  1703               	bsf	3,6	;RP1=1, select bank2
  8409  01BA  0850               	movf	(main@negx+1)^(0+256),w
  8410  01BB  1283               	bcf	3,5	;RP0=0, select bank0
  8411  01BC  1303               	bcf	3,6	;RP1=0, select bank0
  8412  01BD  00A1               	movwf	___fladd@b+1
  8413  01BE  1283               	bcf	3,5	;RP0=0, select bank2
  8414  01BF  1703               	bsf	3,6	;RP1=1, select bank2
  8415  01C0  084F               	movf	main@negx^(0+256),w
  8416  01C1  1283               	bcf	3,5	;RP0=0, select bank0
  8417  01C2  1303               	bcf	3,6	;RP1=0, select bank0
  8418  01C3  00A0               	movwf	___fladd@b
  8419  01C4  1283               	bcf	3,5	;RP0=0, select bank2
  8420  01C5  1703               	bsf	3,6	;RP1=1, select bank2
  8421  01C6  0846               	movf	(main@x+3)^(0+256),w
  8422  01C7  1283               	bcf	3,5	;RP0=0, select bank0
  8423  01C8  1303               	bcf	3,6	;RP1=0, select bank0
  8424  01C9  00A7               	movwf	___fladd@a+3
  8425  01CA  1283               	bcf	3,5	;RP0=0, select bank2
  8426  01CB  1703               	bsf	3,6	;RP1=1, select bank2
  8427  01CC  0845               	movf	(main@x+2)^(0+256),w
  8428  01CD  1283               	bcf	3,5	;RP0=0, select bank0
  8429  01CE  1303               	bcf	3,6	;RP1=0, select bank0
  8430  01CF  00A6               	movwf	___fladd@a+2
  8431  01D0  1283               	bcf	3,5	;RP0=0, select bank2
  8432  01D1  1703               	bsf	3,6	;RP1=1, select bank2
  8433  01D2  0844               	movf	(main@x+1)^(0+256),w
  8434  01D3  1283               	bcf	3,5	;RP0=0, select bank0
  8435  01D4  1303               	bcf	3,6	;RP1=0, select bank0
  8436  01D5  00A5               	movwf	___fladd@a+1
  8437  01D6  1283               	bcf	3,5	;RP0=0, select bank2
  8438  01D7  1703               	bsf	3,6	;RP1=1, select bank2
  8439  01D8  0843               	movf	main@x^(0+256),w
  8440  01D9  1283               	bcf	3,5	;RP0=0, select bank0
  8441  01DA  1303               	bcf	3,6	;RP1=0, select bank0
  8442  01DB  00A4               	movwf	___fladd@a
  8443  01DC  160A  118A  233E  120A  118A  	fcall	___fladd
  8444  01E1  1283               	bcf	3,5	;RP0=0, select bank0
  8445  01E2  1303               	bcf	3,6	;RP1=0, select bank0
  8446  01E3  0823               	movf	?___fladd+3,w
  8447  01E4  00D5               	movwf	___flmul@a+3
  8448  01E5  0822               	movf	?___fladd+2,w
  8449  01E6  00D4               	movwf	___flmul@a+2
  8450  01E7  0821               	movf	?___fladd+1,w
  8451  01E8  00D3               	movwf	___flmul@a+1
  8452  01E9  0820               	movf	?___fladd,w
  8453  01EA  00D2               	movwf	___flmul@a
  8454  01EB  120A  158A  24EB  120A  118A  	fcall	___flmul
  8455  01F0  1283               	bcf	3,5	;RP0=0, select bank0
  8456  01F1  1303               	bcf	3,6	;RP1=0, select bank0
  8457  01F2  0851               	movf	?___flmul+3,w
  8458  01F3  1283               	bcf	3,5	;RP0=0, select bank2
  8459  01F4  1703               	bsf	3,6	;RP1=1, select bank2
  8460  01F5  00A6               	movwf	(_main$875+3)^(0+256)
  8461  01F6  1283               	bcf	3,5	;RP0=0, select bank0
  8462  01F7  1303               	bcf	3,6	;RP1=0, select bank0
  8463  01F8  0850               	movf	?___flmul+2,w
  8464  01F9  1283               	bcf	3,5	;RP0=0, select bank2
  8465  01FA  1703               	bsf	3,6	;RP1=1, select bank2
  8466  01FB  00A5               	movwf	(_main$875+2)^(0+256)
  8467  01FC  1283               	bcf	3,5	;RP0=0, select bank0
  8468  01FD  1303               	bcf	3,6	;RP1=0, select bank0
  8469  01FE  084F               	movf	?___flmul+1,w
  8470  01FF  1283               	bcf	3,5	;RP0=0, select bank2
  8471  0200  1703               	bsf	3,6	;RP1=1, select bank2
  8472  0201  00A4               	movwf	(_main$875+1)^(0+256)
  8473  0202  1283               	bcf	3,5	;RP0=0, select bank0
  8474  0203  1303               	bcf	3,6	;RP1=0, select bank0
  8475  0204  084E               	movf	?___flmul,w
  8476  0205  1283               	bcf	3,5	;RP0=0, select bank2
  8477  0206  1703               	bsf	3,6	;RP1=1, select bank2
  8478  0207  00A3               	movwf	_main$875^(0+256)
  8479                           
  8480                           ;sun_main.c: 193: r= sqrt((x+negx)*(x+negx) + (y+negy)*(y+negy) + z*z)+1;
  8481  0208  0822               	movf	(_main$874+3)^(0+256),w
  8482  0209  1283               	bcf	3,5	;RP0=0, select bank0
  8483  020A  1303               	bcf	3,6	;RP1=0, select bank0
  8484  020B  00A3               	movwf	___fladd@b+3
  8485  020C  1283               	bcf	3,5	;RP0=0, select bank2
  8486  020D  1703               	bsf	3,6	;RP1=1, select bank2
  8487  020E  0821               	movf	(_main$874+2)^(0+256),w
  8488  020F  1283               	bcf	3,5	;RP0=0, select bank0
  8489  0210  1303               	bcf	3,6	;RP1=0, select bank0
  8490  0211  00A2               	movwf	___fladd@b+2
  8491  0212  1283               	bcf	3,5	;RP0=0, select bank2
  8492  0213  1703               	bsf	3,6	;RP1=1, select bank2
  8493  0214  0820               	movf	(_main$874+1)^(0+256),w
  8494  0215  1283               	bcf	3,5	;RP0=0, select bank0
  8495  0216  1303               	bcf	3,6	;RP1=0, select bank0
  8496  0217  00A1               	movwf	___fladd@b+1
  8497  0218  1283               	bcf	3,5	;RP0=0, select bank2
  8498  0219  1703               	bsf	3,6	;RP1=1, select bank2
  8499  021A  081F               	movf	_main$874^(0+256),w
  8500  021B  1283               	bcf	3,5	;RP0=0, select bank0
  8501  021C  1303               	bcf	3,6	;RP1=0, select bank0
  8502  021D  00A0               	movwf	___fladd@b
  8503  021E  1283               	bcf	3,5	;RP0=0, select bank2
  8504  021F  1703               	bsf	3,6	;RP1=1, select bank2
  8505  0220  0826               	movf	(_main$875+3)^(0+256),w
  8506  0221  1283               	bcf	3,5	;RP0=0, select bank0
  8507  0222  1303               	bcf	3,6	;RP1=0, select bank0
  8508  0223  00A7               	movwf	___fladd@a+3
  8509  0224  1283               	bcf	3,5	;RP0=0, select bank2
  8510  0225  1703               	bsf	3,6	;RP1=1, select bank2
  8511  0226  0825               	movf	(_main$875+2)^(0+256),w
  8512  0227  1283               	bcf	3,5	;RP0=0, select bank0
  8513  0228  1303               	bcf	3,6	;RP1=0, select bank0
  8514  0229  00A6               	movwf	___fladd@a+2
  8515  022A  1283               	bcf	3,5	;RP0=0, select bank2
  8516  022B  1703               	bsf	3,6	;RP1=1, select bank2
  8517  022C  0824               	movf	(_main$875+1)^(0+256),w
  8518  022D  1283               	bcf	3,5	;RP0=0, select bank0
  8519  022E  1303               	bcf	3,6	;RP1=0, select bank0
  8520  022F  00A5               	movwf	___fladd@a+1
  8521  0230  1283               	bcf	3,5	;RP0=0, select bank2
  8522  0231  1703               	bsf	3,6	;RP1=1, select bank2
  8523  0232  0823               	movf	_main$875^(0+256),w
  8524  0233  1283               	bcf	3,5	;RP0=0, select bank0
  8525  0234  1303               	bcf	3,6	;RP1=0, select bank0
  8526  0235  00A4               	movwf	___fladd@a
  8527  0236  160A  118A  233E  120A  118A  	fcall	___fladd
  8528  023B  1283               	bcf	3,5	;RP0=0, select bank0
  8529  023C  1303               	bcf	3,6	;RP1=0, select bank0
  8530  023D  0823               	movf	?___fladd+3,w
  8531  023E  1283               	bcf	3,5	;RP0=0, select bank2
  8532  023F  1703               	bsf	3,6	;RP1=1, select bank2
  8533  0240  00AA               	movwf	(_main$876+3)^(0+256)
  8534  0241  1283               	bcf	3,5	;RP0=0, select bank0
  8535  0242  1303               	bcf	3,6	;RP1=0, select bank0
  8536  0243  0822               	movf	?___fladd+2,w
  8537  0244  1283               	bcf	3,5	;RP0=0, select bank2
  8538  0245  1703               	bsf	3,6	;RP1=1, select bank2
  8539  0246  00A9               	movwf	(_main$876+2)^(0+256)
  8540  0247  1283               	bcf	3,5	;RP0=0, select bank0
  8541  0248  1303               	bcf	3,6	;RP1=0, select bank0
  8542  0249  0821               	movf	?___fladd+1,w
  8543  024A  1283               	bcf	3,5	;RP0=0, select bank2
  8544  024B  1703               	bsf	3,6	;RP1=1, select bank2
  8545  024C  00A8               	movwf	(_main$876+1)^(0+256)
  8546  024D  1283               	bcf	3,5	;RP0=0, select bank0
  8547  024E  1303               	bcf	3,6	;RP1=0, select bank0
  8548  024F  0820               	movf	?___fladd,w
  8549  0250  1283               	bcf	3,5	;RP0=0, select bank2
  8550  0251  1703               	bsf	3,6	;RP1=1, select bank2
  8551  0252  00A7               	movwf	_main$876^(0+256)
  8552                           
  8553                           ;sun_main.c: 193: r= sqrt((x+negx)*(x+negx) + (y+negy)*(y+negy) + z*z)+1;
  8554  0253  084E               	movf	(main@z+3)^(0+256),w
  8555  0254  1283               	bcf	3,5	;RP0=0, select bank0
  8556  0255  1303               	bcf	3,6	;RP1=0, select bank0
  8557  0256  00D1               	movwf	___flmul@b+3
  8558  0257  1283               	bcf	3,5	;RP0=0, select bank2
  8559  0258  1703               	bsf	3,6	;RP1=1, select bank2
  8560  0259  084D               	movf	(main@z+2)^(0+256),w
  8561  025A  1283               	bcf	3,5	;RP0=0, select bank0
  8562  025B  1303               	bcf	3,6	;RP1=0, select bank0
  8563  025C  00D0               	movwf	___flmul@b+2
  8564  025D  1283               	bcf	3,5	;RP0=0, select bank2
  8565  025E  1703               	bsf	3,6	;RP1=1, select bank2
  8566  025F  084C               	movf	(main@z+1)^(0+256),w
  8567  0260  1283               	bcf	3,5	;RP0=0, select bank0
  8568  0261  1303               	bcf	3,6	;RP1=0, select bank0
  8569  0262  00CF               	movwf	___flmul@b+1
  8570  0263  1283               	bcf	3,5	;RP0=0, select bank2
  8571  0264  1703               	bsf	3,6	;RP1=1, select bank2
  8572  0265  084B               	movf	main@z^(0+256),w
  8573  0266  1283               	bcf	3,5	;RP0=0, select bank0
  8574  0267  1303               	bcf	3,6	;RP1=0, select bank0
  8575  0268  00CE               	movwf	___flmul@b
  8576  0269  1283               	bcf	3,5	;RP0=0, select bank2
  8577  026A  1703               	bsf	3,6	;RP1=1, select bank2
  8578  026B  084E               	movf	(main@z+3)^(0+256),w
  8579  026C  1283               	bcf	3,5	;RP0=0, select bank0
  8580  026D  1303               	bcf	3,6	;RP1=0, select bank0
  8581  026E  00D5               	movwf	___flmul@a+3
  8582  026F  1283               	bcf	3,5	;RP0=0, select bank2
  8583  0270  1703               	bsf	3,6	;RP1=1, select bank2
  8584  0271  084D               	movf	(main@z+2)^(0+256),w
  8585  0272  1283               	bcf	3,5	;RP0=0, select bank0
  8586  0273  1303               	bcf	3,6	;RP1=0, select bank0
  8587  0274  00D4               	movwf	___flmul@a+2
  8588  0275  1283               	bcf	3,5	;RP0=0, select bank2
  8589  0276  1703               	bsf	3,6	;RP1=1, select bank2
  8590  0277  084C               	movf	(main@z+1)^(0+256),w
  8591  0278  1283               	bcf	3,5	;RP0=0, select bank0
  8592  0279  1303               	bcf	3,6	;RP1=0, select bank0
  8593  027A  00D3               	movwf	___flmul@a+1
  8594  027B  1283               	bcf	3,5	;RP0=0, select bank2
  8595  027C  1703               	bsf	3,6	;RP1=1, select bank2
  8596  027D  084B               	movf	main@z^(0+256),w
  8597  027E  1283               	bcf	3,5	;RP0=0, select bank0
  8598  027F  1303               	bcf	3,6	;RP1=0, select bank0
  8599  0280  00D2               	movwf	___flmul@a
  8600  0281  120A  158A  24EB  120A  118A  	fcall	___flmul
  8601  0286  1283               	bcf	3,5	;RP0=0, select bank0
  8602  0287  1303               	bcf	3,6	;RP1=0, select bank0
  8603  0288  0851               	movf	?___flmul+3,w
  8604  0289  00A3               	movwf	___fladd@b+3
  8605  028A  0850               	movf	?___flmul+2,w
  8606  028B  00A2               	movwf	___fladd@b+2
  8607  028C  084F               	movf	?___flmul+1,w
  8608  028D  00A1               	movwf	___fladd@b+1
  8609  028E  084E               	movf	?___flmul,w
  8610  028F  00A0               	movwf	___fladd@b
  8611  0290  1283               	bcf	3,5	;RP0=0, select bank2
  8612  0291  1703               	bsf	3,6	;RP1=1, select bank2
  8613  0292  082A               	movf	(_main$876+3)^(0+256),w
  8614  0293  1283               	bcf	3,5	;RP0=0, select bank0
  8615  0294  1303               	bcf	3,6	;RP1=0, select bank0
  8616  0295  00A7               	movwf	___fladd@a+3
  8617  0296  1283               	bcf	3,5	;RP0=0, select bank2
  8618  0297  1703               	bsf	3,6	;RP1=1, select bank2
  8619  0298  0829               	movf	(_main$876+2)^(0+256),w
  8620  0299  1283               	bcf	3,5	;RP0=0, select bank0
  8621  029A  1303               	bcf	3,6	;RP1=0, select bank0
  8622  029B  00A6               	movwf	___fladd@a+2
  8623  029C  1283               	bcf	3,5	;RP0=0, select bank2
  8624  029D  1703               	bsf	3,6	;RP1=1, select bank2
  8625  029E  0828               	movf	(_main$876+1)^(0+256),w
  8626  029F  1283               	bcf	3,5	;RP0=0, select bank0
  8627  02A0  1303               	bcf	3,6	;RP1=0, select bank0
  8628  02A1  00A5               	movwf	___fladd@a+1
  8629  02A2  1283               	bcf	3,5	;RP0=0, select bank2
  8630  02A3  1703               	bsf	3,6	;RP1=1, select bank2
  8631  02A4  0827               	movf	_main$876^(0+256),w
  8632  02A5  1283               	bcf	3,5	;RP0=0, select bank0
  8633  02A6  1303               	bcf	3,6	;RP1=0, select bank0
  8634  02A7  00A4               	movwf	___fladd@a
  8635  02A8  160A  118A  233E  120A  118A  	fcall	___fladd
  8636  02AD  1283               	bcf	3,5	;RP0=0, select bank0
  8637  02AE  1303               	bcf	3,6	;RP1=0, select bank0
  8638  02AF  0823               	movf	?___fladd+3,w
  8639  02B0  1683               	bsf	3,5	;RP0=1, select bank1
  8640  02B1  1303               	bcf	3,6	;RP1=0, select bank1
  8641  02B2  00A3               	movwf	(sqrt@a+3)^(0+128)
  8642  02B3  1283               	bcf	3,5	;RP0=0, select bank0
  8643  02B4  1303               	bcf	3,6	;RP1=0, select bank0
  8644  02B5  0822               	movf	?___fladd+2,w
  8645  02B6  1683               	bsf	3,5	;RP0=1, select bank1
  8646  02B7  1303               	bcf	3,6	;RP1=0, select bank1
  8647  02B8  00A2               	movwf	(sqrt@a+2)^(0+128)
  8648  02B9  1283               	bcf	3,5	;RP0=0, select bank0
  8649  02BA  1303               	bcf	3,6	;RP1=0, select bank0
  8650  02BB  0821               	movf	?___fladd+1,w
  8651  02BC  1683               	bsf	3,5	;RP0=1, select bank1
  8652  02BD  1303               	bcf	3,6	;RP1=0, select bank1
  8653  02BE  00A1               	movwf	(sqrt@a+1)^(0+128)
  8654  02BF  1283               	bcf	3,5	;RP0=0, select bank0
  8655  02C0  1303               	bcf	3,6	;RP1=0, select bank0
  8656  02C1  0820               	movf	?___fladd,w
  8657  02C2  1683               	bsf	3,5	;RP0=1, select bank1
  8658  02C3  1303               	bcf	3,6	;RP1=0, select bank1
  8659  02C4  00A0               	movwf	sqrt@a^(0+128)
  8660  02C5  120A  158A  203B  120A  118A  	fcall	_sqrt
  8661  02CA  1683               	bsf	3,5	;RP0=1, select bank1
  8662  02CB  1303               	bcf	3,6	;RP1=0, select bank1
  8663  02CC  0823               	movf	(?_sqrt+3)^(0+128),w
  8664  02CD  1283               	bcf	3,5	;RP0=0, select bank2
  8665  02CE  1703               	bsf	3,6	;RP1=1, select bank2
  8666  02CF  00AE               	movwf	(_main$877+3)^(0+256)
  8667  02D0  1683               	bsf	3,5	;RP0=1, select bank1
  8668  02D1  1303               	bcf	3,6	;RP1=0, select bank1
  8669  02D2  0822               	movf	(?_sqrt+2)^(0+128),w
  8670  02D3  1283               	bcf	3,5	;RP0=0, select bank2
  8671  02D4  1703               	bsf	3,6	;RP1=1, select bank2
  8672  02D5  00AD               	movwf	(_main$877+2)^(0+256)
  8673  02D6  1683               	bsf	3,5	;RP0=1, select bank1
  8674  02D7  1303               	bcf	3,6	;RP1=0, select bank1
  8675  02D8  0821               	movf	(?_sqrt+1)^(0+128),w
  8676  02D9  1283               	bcf	3,5	;RP0=0, select bank2
  8677  02DA  1703               	bsf	3,6	;RP1=1, select bank2
  8678  02DB  00AC               	movwf	(_main$877+1)^(0+256)
  8679  02DC  1683               	bsf	3,5	;RP0=1, select bank1
  8680  02DD  1303               	bcf	3,6	;RP1=0, select bank1
  8681  02DE  0820               	movf	?_sqrt^(0+128),w
  8682  02DF  1283               	bcf	3,5	;RP0=0, select bank2
  8683  02E0  1703               	bsf	3,6	;RP1=1, select bank2
  8684  02E1  00AB               	movwf	_main$877^(0+256)
  8685                           
  8686                           ;sun_main.c: 193: r= sqrt((x+negx)*(x+negx) + (y+negy)*(y+negy) + z*z)+1;
  8687  02E2  303F               	movlw	63
  8688  02E3  1283               	bcf	3,5	;RP0=0, select bank0
  8689  02E4  1303               	bcf	3,6	;RP1=0, select bank0
  8690  02E5  00A3               	movwf	___fladd@b+3
  8691  02E6  3080               	movlw	128
  8692  02E7  00A2               	movwf	___fladd@b+2
  8693  02E8  3000               	movlw	0
  8694  02E9  00A1               	movwf	___fladd@b+1
  8695  02EA  3000               	movlw	0
  8696  02EB  00A0               	movwf	___fladd@b
  8697  02EC  1283               	bcf	3,5	;RP0=0, select bank2
  8698  02ED  1703               	bsf	3,6	;RP1=1, select bank2
  8699  02EE  082E               	movf	(_main$877+3)^(0+256),w
  8700  02EF  1283               	bcf	3,5	;RP0=0, select bank0
  8701  02F0  1303               	bcf	3,6	;RP1=0, select bank0
  8702  02F1  00A7               	movwf	___fladd@a+3
  8703  02F2  1283               	bcf	3,5	;RP0=0, select bank2
  8704  02F3  1703               	bsf	3,6	;RP1=1, select bank2
  8705  02F4  082D               	movf	(_main$877+2)^(0+256),w
  8706  02F5  1283               	bcf	3,5	;RP0=0, select bank0
  8707  02F6  1303               	bcf	3,6	;RP1=0, select bank0
  8708  02F7  00A6               	movwf	___fladd@a+2
  8709  02F8  1283               	bcf	3,5	;RP0=0, select bank2
  8710  02F9  1703               	bsf	3,6	;RP1=1, select bank2
  8711  02FA  082C               	movf	(_main$877+1)^(0+256),w
  8712  02FB  1283               	bcf	3,5	;RP0=0, select bank0
  8713  02FC  1303               	bcf	3,6	;RP1=0, select bank0
  8714  02FD  00A5               	movwf	___fladd@a+1
  8715  02FE  1283               	bcf	3,5	;RP0=0, select bank2
  8716  02FF  1703               	bsf	3,6	;RP1=1, select bank2
  8717  0300  082B               	movf	_main$877^(0+256),w
  8718  0301  1283               	bcf	3,5	;RP0=0, select bank0
  8719  0302  1303               	bcf	3,6	;RP1=0, select bank0
  8720  0303  00A4               	movwf	___fladd@a
  8721  0304  160A  118A  233E  120A  118A  	fcall	___fladd
  8722  0309  1283               	bcf	3,5	;RP0=0, select bank0
  8723  030A  1303               	bcf	3,6	;RP1=0, select bank0
  8724  030B  0823               	movf	?___fladd+3,w
  8725  030C  1283               	bcf	3,5	;RP0=0, select bank2
  8726  030D  1703               	bsf	3,6	;RP1=1, select bank2
  8727  030E  00DA               	movwf	(main@r+3)^(0+256)
  8728  030F  1283               	bcf	3,5	;RP0=0, select bank0
  8729  0310  1303               	bcf	3,6	;RP1=0, select bank0
  8730  0311  0822               	movf	?___fladd+2,w
  8731  0312  1283               	bcf	3,5	;RP0=0, select bank2
  8732  0313  1703               	bsf	3,6	;RP1=1, select bank2
  8733  0314  00D9               	movwf	(main@r+2)^(0+256)
  8734  0315  1283               	bcf	3,5	;RP0=0, select bank0
  8735  0316  1303               	bcf	3,6	;RP1=0, select bank0
  8736  0317  0821               	movf	?___fladd+1,w
  8737  0318  1283               	bcf	3,5	;RP0=0, select bank2
  8738  0319  1703               	bsf	3,6	;RP1=1, select bank2
  8739  031A  00D8               	movwf	(main@r+1)^(0+256)
  8740  031B  1283               	bcf	3,5	;RP0=0, select bank0
  8741  031C  1303               	bcf	3,6	;RP1=0, select bank0
  8742  031D  0820               	movf	?___fladd,w
  8743  031E  1283               	bcf	3,5	;RP0=0, select bank2
  8744  031F  1703               	bsf	3,6	;RP1=1, select bank2
  8745  0320  00D7               	movwf	main@r^(0+256)
  8746                           
  8747                           ;sun_main.c: 194:  A = acos((x/r))*57.29 ;
  8748  0321  085A               	movf	(main@r+3)^(0+256),w
  8749  0322  1283               	bcf	3,5	;RP0=0, select bank0
  8750  0323  1303               	bcf	3,6	;RP1=0, select bank0
  8751  0324  00B7               	movwf	___fldiv@a+3
  8752  0325  1283               	bcf	3,5	;RP0=0, select bank2
  8753  0326  1703               	bsf	3,6	;RP1=1, select bank2
  8754  0327  0859               	movf	(main@r+2)^(0+256),w
  8755  0328  1283               	bcf	3,5	;RP0=0, select bank0
  8756  0329  1303               	bcf	3,6	;RP1=0, select bank0
  8757  032A  00B6               	movwf	___fldiv@a+2
  8758  032B  1283               	bcf	3,5	;RP0=0, select bank2
  8759  032C  1703               	bsf	3,6	;RP1=1, select bank2
  8760  032D  0858               	movf	(main@r+1)^(0+256),w
  8761  032E  1283               	bcf	3,5	;RP0=0, select bank0
  8762  032F  1303               	bcf	3,6	;RP1=0, select bank0
  8763  0330  00B5               	movwf	___fldiv@a+1
  8764  0331  1283               	bcf	3,5	;RP0=0, select bank2
  8765  0332  1703               	bsf	3,6	;RP1=1, select bank2
  8766  0333  0857               	movf	main@r^(0+256),w
  8767  0334  1283               	bcf	3,5	;RP0=0, select bank0
  8768  0335  1303               	bcf	3,6	;RP1=0, select bank0
  8769  0336  00B4               	movwf	___fldiv@a
  8770  0337  1283               	bcf	3,5	;RP0=0, select bank2
  8771  0338  1703               	bsf	3,6	;RP1=1, select bank2
  8772  0339  0846               	movf	(main@x+3)^(0+256),w
  8773  033A  1283               	bcf	3,5	;RP0=0, select bank0
  8774  033B  1303               	bcf	3,6	;RP1=0, select bank0
  8775  033C  00BB               	movwf	___fldiv@b+3
  8776  033D  1283               	bcf	3,5	;RP0=0, select bank2
  8777  033E  1703               	bsf	3,6	;RP1=1, select bank2
  8778  033F  0845               	movf	(main@x+2)^(0+256),w
  8779  0340  1283               	bcf	3,5	;RP0=0, select bank0
  8780  0341  1303               	bcf	3,6	;RP1=0, select bank0
  8781  0342  00BA               	movwf	___fldiv@b+2
  8782  0343  1283               	bcf	3,5	;RP0=0, select bank2
  8783  0344  1703               	bsf	3,6	;RP1=1, select bank2
  8784  0345  0844               	movf	(main@x+1)^(0+256),w
  8785  0346  1283               	bcf	3,5	;RP0=0, select bank0
  8786  0347  1303               	bcf	3,6	;RP1=0, select bank0
  8787  0348  00B9               	movwf	___fldiv@b+1
  8788  0349  1283               	bcf	3,5	;RP0=0, select bank2
  8789  034A  1703               	bsf	3,6	;RP1=1, select bank2
  8790  034B  0843               	movf	main@x^(0+256),w
  8791  034C  1283               	bcf	3,5	;RP0=0, select bank0
  8792  034D  1303               	bcf	3,6	;RP1=0, select bank0
  8793  034E  00B8               	movwf	___fldiv@b
  8794  034F  160A  118A  219B  120A  118A  	fcall	___fldiv
  8795  0354  1283               	bcf	3,5	;RP0=0, select bank0
  8796  0355  1303               	bcf	3,6	;RP1=0, select bank0
  8797  0356  0837               	movf	?___fldiv+3,w
  8798  0357  1283               	bcf	3,5	;RP0=0, select bank2
  8799  0358  1703               	bsf	3,6	;RP1=1, select bank2
  8800  0359  00DE               	movwf	(_main$878+3)^(0+256)
  8801  035A  1283               	bcf	3,5	;RP0=0, select bank0
  8802  035B  1303               	bcf	3,6	;RP1=0, select bank0
  8803  035C  0836               	movf	?___fldiv+2,w
  8804  035D  1283               	bcf	3,5	;RP0=0, select bank2
  8805  035E  1703               	bsf	3,6	;RP1=1, select bank2
  8806  035F  00DD               	movwf	(_main$878+2)^(0+256)
  8807  0360  1283               	bcf	3,5	;RP0=0, select bank0
  8808  0361  1303               	bcf	3,6	;RP1=0, select bank0
  8809  0362  0835               	movf	?___fldiv+1,w
  8810  0363  1283               	bcf	3,5	;RP0=0, select bank2
  8811  0364  1703               	bsf	3,6	;RP1=1, select bank2
  8812  0365  00DC               	movwf	(_main$878+1)^(0+256)
  8813  0366  1283               	bcf	3,5	;RP0=0, select bank0
  8814  0367  1303               	bcf	3,6	;RP1=0, select bank0
  8815  0368  0834               	movf	?___fldiv,w
  8816  0369  1283               	bcf	3,5	;RP0=0, select bank2
  8817  036A  1703               	bsf	3,6	;RP1=1, select bank2
  8818  036B  00DB               	movwf	_main$878^(0+256)
  8819                           
  8820                           ;sun_main.c: 194:  A = acos((x/r))*57.29 ;
  8821  036C  085E               	movf	(_main$878+3)^(0+256),w
  8822  036D  1683               	bsf	3,5	;RP0=1, select bank1
  8823  036E  1303               	bcf	3,6	;RP1=0, select bank1
  8824  036F  00D9               	movwf	(acos@x+3)^(0+128)
  8825  0370  1283               	bcf	3,5	;RP0=0, select bank2
  8826  0371  1703               	bsf	3,6	;RP1=1, select bank2
  8827  0372  085D               	movf	(_main$878+2)^(0+256),w
  8828  0373  1683               	bsf	3,5	;RP0=1, select bank1
  8829  0374  1303               	bcf	3,6	;RP1=0, select bank1
  8830  0375  00D8               	movwf	(acos@x+2)^(0+128)
  8831  0376  1283               	bcf	3,5	;RP0=0, select bank2
  8832  0377  1703               	bsf	3,6	;RP1=1, select bank2
  8833  0378  085C               	movf	(_main$878+1)^(0+256),w
  8834  0379  1683               	bsf	3,5	;RP0=1, select bank1
  8835  037A  1303               	bcf	3,6	;RP1=0, select bank1
  8836  037B  00D7               	movwf	(acos@x+1)^(0+128)
  8837  037C  1283               	bcf	3,5	;RP0=0, select bank2
  8838  037D  1703               	bsf	3,6	;RP1=1, select bank2
  8839  037E  085B               	movf	_main$878^(0+256),w
  8840  037F  1683               	bsf	3,5	;RP0=1, select bank1
  8841  0380  1303               	bcf	3,6	;RP1=0, select bank1
  8842  0381  00D6               	movwf	acos@x^(0+128)
  8843  0382  160A  158A  24A2  120A  118A  	fcall	_acos
  8844  0387  1683               	bsf	3,5	;RP0=1, select bank1
  8845  0388  1303               	bcf	3,6	;RP1=0, select bank1
  8846  0389  0859               	movf	(?_acos+3)^(0+128),w
  8847  038A  1283               	bcf	3,5	;RP0=0, select bank2
  8848  038B  1703               	bsf	3,6	;RP1=1, select bank2
  8849  038C  00E2               	movwf	(_main$879+3)^(0+256)
  8850  038D  1683               	bsf	3,5	;RP0=1, select bank1
  8851  038E  1303               	bcf	3,6	;RP1=0, select bank1
  8852  038F  0858               	movf	(?_acos+2)^(0+128),w
  8853  0390  1283               	bcf	3,5	;RP0=0, select bank2
  8854  0391  1703               	bsf	3,6	;RP1=1, select bank2
  8855  0392  00E1               	movwf	(_main$879+2)^(0+256)
  8856  0393  1683               	bsf	3,5	;RP0=1, select bank1
  8857  0394  1303               	bcf	3,6	;RP1=0, select bank1
  8858  0395  0857               	movf	(?_acos+1)^(0+128),w
  8859  0396  1283               	bcf	3,5	;RP0=0, select bank2
  8860  0397  1703               	bsf	3,6	;RP1=1, select bank2
  8861  0398  00E0               	movwf	(_main$879+1)^(0+256)
  8862  0399  1683               	bsf	3,5	;RP0=1, select bank1
  8863  039A  1303               	bcf	3,6	;RP1=0, select bank1
  8864  039B  0856               	movf	?_acos^(0+128),w
  8865  039C  1283               	bcf	3,5	;RP0=0, select bank2
  8866  039D  1703               	bsf	3,6	;RP1=1, select bank2
  8867  039E  00DF               	movwf	_main$879^(0+256)
  8868                           
  8869                           ;sun_main.c: 194:  A = acos((x/r))*57.29 ;
  8870  039F  3042               	movlw	66
  8871  03A0  1283               	bcf	3,5	;RP0=0, select bank0
  8872  03A1  1303               	bcf	3,6	;RP1=0, select bank0
  8873  03A2  00D1               	movwf	___flmul@b+3
  8874  03A3  3065               	movlw	101
  8875  03A4  00D0               	movwf	___flmul@b+2
  8876  03A5  3028               	movlw	40
  8877  03A6  00CF               	movwf	___flmul@b+1
  8878  03A7  30F6               	movlw	246
  8879  03A8  00CE               	movwf	___flmul@b
  8880  03A9  1283               	bcf	3,5	;RP0=0, select bank2
  8881  03AA  1703               	bsf	3,6	;RP1=1, select bank2
  8882  03AB  0862               	movf	(_main$879+3)^(0+256),w
  8883  03AC  1283               	bcf	3,5	;RP0=0, select bank0
  8884  03AD  1303               	bcf	3,6	;RP1=0, select bank0
  8885  03AE  00D5               	movwf	___flmul@a+3
  8886  03AF  1283               	bcf	3,5	;RP0=0, select bank2
  8887  03B0  1703               	bsf	3,6	;RP1=1, select bank2
  8888  03B1  0861               	movf	(_main$879+2)^(0+256),w
  8889  03B2  1283               	bcf	3,5	;RP0=0, select bank0
  8890  03B3  1303               	bcf	3,6	;RP1=0, select bank0
  8891  03B4  00D4               	movwf	___flmul@a+2
  8892  03B5  1283               	bcf	3,5	;RP0=0, select bank2
  8893  03B6  1703               	bsf	3,6	;RP1=1, select bank2
  8894  03B7  0860               	movf	(_main$879+1)^(0+256),w
  8895  03B8  1283               	bcf	3,5	;RP0=0, select bank0
  8896  03B9  1303               	bcf	3,6	;RP1=0, select bank0
  8897  03BA  00D3               	movwf	___flmul@a+1
  8898  03BB  1283               	bcf	3,5	;RP0=0, select bank2
  8899  03BC  1703               	bsf	3,6	;RP1=1, select bank2
  8900  03BD  085F               	movf	_main$879^(0+256),w
  8901  03BE  1283               	bcf	3,5	;RP0=0, select bank0
  8902  03BF  1303               	bcf	3,6	;RP1=0, select bank0
  8903  03C0  00D2               	movwf	___flmul@a
  8904  03C1  120A  158A  24EB  120A  118A  	fcall	___flmul
  8905  03C6  1283               	bcf	3,5	;RP0=0, select bank0
  8906  03C7  1303               	bcf	3,6	;RP1=0, select bank0
  8907  03C8  0851               	movf	?___flmul+3,w
  8908  03C9  1283               	bcf	3,5	;RP0=0, select bank2
  8909  03CA  1703               	bsf	3,6	;RP1=1, select bank2
  8910  03CB  00B2               	movwf	(main@A+3)^(0+256)
  8911  03CC  1283               	bcf	3,5	;RP0=0, select bank0
  8912  03CD  1303               	bcf	3,6	;RP1=0, select bank0
  8913  03CE  0850               	movf	?___flmul+2,w
  8914  03CF  1283               	bcf	3,5	;RP0=0, select bank2
  8915  03D0  1703               	bsf	3,6	;RP1=1, select bank2
  8916  03D1  00B1               	movwf	(main@A+2)^(0+256)
  8917  03D2  1283               	bcf	3,5	;RP0=0, select bank0
  8918  03D3  1303               	bcf	3,6	;RP1=0, select bank0
  8919  03D4  084F               	movf	?___flmul+1,w
  8920  03D5  1283               	bcf	3,5	;RP0=0, select bank2
  8921  03D6  1703               	bsf	3,6	;RP1=1, select bank2
  8922  03D7  00B0               	movwf	(main@A+1)^(0+256)
  8923  03D8  1283               	bcf	3,5	;RP0=0, select bank0
  8924  03D9  1303               	bcf	3,6	;RP1=0, select bank0
  8925  03DA  084E               	movf	?___flmul,w
  8926  03DB  1283               	bcf	3,5	;RP0=0, select bank2
  8927  03DC  1703               	bsf	3,6	;RP1=1, select bank2
  8928  03DD  00AF               	movwf	main@A^(0+256)
  8929                           
  8930                           ;sun_main.c: 195:  B = acos((y/r))*57.29 ;
  8931  03DE  085A               	movf	(main@r+3)^(0+256),w
  8932  03DF  1283               	bcf	3,5	;RP0=0, select bank0
  8933  03E0  1303               	bcf	3,6	;RP1=0, select bank0
  8934  03E1  00B7               	movwf	___fldiv@a+3
  8935  03E2  1283               	bcf	3,5	;RP0=0, select bank2
  8936  03E3  1703               	bsf	3,6	;RP1=1, select bank2
  8937  03E4  0859               	movf	(main@r+2)^(0+256),w
  8938  03E5  1283               	bcf	3,5	;RP0=0, select bank0
  8939  03E6  1303               	bcf	3,6	;RP1=0, select bank0
  8940  03E7  00B6               	movwf	___fldiv@a+2
  8941  03E8  1283               	bcf	3,5	;RP0=0, select bank2
  8942  03E9  1703               	bsf	3,6	;RP1=1, select bank2
  8943  03EA  0858               	movf	(main@r+1)^(0+256),w
  8944  03EB  1283               	bcf	3,5	;RP0=0, select bank0
  8945  03EC  1303               	bcf	3,6	;RP1=0, select bank0
  8946  03ED  00B5               	movwf	___fldiv@a+1
  8947  03EE  1283               	bcf	3,5	;RP0=0, select bank2
  8948  03EF  1703               	bsf	3,6	;RP1=1, select bank2
  8949  03F0  0857               	movf	main@r^(0+256),w
  8950  03F1  1283               	bcf	3,5	;RP0=0, select bank0
  8951  03F2  1303               	bcf	3,6	;RP1=0, select bank0
  8952  03F3  00B4               	movwf	___fldiv@a
  8953  03F4  1283               	bcf	3,5	;RP0=0, select bank2
  8954  03F5  1703               	bsf	3,6	;RP1=1, select bank2
  8955  03F6  084A               	movf	(main@y+3)^(0+256),w
  8956  03F7  1283               	bcf	3,5	;RP0=0, select bank0
  8957  03F8  1303               	bcf	3,6	;RP1=0, select bank0
  8958  03F9  00BB               	movwf	___fldiv@b+3
  8959  03FA  1283               	bcf	3,5	;RP0=0, select bank2
  8960  03FB  1703               	bsf	3,6	;RP1=1, select bank2
  8961  03FC  0849               	movf	(main@y+2)^(0+256),w
  8962  03FD  1283               	bcf	3,5	;RP0=0, select bank0
  8963  03FE  1303               	bcf	3,6	;RP1=0, select bank0
  8964  03FF  00BA               	movwf	___fldiv@b+2
  8965  0400  1283               	bcf	3,5	;RP0=0, select bank2
  8966  0401  1703               	bsf	3,6	;RP1=1, select bank2
  8967  0402  0848               	movf	(main@y+1)^(0+256),w
  8968  0403  1283               	bcf	3,5	;RP0=0, select bank0
  8969  0404  1303               	bcf	3,6	;RP1=0, select bank0
  8970  0405  00B9               	movwf	___fldiv@b+1
  8971  0406  1283               	bcf	3,5	;RP0=0, select bank2
  8972  0407  1703               	bsf	3,6	;RP1=1, select bank2
  8973  0408  0847               	movf	main@y^(0+256),w
  8974  0409  1283               	bcf	3,5	;RP0=0, select bank0
  8975  040A  1303               	bcf	3,6	;RP1=0, select bank0
  8976  040B  00B8               	movwf	___fldiv@b
  8977  040C  160A  118A  219B  120A  118A  	fcall	___fldiv
  8978  0411  1283               	bcf	3,5	;RP0=0, select bank0
  8979  0412  1303               	bcf	3,6	;RP1=0, select bank0
  8980  0413  0837               	movf	?___fldiv+3,w
  8981  0414  1283               	bcf	3,5	;RP0=0, select bank2
  8982  0415  1703               	bsf	3,6	;RP1=1, select bank2
  8983  0416  00DE               	movwf	(_main$878+3)^(0+256)
  8984  0417  1283               	bcf	3,5	;RP0=0, select bank0
  8985  0418  1303               	bcf	3,6	;RP1=0, select bank0
  8986  0419  0836               	movf	?___fldiv+2,w
  8987  041A  1283               	bcf	3,5	;RP0=0, select bank2
  8988  041B  1703               	bsf	3,6	;RP1=1, select bank2
  8989  041C  00DD               	movwf	(_main$878+2)^(0+256)
  8990  041D  1283               	bcf	3,5	;RP0=0, select bank0
  8991  041E  1303               	bcf	3,6	;RP1=0, select bank0
  8992  041F  0835               	movf	?___fldiv+1,w
  8993  0420  1283               	bcf	3,5	;RP0=0, select bank2
  8994  0421  1703               	bsf	3,6	;RP1=1, select bank2
  8995  0422  00DC               	movwf	(_main$878+1)^(0+256)
  8996  0423  1283               	bcf	3,5	;RP0=0, select bank0
  8997  0424  1303               	bcf	3,6	;RP1=0, select bank0
  8998  0425  0834               	movf	?___fldiv,w
  8999  0426  1283               	bcf	3,5	;RP0=0, select bank2
  9000  0427  1703               	bsf	3,6	;RP1=1, select bank2
  9001  0428  00DB               	movwf	_main$878^(0+256)
  9002                           
  9003                           ;sun_main.c: 195:  B = acos((y/r))*57.29 ;
  9004  0429  085E               	movf	(_main$878+3)^(0+256),w
  9005  042A  1683               	bsf	3,5	;RP0=1, select bank1
  9006  042B  1303               	bcf	3,6	;RP1=0, select bank1
  9007  042C  00D9               	movwf	(acos@x+3)^(0+128)
  9008  042D  1283               	bcf	3,5	;RP0=0, select bank2
  9009  042E  1703               	bsf	3,6	;RP1=1, select bank2
  9010  042F  085D               	movf	(_main$878+2)^(0+256),w
  9011  0430  1683               	bsf	3,5	;RP0=1, select bank1
  9012  0431  1303               	bcf	3,6	;RP1=0, select bank1
  9013  0432  00D8               	movwf	(acos@x+2)^(0+128)
  9014  0433  1283               	bcf	3,5	;RP0=0, select bank2
  9015  0434  1703               	bsf	3,6	;RP1=1, select bank2
  9016  0435  085C               	movf	(_main$878+1)^(0+256),w
  9017  0436  1683               	bsf	3,5	;RP0=1, select bank1
  9018  0437  1303               	bcf	3,6	;RP1=0, select bank1
  9019  0438  00D7               	movwf	(acos@x+1)^(0+128)
  9020  0439  1283               	bcf	3,5	;RP0=0, select bank2
  9021  043A  1703               	bsf	3,6	;RP1=1, select bank2
  9022  043B  085B               	movf	_main$878^(0+256),w
  9023  043C  1683               	bsf	3,5	;RP0=1, select bank1
  9024  043D  1303               	bcf	3,6	;RP1=0, select bank1
  9025  043E  00D6               	movwf	acos@x^(0+128)
  9026  043F  160A  158A  24A2  120A  118A  	fcall	_acos
  9027  0444  1683               	bsf	3,5	;RP0=1, select bank1
  9028  0445  1303               	bcf	3,6	;RP1=0, select bank1
  9029  0446  0859               	movf	(?_acos+3)^(0+128),w
  9030  0447  1283               	bcf	3,5	;RP0=0, select bank2
  9031  0448  1703               	bsf	3,6	;RP1=1, select bank2
  9032  0449  00E2               	movwf	(_main$879+3)^(0+256)
  9033  044A  1683               	bsf	3,5	;RP0=1, select bank1
  9034  044B  1303               	bcf	3,6	;RP1=0, select bank1
  9035  044C  0858               	movf	(?_acos+2)^(0+128),w
  9036  044D  1283               	bcf	3,5	;RP0=0, select bank2
  9037  044E  1703               	bsf	3,6	;RP1=1, select bank2
  9038  044F  00E1               	movwf	(_main$879+2)^(0+256)
  9039  0450  1683               	bsf	3,5	;RP0=1, select bank1
  9040  0451  1303               	bcf	3,6	;RP1=0, select bank1
  9041  0452  0857               	movf	(?_acos+1)^(0+128),w
  9042  0453  1283               	bcf	3,5	;RP0=0, select bank2
  9043  0454  1703               	bsf	3,6	;RP1=1, select bank2
  9044  0455  00E0               	movwf	(_main$879+1)^(0+256)
  9045  0456  1683               	bsf	3,5	;RP0=1, select bank1
  9046  0457  1303               	bcf	3,6	;RP1=0, select bank1
  9047  0458  0856               	movf	?_acos^(0+128),w
  9048  0459  1283               	bcf	3,5	;RP0=0, select bank2
  9049  045A  1703               	bsf	3,6	;RP1=1, select bank2
  9050  045B  00DF               	movwf	_main$879^(0+256)
  9051                           
  9052                           ;sun_main.c: 195:  B = acos((y/r))*57.29 ;
  9053  045C  3042               	movlw	66
  9054  045D  1283               	bcf	3,5	;RP0=0, select bank0
  9055  045E  1303               	bcf	3,6	;RP1=0, select bank0
  9056  045F  00D1               	movwf	___flmul@b+3
  9057  0460  3065               	movlw	101
  9058  0461  00D0               	movwf	___flmul@b+2
  9059  0462  3028               	movlw	40
  9060  0463  00CF               	movwf	___flmul@b+1
  9061  0464  30F6               	movlw	246
  9062  0465  00CE               	movwf	___flmul@b
  9063  0466  1283               	bcf	3,5	;RP0=0, select bank2
  9064  0467  1703               	bsf	3,6	;RP1=1, select bank2
  9065  0468  0862               	movf	(_main$879+3)^(0+256),w
  9066  0469  1283               	bcf	3,5	;RP0=0, select bank0
  9067  046A  1303               	bcf	3,6	;RP1=0, select bank0
  9068  046B  00D5               	movwf	___flmul@a+3
  9069  046C  1283               	bcf	3,5	;RP0=0, select bank2
  9070  046D  1703               	bsf	3,6	;RP1=1, select bank2
  9071  046E  0861               	movf	(_main$879+2)^(0+256),w
  9072  046F  1283               	bcf	3,5	;RP0=0, select bank0
  9073  0470  1303               	bcf	3,6	;RP1=0, select bank0
  9074  0471  00D4               	movwf	___flmul@a+2
  9075  0472  1283               	bcf	3,5	;RP0=0, select bank2
  9076  0473  1703               	bsf	3,6	;RP1=1, select bank2
  9077  0474  0860               	movf	(_main$879+1)^(0+256),w
  9078  0475  1283               	bcf	3,5	;RP0=0, select bank0
  9079  0476  1303               	bcf	3,6	;RP1=0, select bank0
  9080  0477  00D3               	movwf	___flmul@a+1
  9081  0478  1283               	bcf	3,5	;RP0=0, select bank2
  9082  0479  1703               	bsf	3,6	;RP1=1, select bank2
  9083  047A  085F               	movf	_main$879^(0+256),w
  9084  047B  1283               	bcf	3,5	;RP0=0, select bank0
  9085  047C  1303               	bcf	3,6	;RP1=0, select bank0
  9086  047D  00D2               	movwf	___flmul@a
  9087  047E  120A  158A  24EB  120A  118A  	fcall	___flmul
  9088  0483  1283               	bcf	3,5	;RP0=0, select bank0
  9089  0484  1303               	bcf	3,6	;RP1=0, select bank0
  9090  0485  0851               	movf	?___flmul+3,w
  9091  0486  1283               	bcf	3,5	;RP0=0, select bank2
  9092  0487  1703               	bsf	3,6	;RP1=1, select bank2
  9093  0488  00B6               	movwf	(main@B+3)^(0+256)
  9094  0489  1283               	bcf	3,5	;RP0=0, select bank0
  9095  048A  1303               	bcf	3,6	;RP1=0, select bank0
  9096  048B  0850               	movf	?___flmul+2,w
  9097  048C  1283               	bcf	3,5	;RP0=0, select bank2
  9098  048D  1703               	bsf	3,6	;RP1=1, select bank2
  9099  048E  00B5               	movwf	(main@B+2)^(0+256)
  9100  048F  1283               	bcf	3,5	;RP0=0, select bank0
  9101  0490  1303               	bcf	3,6	;RP1=0, select bank0
  9102  0491  084F               	movf	?___flmul+1,w
  9103  0492  1283               	bcf	3,5	;RP0=0, select bank2
  9104  0493  1703               	bsf	3,6	;RP1=1, select bank2
  9105  0494  00B4               	movwf	(main@B+1)^(0+256)
  9106  0495  1283               	bcf	3,5	;RP0=0, select bank0
  9107  0496  1303               	bcf	3,6	;RP1=0, select bank0
  9108  0497  084E               	movf	?___flmul,w
  9109  0498  1283               	bcf	3,5	;RP0=0, select bank2
  9110  0499  1703               	bsf	3,6	;RP1=1, select bank2
  9111  049A  00B3               	movwf	main@B^(0+256)
  9112                           
  9113                           ;sun_main.c: 196:  C = acos((z/r))*57.29 ;
  9114  049B  085A               	movf	(main@r+3)^(0+256),w
  9115  049C  1283               	bcf	3,5	;RP0=0, select bank0
  9116  049D  1303               	bcf	3,6	;RP1=0, select bank0
  9117  049E  00B7               	movwf	___fldiv@a+3
  9118  049F  1283               	bcf	3,5	;RP0=0, select bank2
  9119  04A0  1703               	bsf	3,6	;RP1=1, select bank2
  9120  04A1  0859               	movf	(main@r+2)^(0+256),w
  9121  04A2  1283               	bcf	3,5	;RP0=0, select bank0
  9122  04A3  1303               	bcf	3,6	;RP1=0, select bank0
  9123  04A4  00B6               	movwf	___fldiv@a+2
  9124  04A5  1283               	bcf	3,5	;RP0=0, select bank2
  9125  04A6  1703               	bsf	3,6	;RP1=1, select bank2
  9126  04A7  0858               	movf	(main@r+1)^(0+256),w
  9127  04A8  1283               	bcf	3,5	;RP0=0, select bank0
  9128  04A9  1303               	bcf	3,6	;RP1=0, select bank0
  9129  04AA  00B5               	movwf	___fldiv@a+1
  9130  04AB  1283               	bcf	3,5	;RP0=0, select bank2
  9131  04AC  1703               	bsf	3,6	;RP1=1, select bank2
  9132  04AD  0857               	movf	main@r^(0+256),w
  9133  04AE  1283               	bcf	3,5	;RP0=0, select bank0
  9134  04AF  1303               	bcf	3,6	;RP1=0, select bank0
  9135  04B0  00B4               	movwf	___fldiv@a
  9136  04B1  1283               	bcf	3,5	;RP0=0, select bank2
  9137  04B2  1703               	bsf	3,6	;RP1=1, select bank2
  9138  04B3  084E               	movf	(main@z+3)^(0+256),w
  9139  04B4  1283               	bcf	3,5	;RP0=0, select bank0
  9140  04B5  1303               	bcf	3,6	;RP1=0, select bank0
  9141  04B6  00BB               	movwf	___fldiv@b+3
  9142  04B7  1283               	bcf	3,5	;RP0=0, select bank2
  9143  04B8  1703               	bsf	3,6	;RP1=1, select bank2
  9144  04B9  084D               	movf	(main@z+2)^(0+256),w
  9145  04BA  1283               	bcf	3,5	;RP0=0, select bank0
  9146  04BB  1303               	bcf	3,6	;RP1=0, select bank0
  9147  04BC  00BA               	movwf	___fldiv@b+2
  9148  04BD  1283               	bcf	3,5	;RP0=0, select bank2
  9149  04BE  1703               	bsf	3,6	;RP1=1, select bank2
  9150  04BF  084C               	movf	(main@z+1)^(0+256),w
  9151  04C0  1283               	bcf	3,5	;RP0=0, select bank0
  9152  04C1  1303               	bcf	3,6	;RP1=0, select bank0
  9153  04C2  00B9               	movwf	___fldiv@b+1
  9154  04C3  1283               	bcf	3,5	;RP0=0, select bank2
  9155  04C4  1703               	bsf	3,6	;RP1=1, select bank2
  9156  04C5  084B               	movf	main@z^(0+256),w
  9157  04C6  1283               	bcf	3,5	;RP0=0, select bank0
  9158  04C7  1303               	bcf	3,6	;RP1=0, select bank0
  9159  04C8  00B8               	movwf	___fldiv@b
  9160  04C9  160A  118A  219B  120A  118A  	fcall	___fldiv
  9161  04CE  1283               	bcf	3,5	;RP0=0, select bank0
  9162  04CF  1303               	bcf	3,6	;RP1=0, select bank0
  9163  04D0  0837               	movf	?___fldiv+3,w
  9164  04D1  1283               	bcf	3,5	;RP0=0, select bank2
  9165  04D2  1703               	bsf	3,6	;RP1=1, select bank2
  9166  04D3  00DE               	movwf	(_main$878+3)^(0+256)
  9167  04D4  1283               	bcf	3,5	;RP0=0, select bank0
  9168  04D5  1303               	bcf	3,6	;RP1=0, select bank0
  9169  04D6  0836               	movf	?___fldiv+2,w
  9170  04D7  1283               	bcf	3,5	;RP0=0, select bank2
  9171  04D8  1703               	bsf	3,6	;RP1=1, select bank2
  9172  04D9  00DD               	movwf	(_main$878+2)^(0+256)
  9173  04DA  1283               	bcf	3,5	;RP0=0, select bank0
  9174  04DB  1303               	bcf	3,6	;RP1=0, select bank0
  9175  04DC  0835               	movf	?___fldiv+1,w
  9176  04DD  1283               	bcf	3,5	;RP0=0, select bank2
  9177  04DE  1703               	bsf	3,6	;RP1=1, select bank2
  9178  04DF  00DC               	movwf	(_main$878+1)^(0+256)
  9179  04E0  1283               	bcf	3,5	;RP0=0, select bank0
  9180  04E1  1303               	bcf	3,6	;RP1=0, select bank0
  9181  04E2  0834               	movf	?___fldiv,w
  9182  04E3  1283               	bcf	3,5	;RP0=0, select bank2
  9183  04E4  1703               	bsf	3,6	;RP1=1, select bank2
  9184  04E5  00DB               	movwf	_main$878^(0+256)
  9185                           
  9186                           ;sun_main.c: 196:  C = acos((z/r))*57.29 ;
  9187  04E6  085E               	movf	(_main$878+3)^(0+256),w
  9188  04E7  1683               	bsf	3,5	;RP0=1, select bank1
  9189  04E8  1303               	bcf	3,6	;RP1=0, select bank1
  9190  04E9  00D9               	movwf	(acos@x+3)^(0+128)
  9191  04EA  1283               	bcf	3,5	;RP0=0, select bank2
  9192  04EB  1703               	bsf	3,6	;RP1=1, select bank2
  9193  04EC  085D               	movf	(_main$878+2)^(0+256),w
  9194  04ED  1683               	bsf	3,5	;RP0=1, select bank1
  9195  04EE  1303               	bcf	3,6	;RP1=0, select bank1
  9196  04EF  00D8               	movwf	(acos@x+2)^(0+128)
  9197  04F0  1283               	bcf	3,5	;RP0=0, select bank2
  9198  04F1  1703               	bsf	3,6	;RP1=1, select bank2
  9199  04F2  085C               	movf	(_main$878+1)^(0+256),w
  9200  04F3  1683               	bsf	3,5	;RP0=1, select bank1
  9201  04F4  1303               	bcf	3,6	;RP1=0, select bank1
  9202  04F5  00D7               	movwf	(acos@x+1)^(0+128)
  9203  04F6  1283               	bcf	3,5	;RP0=0, select bank2
  9204  04F7  1703               	bsf	3,6	;RP1=1, select bank2
  9205  04F8  085B               	movf	_main$878^(0+256),w
  9206  04F9  1683               	bsf	3,5	;RP0=1, select bank1
  9207  04FA  1303               	bcf	3,6	;RP1=0, select bank1
  9208  04FB  00D6               	movwf	acos@x^(0+128)
  9209  04FC  160A  158A  24A2  120A  118A  	fcall	_acos
  9210  0501  1683               	bsf	3,5	;RP0=1, select bank1
  9211  0502  1303               	bcf	3,6	;RP1=0, select bank1
  9212  0503  0859               	movf	(?_acos+3)^(0+128),w
  9213  0504  1283               	bcf	3,5	;RP0=0, select bank2
  9214  0505  1703               	bsf	3,6	;RP1=1, select bank2
  9215  0506  00E2               	movwf	(_main$879+3)^(0+256)
  9216  0507  1683               	bsf	3,5	;RP0=1, select bank1
  9217  0508  1303               	bcf	3,6	;RP1=0, select bank1
  9218  0509  0858               	movf	(?_acos+2)^(0+128),w
  9219  050A  1283               	bcf	3,5	;RP0=0, select bank2
  9220  050B  1703               	bsf	3,6	;RP1=1, select bank2
  9221  050C  00E1               	movwf	(_main$879+2)^(0+256)
  9222  050D  1683               	bsf	3,5	;RP0=1, select bank1
  9223  050E  1303               	bcf	3,6	;RP1=0, select bank1
  9224  050F  0857               	movf	(?_acos+1)^(0+128),w
  9225  0510  1283               	bcf	3,5	;RP0=0, select bank2
  9226  0511  1703               	bsf	3,6	;RP1=1, select bank2
  9227  0512  00E0               	movwf	(_main$879+1)^(0+256)
  9228  0513  1683               	bsf	3,5	;RP0=1, select bank1
  9229  0514  1303               	bcf	3,6	;RP1=0, select bank1
  9230  0515  0856               	movf	?_acos^(0+128),w
  9231  0516  1283               	bcf	3,5	;RP0=0, select bank2
  9232  0517  1703               	bsf	3,6	;RP1=1, select bank2
  9233  0518  00DF               	movwf	_main$879^(0+256)
  9234                           
  9235                           ;sun_main.c: 196:  C = acos((z/r))*57.29 ;
  9236  0519  3042               	movlw	66
  9237  051A  1283               	bcf	3,5	;RP0=0, select bank0
  9238  051B  1303               	bcf	3,6	;RP1=0, select bank0
  9239  051C  00D1               	movwf	___flmul@b+3
  9240  051D  3065               	movlw	101
  9241  051E  00D0               	movwf	___flmul@b+2
  9242  051F  3028               	movlw	40
  9243  0520  00CF               	movwf	___flmul@b+1
  9244  0521  30F6               	movlw	246
  9245  0522  00CE               	movwf	___flmul@b
  9246  0523  1283               	bcf	3,5	;RP0=0, select bank2
  9247  0524  1703               	bsf	3,6	;RP1=1, select bank2
  9248  0525  0862               	movf	(_main$879+3)^(0+256),w
  9249  0526  1283               	bcf	3,5	;RP0=0, select bank0
  9250  0527  1303               	bcf	3,6	;RP1=0, select bank0
  9251  0528  00D5               	movwf	___flmul@a+3
  9252  0529  1283               	bcf	3,5	;RP0=0, select bank2
  9253  052A  1703               	bsf	3,6	;RP1=1, select bank2
  9254  052B  0861               	movf	(_main$879+2)^(0+256),w
  9255  052C  1283               	bcf	3,5	;RP0=0, select bank0
  9256  052D  1303               	bcf	3,6	;RP1=0, select bank0
  9257  052E  00D4               	movwf	___flmul@a+2
  9258  052F  1283               	bcf	3,5	;RP0=0, select bank2
  9259  0530  1703               	bsf	3,6	;RP1=1, select bank2
  9260  0531  0860               	movf	(_main$879+1)^(0+256),w
  9261  0532  1283               	bcf	3,5	;RP0=0, select bank0
  9262  0533  1303               	bcf	3,6	;RP1=0, select bank0
  9263  0534  00D3               	movwf	___flmul@a+1
  9264  0535  1283               	bcf	3,5	;RP0=0, select bank2
  9265  0536  1703               	bsf	3,6	;RP1=1, select bank2
  9266  0537  085F               	movf	_main$879^(0+256),w
  9267  0538  1283               	bcf	3,5	;RP0=0, select bank0
  9268  0539  1303               	bcf	3,6	;RP1=0, select bank0
  9269  053A  00D2               	movwf	___flmul@a
  9270  053B  120A  158A  24EB  120A  118A  	fcall	___flmul
  9271  0540  1283               	bcf	3,5	;RP0=0, select bank0
  9272  0541  1303               	bcf	3,6	;RP1=0, select bank0
  9273  0542  0851               	movf	?___flmul+3,w
  9274  0543  1283               	bcf	3,5	;RP0=0, select bank2
  9275  0544  1703               	bsf	3,6	;RP1=1, select bank2
  9276  0545  00BA               	movwf	(main@C+3)^(0+256)
  9277  0546  1283               	bcf	3,5	;RP0=0, select bank0
  9278  0547  1303               	bcf	3,6	;RP1=0, select bank0
  9279  0548  0850               	movf	?___flmul+2,w
  9280  0549  1283               	bcf	3,5	;RP0=0, select bank2
  9281  054A  1703               	bsf	3,6	;RP1=1, select bank2
  9282  054B  00B9               	movwf	(main@C+2)^(0+256)
  9283  054C  1283               	bcf	3,5	;RP0=0, select bank0
  9284  054D  1303               	bcf	3,6	;RP1=0, select bank0
  9285  054E  084F               	movf	?___flmul+1,w
  9286  054F  1283               	bcf	3,5	;RP0=0, select bank2
  9287  0550  1703               	bsf	3,6	;RP1=1, select bank2
  9288  0551  00B8               	movwf	(main@C+1)^(0+256)
  9289  0552  1283               	bcf	3,5	;RP0=0, select bank0
  9290  0553  1303               	bcf	3,6	;RP1=0, select bank0
  9291  0554  084E               	movf	?___flmul,w
  9292  0555  1283               	bcf	3,5	;RP0=0, select bank2
  9293  0556  1703               	bsf	3,6	;RP1=1, select bank2
  9294  0557  00B7               	movwf	main@C^(0+256)
  9295                           
  9296                           ;sun_main.c: 197:  D = acos((negx/r))*57.29 ;
  9297  0558  085A               	movf	(main@r+3)^(0+256),w
  9298  0559  1283               	bcf	3,5	;RP0=0, select bank0
  9299  055A  1303               	bcf	3,6	;RP1=0, select bank0
  9300  055B  00B7               	movwf	___fldiv@a+3
  9301  055C  1283               	bcf	3,5	;RP0=0, select bank2
  9302  055D  1703               	bsf	3,6	;RP1=1, select bank2
  9303  055E  0859               	movf	(main@r+2)^(0+256),w
  9304  055F  1283               	bcf	3,5	;RP0=0, select bank0
  9305  0560  1303               	bcf	3,6	;RP1=0, select bank0
  9306  0561  00B6               	movwf	___fldiv@a+2
  9307  0562  1283               	bcf	3,5	;RP0=0, select bank2
  9308  0563  1703               	bsf	3,6	;RP1=1, select bank2
  9309  0564  0858               	movf	(main@r+1)^(0+256),w
  9310  0565  1283               	bcf	3,5	;RP0=0, select bank0
  9311  0566  1303               	bcf	3,6	;RP1=0, select bank0
  9312  0567  00B5               	movwf	___fldiv@a+1
  9313  0568  1283               	bcf	3,5	;RP0=0, select bank2
  9314  0569  1703               	bsf	3,6	;RP1=1, select bank2
  9315  056A  0857               	movf	main@r^(0+256),w
  9316  056B  1283               	bcf	3,5	;RP0=0, select bank0
  9317  056C  1303               	bcf	3,6	;RP1=0, select bank0
  9318  056D  00B4               	movwf	___fldiv@a
  9319  056E  1283               	bcf	3,5	;RP0=0, select bank2
  9320  056F  1703               	bsf	3,6	;RP1=1, select bank2
  9321  0570  0852               	movf	(main@negx+3)^(0+256),w
  9322  0571  1283               	bcf	3,5	;RP0=0, select bank0
  9323  0572  1303               	bcf	3,6	;RP1=0, select bank0
  9324  0573  00BB               	movwf	___fldiv@b+3
  9325  0574  1283               	bcf	3,5	;RP0=0, select bank2
  9326  0575  1703               	bsf	3,6	;RP1=1, select bank2
  9327  0576  0851               	movf	(main@negx+2)^(0+256),w
  9328  0577  1283               	bcf	3,5	;RP0=0, select bank0
  9329  0578  1303               	bcf	3,6	;RP1=0, select bank0
  9330  0579  00BA               	movwf	___fldiv@b+2
  9331  057A  1283               	bcf	3,5	;RP0=0, select bank2
  9332  057B  1703               	bsf	3,6	;RP1=1, select bank2
  9333  057C  0850               	movf	(main@negx+1)^(0+256),w
  9334  057D  1283               	bcf	3,5	;RP0=0, select bank0
  9335  057E  1303               	bcf	3,6	;RP1=0, select bank0
  9336  057F  00B9               	movwf	___fldiv@b+1
  9337  0580  1283               	bcf	3,5	;RP0=0, select bank2
  9338  0581  1703               	bsf	3,6	;RP1=1, select bank2
  9339  0582  084F               	movf	main@negx^(0+256),w
  9340  0583  1283               	bcf	3,5	;RP0=0, select bank0
  9341  0584  1303               	bcf	3,6	;RP1=0, select bank0
  9342  0585  00B8               	movwf	___fldiv@b
  9343  0586  160A  118A  219B  120A  118A  	fcall	___fldiv
  9344  058B  1283               	bcf	3,5	;RP0=0, select bank0
  9345  058C  1303               	bcf	3,6	;RP1=0, select bank0
  9346  058D  0837               	movf	?___fldiv+3,w
  9347  058E  1283               	bcf	3,5	;RP0=0, select bank2
  9348  058F  1703               	bsf	3,6	;RP1=1, select bank2
  9349  0590  00DE               	movwf	(_main$878+3)^(0+256)
  9350  0591  1283               	bcf	3,5	;RP0=0, select bank0
  9351  0592  1303               	bcf	3,6	;RP1=0, select bank0
  9352  0593  0836               	movf	?___fldiv+2,w
  9353  0594  1283               	bcf	3,5	;RP0=0, select bank2
  9354  0595  1703               	bsf	3,6	;RP1=1, select bank2
  9355  0596  00DD               	movwf	(_main$878+2)^(0+256)
  9356  0597  1283               	bcf	3,5	;RP0=0, select bank0
  9357  0598  1303               	bcf	3,6	;RP1=0, select bank0
  9358  0599  0835               	movf	?___fldiv+1,w
  9359  059A  1283               	bcf	3,5	;RP0=0, select bank2
  9360  059B  1703               	bsf	3,6	;RP1=1, select bank2
  9361  059C  00DC               	movwf	(_main$878+1)^(0+256)
  9362  059D  1283               	bcf	3,5	;RP0=0, select bank0
  9363  059E  1303               	bcf	3,6	;RP1=0, select bank0
  9364  059F  0834               	movf	?___fldiv,w
  9365  05A0  1283               	bcf	3,5	;RP0=0, select bank2
  9366  05A1  1703               	bsf	3,6	;RP1=1, select bank2
  9367  05A2  00DB               	movwf	_main$878^(0+256)
  9368                           
  9369                           ;sun_main.c: 197:  D = acos((negx/r))*57.29 ;
  9370  05A3  085E               	movf	(_main$878+3)^(0+256),w
  9371  05A4  1683               	bsf	3,5	;RP0=1, select bank1
  9372  05A5  1303               	bcf	3,6	;RP1=0, select bank1
  9373  05A6  00D9               	movwf	(acos@x+3)^(0+128)
  9374  05A7  1283               	bcf	3,5	;RP0=0, select bank2
  9375  05A8  1703               	bsf	3,6	;RP1=1, select bank2
  9376  05A9  085D               	movf	(_main$878+2)^(0+256),w
  9377  05AA  1683               	bsf	3,5	;RP0=1, select bank1
  9378  05AB  1303               	bcf	3,6	;RP1=0, select bank1
  9379  05AC  00D8               	movwf	(acos@x+2)^(0+128)
  9380  05AD  1283               	bcf	3,5	;RP0=0, select bank2
  9381  05AE  1703               	bsf	3,6	;RP1=1, select bank2
  9382  05AF  085C               	movf	(_main$878+1)^(0+256),w
  9383  05B0  1683               	bsf	3,5	;RP0=1, select bank1
  9384  05B1  1303               	bcf	3,6	;RP1=0, select bank1
  9385  05B2  00D7               	movwf	(acos@x+1)^(0+128)
  9386  05B3  1283               	bcf	3,5	;RP0=0, select bank2
  9387  05B4  1703               	bsf	3,6	;RP1=1, select bank2
  9388  05B5  085B               	movf	_main$878^(0+256),w
  9389  05B6  1683               	bsf	3,5	;RP0=1, select bank1
  9390  05B7  1303               	bcf	3,6	;RP1=0, select bank1
  9391  05B8  00D6               	movwf	acos@x^(0+128)
  9392  05B9  160A  158A  24A2  120A  118A  	fcall	_acos
  9393  05BE  1683               	bsf	3,5	;RP0=1, select bank1
  9394  05BF  1303               	bcf	3,6	;RP1=0, select bank1
  9395  05C0  0859               	movf	(?_acos+3)^(0+128),w
  9396  05C1  1283               	bcf	3,5	;RP0=0, select bank2
  9397  05C2  1703               	bsf	3,6	;RP1=1, select bank2
  9398  05C3  00E2               	movwf	(_main$879+3)^(0+256)
  9399  05C4  1683               	bsf	3,5	;RP0=1, select bank1
  9400  05C5  1303               	bcf	3,6	;RP1=0, select bank1
  9401  05C6  0858               	movf	(?_acos+2)^(0+128),w
  9402  05C7  1283               	bcf	3,5	;RP0=0, select bank2
  9403  05C8  1703               	bsf	3,6	;RP1=1, select bank2
  9404  05C9  00E1               	movwf	(_main$879+2)^(0+256)
  9405  05CA  1683               	bsf	3,5	;RP0=1, select bank1
  9406  05CB  1303               	bcf	3,6	;RP1=0, select bank1
  9407  05CC  0857               	movf	(?_acos+1)^(0+128),w
  9408  05CD  1283               	bcf	3,5	;RP0=0, select bank2
  9409  05CE  1703               	bsf	3,6	;RP1=1, select bank2
  9410  05CF  00E0               	movwf	(_main$879+1)^(0+256)
  9411  05D0  1683               	bsf	3,5	;RP0=1, select bank1
  9412  05D1  1303               	bcf	3,6	;RP1=0, select bank1
  9413  05D2  0856               	movf	?_acos^(0+128),w
  9414  05D3  1283               	bcf	3,5	;RP0=0, select bank2
  9415  05D4  1703               	bsf	3,6	;RP1=1, select bank2
  9416  05D5  00DF               	movwf	_main$879^(0+256)
  9417                           
  9418                           ;sun_main.c: 197:  D = acos((negx/r))*57.29 ;
  9419  05D6  3042               	movlw	66
  9420  05D7  1283               	bcf	3,5	;RP0=0, select bank0
  9421  05D8  1303               	bcf	3,6	;RP1=0, select bank0
  9422  05D9  00D1               	movwf	___flmul@b+3
  9423  05DA  3065               	movlw	101
  9424  05DB  00D0               	movwf	___flmul@b+2
  9425  05DC  3028               	movlw	40
  9426  05DD  00CF               	movwf	___flmul@b+1
  9427  05DE  30F6               	movlw	246
  9428  05DF  00CE               	movwf	___flmul@b
  9429  05E0  1283               	bcf	3,5	;RP0=0, select bank2
  9430  05E1  1703               	bsf	3,6	;RP1=1, select bank2
  9431  05E2  0862               	movf	(_main$879+3)^(0+256),w
  9432  05E3  1283               	bcf	3,5	;RP0=0, select bank0
  9433  05E4  1303               	bcf	3,6	;RP1=0, select bank0
  9434  05E5  00D5               	movwf	___flmul@a+3
  9435  05E6  1283               	bcf	3,5	;RP0=0, select bank2
  9436  05E7  1703               	bsf	3,6	;RP1=1, select bank2
  9437  05E8  0861               	movf	(_main$879+2)^(0+256),w
  9438  05E9  1283               	bcf	3,5	;RP0=0, select bank0
  9439  05EA  1303               	bcf	3,6	;RP1=0, select bank0
  9440  05EB  00D4               	movwf	___flmul@a+2
  9441  05EC  1283               	bcf	3,5	;RP0=0, select bank2
  9442  05ED  1703               	bsf	3,6	;RP1=1, select bank2
  9443  05EE  0860               	movf	(_main$879+1)^(0+256),w
  9444  05EF  1283               	bcf	3,5	;RP0=0, select bank0
  9445  05F0  1303               	bcf	3,6	;RP1=0, select bank0
  9446  05F1  00D3               	movwf	___flmul@a+1
  9447  05F2  1283               	bcf	3,5	;RP0=0, select bank2
  9448  05F3  1703               	bsf	3,6	;RP1=1, select bank2
  9449  05F4  085F               	movf	_main$879^(0+256),w
  9450  05F5  1283               	bcf	3,5	;RP0=0, select bank0
  9451  05F6  1303               	bcf	3,6	;RP1=0, select bank0
  9452  05F7  00D2               	movwf	___flmul@a
  9453  05F8  120A  158A  24EB  120A  118A  	fcall	___flmul
  9454  05FD  1283               	bcf	3,5	;RP0=0, select bank0
  9455  05FE  1303               	bcf	3,6	;RP1=0, select bank0
  9456  05FF  0851               	movf	?___flmul+3,w
  9457  0600  1283               	bcf	3,5	;RP0=0, select bank2
  9458  0601  1703               	bsf	3,6	;RP1=1, select bank2
  9459  0602  00BE               	movwf	(main@D+3)^(0+256)
  9460  0603  1283               	bcf	3,5	;RP0=0, select bank0
  9461  0604  1303               	bcf	3,6	;RP1=0, select bank0
  9462  0605  0850               	movf	?___flmul+2,w
  9463  0606  1283               	bcf	3,5	;RP0=0, select bank2
  9464  0607  1703               	bsf	3,6	;RP1=1, select bank2
  9465  0608  00BD               	movwf	(main@D+2)^(0+256)
  9466  0609  1283               	bcf	3,5	;RP0=0, select bank0
  9467  060A  1303               	bcf	3,6	;RP1=0, select bank0
  9468  060B  084F               	movf	?___flmul+1,w
  9469  060C  1283               	bcf	3,5	;RP0=0, select bank2
  9470  060D  1703               	bsf	3,6	;RP1=1, select bank2
  9471  060E  00BC               	movwf	(main@D+1)^(0+256)
  9472  060F  1283               	bcf	3,5	;RP0=0, select bank0
  9473  0610  1303               	bcf	3,6	;RP1=0, select bank0
  9474  0611  084E               	movf	?___flmul,w
  9475  0612  1283               	bcf	3,5	;RP0=0, select bank2
  9476  0613  1703               	bsf	3,6	;RP1=1, select bank2
  9477  0614  00BB               	movwf	main@D^(0+256)
  9478                           
  9479                           ;sun_main.c: 198:  E = acos((negy/r))*57.29 ;
  9480  0615  085A               	movf	(main@r+3)^(0+256),w
  9481  0616  1283               	bcf	3,5	;RP0=0, select bank0
  9482  0617  1303               	bcf	3,6	;RP1=0, select bank0
  9483  0618  00B7               	movwf	___fldiv@a+3
  9484  0619  1283               	bcf	3,5	;RP0=0, select bank2
  9485  061A  1703               	bsf	3,6	;RP1=1, select bank2
  9486  061B  0859               	movf	(main@r+2)^(0+256),w
  9487  061C  1283               	bcf	3,5	;RP0=0, select bank0
  9488  061D  1303               	bcf	3,6	;RP1=0, select bank0
  9489  061E  00B6               	movwf	___fldiv@a+2
  9490  061F  1283               	bcf	3,5	;RP0=0, select bank2
  9491  0620  1703               	bsf	3,6	;RP1=1, select bank2
  9492  0621  0858               	movf	(main@r+1)^(0+256),w
  9493  0622  1283               	bcf	3,5	;RP0=0, select bank0
  9494  0623  1303               	bcf	3,6	;RP1=0, select bank0
  9495  0624  00B5               	movwf	___fldiv@a+1
  9496  0625  1283               	bcf	3,5	;RP0=0, select bank2
  9497  0626  1703               	bsf	3,6	;RP1=1, select bank2
  9498  0627  0857               	movf	main@r^(0+256),w
  9499  0628  1283               	bcf	3,5	;RP0=0, select bank0
  9500  0629  1303               	bcf	3,6	;RP1=0, select bank0
  9501  062A  00B4               	movwf	___fldiv@a
  9502  062B  1283               	bcf	3,5	;RP0=0, select bank2
  9503  062C  1703               	bsf	3,6	;RP1=1, select bank2
  9504  062D  0856               	movf	(main@negy+3)^(0+256),w
  9505  062E  1283               	bcf	3,5	;RP0=0, select bank0
  9506  062F  1303               	bcf	3,6	;RP1=0, select bank0
  9507  0630  00BB               	movwf	___fldiv@b+3
  9508  0631  1283               	bcf	3,5	;RP0=0, select bank2
  9509  0632  1703               	bsf	3,6	;RP1=1, select bank2
  9510  0633  0855               	movf	(main@negy+2)^(0+256),w
  9511  0634  1283               	bcf	3,5	;RP0=0, select bank0
  9512  0635  1303               	bcf	3,6	;RP1=0, select bank0
  9513  0636  00BA               	movwf	___fldiv@b+2
  9514  0637  1283               	bcf	3,5	;RP0=0, select bank2
  9515  0638  1703               	bsf	3,6	;RP1=1, select bank2
  9516  0639  0854               	movf	(main@negy+1)^(0+256),w
  9517  063A  1283               	bcf	3,5	;RP0=0, select bank0
  9518  063B  1303               	bcf	3,6	;RP1=0, select bank0
  9519  063C  00B9               	movwf	___fldiv@b+1
  9520  063D  1283               	bcf	3,5	;RP0=0, select bank2
  9521  063E  1703               	bsf	3,6	;RP1=1, select bank2
  9522  063F  0853               	movf	main@negy^(0+256),w
  9523  0640  1283               	bcf	3,5	;RP0=0, select bank0
  9524  0641  1303               	bcf	3,6	;RP1=0, select bank0
  9525  0642  00B8               	movwf	___fldiv@b
  9526  0643  160A  118A  219B  120A  118A  	fcall	___fldiv
  9527  0648  1283               	bcf	3,5	;RP0=0, select bank0
  9528  0649  1303               	bcf	3,6	;RP1=0, select bank0
  9529  064A  0837               	movf	?___fldiv+3,w
  9530  064B  1283               	bcf	3,5	;RP0=0, select bank2
  9531  064C  1703               	bsf	3,6	;RP1=1, select bank2
  9532  064D  00DE               	movwf	(_main$878+3)^(0+256)
  9533  064E  1283               	bcf	3,5	;RP0=0, select bank0
  9534  064F  1303               	bcf	3,6	;RP1=0, select bank0
  9535  0650  0836               	movf	?___fldiv+2,w
  9536  0651  1283               	bcf	3,5	;RP0=0, select bank2
  9537  0652  1703               	bsf	3,6	;RP1=1, select bank2
  9538  0653  00DD               	movwf	(_main$878+2)^(0+256)
  9539  0654  1283               	bcf	3,5	;RP0=0, select bank0
  9540  0655  1303               	bcf	3,6	;RP1=0, select bank0
  9541  0656  0835               	movf	?___fldiv+1,w
  9542  0657  1283               	bcf	3,5	;RP0=0, select bank2
  9543  0658  1703               	bsf	3,6	;RP1=1, select bank2
  9544  0659  00DC               	movwf	(_main$878+1)^(0+256)
  9545  065A  1283               	bcf	3,5	;RP0=0, select bank0
  9546  065B  1303               	bcf	3,6	;RP1=0, select bank0
  9547  065C  0834               	movf	?___fldiv,w
  9548  065D  1283               	bcf	3,5	;RP0=0, select bank2
  9549  065E  1703               	bsf	3,6	;RP1=1, select bank2
  9550  065F  00DB               	movwf	_main$878^(0+256)
  9551                           
  9552                           ;sun_main.c: 198:  E = acos((negy/r))*57.29 ;
  9553  0660  085E               	movf	(_main$878+3)^(0+256),w
  9554  0661  1683               	bsf	3,5	;RP0=1, select bank1
  9555  0662  1303               	bcf	3,6	;RP1=0, select bank1
  9556  0663  00D9               	movwf	(acos@x+3)^(0+128)
  9557  0664  1283               	bcf	3,5	;RP0=0, select bank2
  9558  0665  1703               	bsf	3,6	;RP1=1, select bank2
  9559  0666  085D               	movf	(_main$878+2)^(0+256),w
  9560  0667  1683               	bsf	3,5	;RP0=1, select bank1
  9561  0668  1303               	bcf	3,6	;RP1=0, select bank1
  9562  0669  00D8               	movwf	(acos@x+2)^(0+128)
  9563  066A  1283               	bcf	3,5	;RP0=0, select bank2
  9564  066B  1703               	bsf	3,6	;RP1=1, select bank2
  9565  066C  085C               	movf	(_main$878+1)^(0+256),w
  9566  066D  1683               	bsf	3,5	;RP0=1, select bank1
  9567  066E  1303               	bcf	3,6	;RP1=0, select bank1
  9568  066F  00D7               	movwf	(acos@x+1)^(0+128)
  9569  0670  1283               	bcf	3,5	;RP0=0, select bank2
  9570  0671  1703               	bsf	3,6	;RP1=1, select bank2
  9571  0672  085B               	movf	_main$878^(0+256),w
  9572  0673  1683               	bsf	3,5	;RP0=1, select bank1
  9573  0674  1303               	bcf	3,6	;RP1=0, select bank1
  9574  0675  00D6               	movwf	acos@x^(0+128)
  9575  0676  160A  158A  24A2  120A  118A  	fcall	_acos
  9576  067B  1683               	bsf	3,5	;RP0=1, select bank1
  9577  067C  1303               	bcf	3,6	;RP1=0, select bank1
  9578  067D  0859               	movf	(?_acos+3)^(0+128),w
  9579  067E  1283               	bcf	3,5	;RP0=0, select bank2
  9580  067F  1703               	bsf	3,6	;RP1=1, select bank2
  9581  0680  00E2               	movwf	(_main$879+3)^(0+256)
  9582  0681  1683               	bsf	3,5	;RP0=1, select bank1
  9583  0682  1303               	bcf	3,6	;RP1=0, select bank1
  9584  0683  0858               	movf	(?_acos+2)^(0+128),w
  9585  0684  1283               	bcf	3,5	;RP0=0, select bank2
  9586  0685  1703               	bsf	3,6	;RP1=1, select bank2
  9587  0686  00E1               	movwf	(_main$879+2)^(0+256)
  9588  0687  1683               	bsf	3,5	;RP0=1, select bank1
  9589  0688  1303               	bcf	3,6	;RP1=0, select bank1
  9590  0689  0857               	movf	(?_acos+1)^(0+128),w
  9591  068A  1283               	bcf	3,5	;RP0=0, select bank2
  9592  068B  1703               	bsf	3,6	;RP1=1, select bank2
  9593  068C  00E0               	movwf	(_main$879+1)^(0+256)
  9594  068D  1683               	bsf	3,5	;RP0=1, select bank1
  9595  068E  1303               	bcf	3,6	;RP1=0, select bank1
  9596  068F  0856               	movf	?_acos^(0+128),w
  9597  0690  1283               	bcf	3,5	;RP0=0, select bank2
  9598  0691  1703               	bsf	3,6	;RP1=1, select bank2
  9599  0692  00DF               	movwf	_main$879^(0+256)
  9600                           
  9601                           ;sun_main.c: 198:  E = acos((negy/r))*57.29 ;
  9602  0693  3042               	movlw	66
  9603  0694  1283               	bcf	3,5	;RP0=0, select bank0
  9604  0695  1303               	bcf	3,6	;RP1=0, select bank0
  9605  0696  00D1               	movwf	___flmul@b+3
  9606  0697  3065               	movlw	101
  9607  0698  00D0               	movwf	___flmul@b+2
  9608  0699  3028               	movlw	40
  9609  069A  00CF               	movwf	___flmul@b+1
  9610  069B  30F6               	movlw	246
  9611  069C  00CE               	movwf	___flmul@b
  9612  069D  1283               	bcf	3,5	;RP0=0, select bank2
  9613  069E  1703               	bsf	3,6	;RP1=1, select bank2
  9614  069F  0862               	movf	(_main$879+3)^(0+256),w
  9615  06A0  1283               	bcf	3,5	;RP0=0, select bank0
  9616  06A1  1303               	bcf	3,6	;RP1=0, select bank0
  9617  06A2  00D5               	movwf	___flmul@a+3
  9618  06A3  1283               	bcf	3,5	;RP0=0, select bank2
  9619  06A4  1703               	bsf	3,6	;RP1=1, select bank2
  9620  06A5  0861               	movf	(_main$879+2)^(0+256),w
  9621  06A6  1283               	bcf	3,5	;RP0=0, select bank0
  9622  06A7  1303               	bcf	3,6	;RP1=0, select bank0
  9623  06A8  00D4               	movwf	___flmul@a+2
  9624  06A9  1283               	bcf	3,5	;RP0=0, select bank2
  9625  06AA  1703               	bsf	3,6	;RP1=1, select bank2
  9626  06AB  0860               	movf	(_main$879+1)^(0+256),w
  9627  06AC  1283               	bcf	3,5	;RP0=0, select bank0
  9628  06AD  1303               	bcf	3,6	;RP1=0, select bank0
  9629  06AE  00D3               	movwf	___flmul@a+1
  9630  06AF  1283               	bcf	3,5	;RP0=0, select bank2
  9631  06B0  1703               	bsf	3,6	;RP1=1, select bank2
  9632  06B1  085F               	movf	_main$879^(0+256),w
  9633  06B2  1283               	bcf	3,5	;RP0=0, select bank0
  9634  06B3  1303               	bcf	3,6	;RP1=0, select bank0
  9635  06B4  00D2               	movwf	___flmul@a
  9636  06B5  120A  158A  24EB  120A  118A  	fcall	___flmul
  9637  06BA  1283               	bcf	3,5	;RP0=0, select bank0
  9638  06BB  1303               	bcf	3,6	;RP1=0, select bank0
  9639  06BC  0851               	movf	?___flmul+3,w
  9640  06BD  1283               	bcf	3,5	;RP0=0, select bank2
  9641  06BE  1703               	bsf	3,6	;RP1=1, select bank2
  9642  06BF  00C2               	movwf	(main@E+3)^(0+256)
  9643  06C0  1283               	bcf	3,5	;RP0=0, select bank0
  9644  06C1  1303               	bcf	3,6	;RP1=0, select bank0
  9645  06C2  0850               	movf	?___flmul+2,w
  9646  06C3  1283               	bcf	3,5	;RP0=0, select bank2
  9647  06C4  1703               	bsf	3,6	;RP1=1, select bank2
  9648  06C5  00C1               	movwf	(main@E+2)^(0+256)
  9649  06C6  1283               	bcf	3,5	;RP0=0, select bank0
  9650  06C7  1303               	bcf	3,6	;RP1=0, select bank0
  9651  06C8  084F               	movf	?___flmul+1,w
  9652  06C9  1283               	bcf	3,5	;RP0=0, select bank2
  9653  06CA  1703               	bsf	3,6	;RP1=1, select bank2
  9654  06CB  00C0               	movwf	(main@E+1)^(0+256)
  9655  06CC  1283               	bcf	3,5	;RP0=0, select bank0
  9656  06CD  1303               	bcf	3,6	;RP1=0, select bank0
  9657  06CE  084E               	movf	?___flmul,w
  9658  06CF  1283               	bcf	3,5	;RP0=0, select bank2
  9659  06D0  1703               	bsf	3,6	;RP1=1, select bank2
  9660  06D1  00BF               	movwf	main@E^(0+256)
  9661                           
  9662                           ;sun_main.c: 201:   Lcd_Clear();
  9663  06D2  160A  158A  2226  120A  118A  	fcall	_Lcd_Clear
  9664                           
  9665                           ;sun_main.c: 202:         Lcd_Set_Cursor(1,1);
  9666  06D7  01F4               	clrf	Lcd_Set_Cursor@b
  9667  06D8  0AF4               	incf	Lcd_Set_Cursor@b,f
  9668  06D9  3001               	movlw	1
  9669  06DA  160A  158A  23BB  120A  118A  	fcall	_Lcd_Set_Cursor
  9670                           
  9671                           ;sun_main.c: 203:         Lcd_Print_String(a); Lcd_Print_Ang(A);
  9672  06DF  3010               	movlw	(low (main@a| (0+256)))& (0+255)
  9673  06E0  160A  158A  2299  120A  118A  	fcall	_Lcd_Print_String
  9674  06E5  1283               	bcf	3,5	;RP0=0, select bank2
  9675  06E6  1703               	bsf	3,6	;RP1=1, select bank2
  9676  06E7  0832               	movf	(main@A+3)^(0+256),w
  9677  06E8  1683               	bsf	3,5	;RP0=1, select bank1
  9678  06E9  1303               	bcf	3,6	;RP1=0, select bank1
  9679  06EA  00AD               	movwf	(Lcd_Print_Ang@f+3)^(0+128)
  9680  06EB  1283               	bcf	3,5	;RP0=0, select bank2
  9681  06EC  1703               	bsf	3,6	;RP1=1, select bank2
  9682  06ED  0831               	movf	(main@A+2)^(0+256),w
  9683  06EE  1683               	bsf	3,5	;RP0=1, select bank1
  9684  06EF  1303               	bcf	3,6	;RP1=0, select bank1
  9685  06F0  00AC               	movwf	(Lcd_Print_Ang@f+2)^(0+128)
  9686  06F1  1283               	bcf	3,5	;RP0=0, select bank2
  9687  06F2  1703               	bsf	3,6	;RP1=1, select bank2
  9688  06F3  0830               	movf	(main@A+1)^(0+256),w
  9689  06F4  1683               	bsf	3,5	;RP0=1, select bank1
  9690  06F5  1303               	bcf	3,6	;RP1=0, select bank1
  9691  06F6  00AB               	movwf	(Lcd_Print_Ang@f+1)^(0+128)
  9692  06F7  1283               	bcf	3,5	;RP0=0, select bank2
  9693  06F8  1703               	bsf	3,6	;RP1=1, select bank2
  9694  06F9  082F               	movf	main@A^(0+256),w
  9695  06FA  1683               	bsf	3,5	;RP0=1, select bank1
  9696  06FB  1303               	bcf	3,6	;RP1=0, select bank1
  9697  06FC  00AA               	movwf	Lcd_Print_Ang@f^(0+128)
  9698  06FD  160A  118A  2005  120A  118A  	fcall	_Lcd_Print_Ang
  9699                           
  9700                           ;sun_main.c: 204:         Lcd_Set_Cursor(1,8);
  9701  0702  3008               	movlw	8
  9702  0703  1683               	bsf	3,5	;RP0=1, select bank1
  9703  0704  1303               	bcf	3,6	;RP1=0, select bank1
  9704  0705  00DE               	movwf	??_main^(0+128)
  9705  0706  085E               	movf	??_main^(0+128),w
  9706  0707  00F4               	movwf	Lcd_Set_Cursor@b
  9707  0708  3001               	movlw	1
  9708  0709  160A  158A  23BB  120A  118A  	fcall	_Lcd_Set_Cursor
  9709                           
  9710                           ;sun_main.c: 205:         Lcd_Print_String(b); Lcd_Print_Ang(B);
  9711  070E  3013               	movlw	(low (main@b| (0+256)))& (0+255)
  9712  070F  160A  158A  2299  120A  118A  	fcall	_Lcd_Print_String
  9713  0714  1283               	bcf	3,5	;RP0=0, select bank2
  9714  0715  1703               	bsf	3,6	;RP1=1, select bank2
  9715  0716  0836               	movf	(main@B+3)^(0+256),w
  9716  0717  1683               	bsf	3,5	;RP0=1, select bank1
  9717  0718  1303               	bcf	3,6	;RP1=0, select bank1
  9718  0719  00AD               	movwf	(Lcd_Print_Ang@f+3)^(0+128)
  9719  071A  1283               	bcf	3,5	;RP0=0, select bank2
  9720  071B  1703               	bsf	3,6	;RP1=1, select bank2
  9721  071C  0835               	movf	(main@B+2)^(0+256),w
  9722  071D  1683               	bsf	3,5	;RP0=1, select bank1
  9723  071E  1303               	bcf	3,6	;RP1=0, select bank1
  9724  071F  00AC               	movwf	(Lcd_Print_Ang@f+2)^(0+128)
  9725  0720  1283               	bcf	3,5	;RP0=0, select bank2
  9726  0721  1703               	bsf	3,6	;RP1=1, select bank2
  9727  0722  0834               	movf	(main@B+1)^(0+256),w
  9728  0723  1683               	bsf	3,5	;RP0=1, select bank1
  9729  0724  1303               	bcf	3,6	;RP1=0, select bank1
  9730  0725  00AB               	movwf	(Lcd_Print_Ang@f+1)^(0+128)
  9731  0726  1283               	bcf	3,5	;RP0=0, select bank2
  9732  0727  1703               	bsf	3,6	;RP1=1, select bank2
  9733  0728  0833               	movf	main@B^(0+256),w
  9734  0729  1683               	bsf	3,5	;RP0=1, select bank1
  9735  072A  1303               	bcf	3,6	;RP1=0, select bank1
  9736  072B  00AA               	movwf	Lcd_Print_Ang@f^(0+128)
  9737  072C  160A  118A  2005  120A  118A  	fcall	_Lcd_Print_Ang
  9738                           
  9739                           ;sun_main.c: 206:         Lcd_Set_Cursor(2,1);
  9740  0731  01F4               	clrf	Lcd_Set_Cursor@b
  9741  0732  0AF4               	incf	Lcd_Set_Cursor@b,f
  9742  0733  3002               	movlw	2
  9743  0734  160A  158A  23BB  120A  118A  	fcall	_Lcd_Set_Cursor
  9744                           
  9745                           ;sun_main.c: 207:         Lcd_Print_String(c); Lcd_Print_Ang(C);
  9746  0739  3016               	movlw	(low (main@c| (0+256)))& (0+255)
  9747  073A  160A  158A  2299  120A  118A  	fcall	_Lcd_Print_String
  9748  073F  1283               	bcf	3,5	;RP0=0, select bank2
  9749  0740  1703               	bsf	3,6	;RP1=1, select bank2
  9750  0741  083A               	movf	(main@C+3)^(0+256),w
  9751  0742  1683               	bsf	3,5	;RP0=1, select bank1
  9752  0743  1303               	bcf	3,6	;RP1=0, select bank1
  9753  0744  00AD               	movwf	(Lcd_Print_Ang@f+3)^(0+128)
  9754  0745  1283               	bcf	3,5	;RP0=0, select bank2
  9755  0746  1703               	bsf	3,6	;RP1=1, select bank2
  9756  0747  0839               	movf	(main@C+2)^(0+256),w
  9757  0748  1683               	bsf	3,5	;RP0=1, select bank1
  9758  0749  1303               	bcf	3,6	;RP1=0, select bank1
  9759  074A  00AC               	movwf	(Lcd_Print_Ang@f+2)^(0+128)
  9760  074B  1283               	bcf	3,5	;RP0=0, select bank2
  9761  074C  1703               	bsf	3,6	;RP1=1, select bank2
  9762  074D  0838               	movf	(main@C+1)^(0+256),w
  9763  074E  1683               	bsf	3,5	;RP0=1, select bank1
  9764  074F  1303               	bcf	3,6	;RP1=0, select bank1
  9765  0750  00AB               	movwf	(Lcd_Print_Ang@f+1)^(0+128)
  9766  0751  1283               	bcf	3,5	;RP0=0, select bank2
  9767  0752  1703               	bsf	3,6	;RP1=1, select bank2
  9768  0753  0837               	movf	main@C^(0+256),w
  9769  0754  1683               	bsf	3,5	;RP0=1, select bank1
  9770  0755  1303               	bcf	3,6	;RP1=0, select bank1
  9771  0756  00AA               	movwf	Lcd_Print_Ang@f^(0+128)
  9772  0757  160A  118A  2005  120A  118A  	fcall	_Lcd_Print_Ang
  9773                           
  9774                           ;sun_main.c: 208:   Lcd_Set_Cursor(2,8);
  9775  075C  3008               	movlw	8
  9776  075D  1683               	bsf	3,5	;RP0=1, select bank1
  9777  075E  1303               	bcf	3,6	;RP1=0, select bank1
  9778  075F  00DE               	movwf	??_main^(0+128)
  9779  0760  085E               	movf	??_main^(0+128),w
  9780  0761  00F4               	movwf	Lcd_Set_Cursor@b
  9781  0762  3002               	movlw	2
  9782  0763  160A  158A  23BB  120A  118A  	fcall	_Lcd_Set_Cursor
  9783                           
  9784                           ;sun_main.c: 209:         Lcd_Print_String(d); Lcd_Print_Ang(D);
  9785  0768  3019               	movlw	(low (main@d| (0+256)))& (0+255)
  9786  0769  160A  158A  2299  120A  118A  	fcall	_Lcd_Print_String
  9787  076E  1283               	bcf	3,5	;RP0=0, select bank2
  9788  076F  1703               	bsf	3,6	;RP1=1, select bank2
  9789  0770  083E               	movf	(main@D+3)^(0+256),w
  9790  0771  1683               	bsf	3,5	;RP0=1, select bank1
  9791  0772  1303               	bcf	3,6	;RP1=0, select bank1
  9792  0773  00AD               	movwf	(Lcd_Print_Ang@f+3)^(0+128)
  9793  0774  1283               	bcf	3,5	;RP0=0, select bank2
  9794  0775  1703               	bsf	3,6	;RP1=1, select bank2
  9795  0776  083D               	movf	(main@D+2)^(0+256),w
  9796  0777  1683               	bsf	3,5	;RP0=1, select bank1
  9797  0778  1303               	bcf	3,6	;RP1=0, select bank1
  9798  0779  00AC               	movwf	(Lcd_Print_Ang@f+2)^(0+128)
  9799  077A  1283               	bcf	3,5	;RP0=0, select bank2
  9800  077B  1703               	bsf	3,6	;RP1=1, select bank2
  9801  077C  083C               	movf	(main@D+1)^(0+256),w
  9802  077D  1683               	bsf	3,5	;RP0=1, select bank1
  9803  077E  1303               	bcf	3,6	;RP1=0, select bank1
  9804  077F  00AB               	movwf	(Lcd_Print_Ang@f+1)^(0+128)
  9805  0780  1283               	bcf	3,5	;RP0=0, select bank2
  9806  0781  1703               	bsf	3,6	;RP1=1, select bank2
  9807  0782  083B               	movf	main@D^(0+256),w
  9808  0783  1683               	bsf	3,5	;RP0=1, select bank1
  9809  0784  1303               	bcf	3,6	;RP1=0, select bank1
  9810  0785  00AA               	movwf	Lcd_Print_Ang@f^(0+128)
  9811  0786  160A  118A  2005  120A  118A  	fcall	_Lcd_Print_Ang
  9812                           
  9813                           ;sun_main.c: 210:   _delay((unsigned long)((1500)*(20000000/4000.0)));
  9814  078B  3027               	movlw	39
  9815  078C  1683               	bsf	3,5	;RP0=1, select bank1
  9816  078D  1303               	bcf	3,6	;RP1=0, select bank1
  9817  078E  00E0               	movwf	(??_main^(0+128)+2)
  9818  078F  300D               	movlw	13
  9819  0790  00DF               	movwf	(??_main^(0+128)+1)
  9820  0791  3025               	movlw	37
  9821  0792  00DE               	movwf	??_main^(0+128)
  9822  0793                     u4347:	
  9823  0793  0BDE               	decfsz	??_main^(0+128),f
  9824  0794  2F93               	goto	u4347
  9825  0795  0BDF               	decfsz	(??_main^(0+128)+1),f
  9826  0796  2F93               	goto	u4347
  9827  0797  0BE0               	decfsz	(??_main^(0+128)+2),f
  9828  0798  2F93               	goto	u4347
  9829  0799  2F9A               	nop2
  9830                           
  9831                           ;sun_main.c: 211:   Lcd_Clear();
  9832  079A  160A  158A  2226  120A  118A  	fcall	_Lcd_Clear
  9833                           
  9834                           ;sun_main.c: 212:         Lcd_Set_Cursor(1,1);
  9835  079F  01F4               	clrf	Lcd_Set_Cursor@b
  9836  07A0  0AF4               	incf	Lcd_Set_Cursor@b,f
  9837  07A1  3001               	movlw	1
  9838  07A2  160A  158A  23BB  120A  118A  	fcall	_Lcd_Set_Cursor
  9839                           
  9840                           ;sun_main.c: 213:         Lcd_Print_String(e); Lcd_Print_Ang(E);
  9841  07A7  301C               	movlw	(low (main@e| (0+256)))& (0+255)
  9842  07A8  160A  158A  2299  120A  118A  	fcall	_Lcd_Print_String
  9843  07AD  1283               	bcf	3,5	;RP0=0, select bank2
  9844  07AE  1703               	bsf	3,6	;RP1=1, select bank2
  9845  07AF  0842               	movf	(main@E+3)^(0+256),w
  9846  07B0  1683               	bsf	3,5	;RP0=1, select bank1
  9847  07B1  1303               	bcf	3,6	;RP1=0, select bank1
  9848  07B2  00AD               	movwf	(Lcd_Print_Ang@f+3)^(0+128)
  9849  07B3  1283               	bcf	3,5	;RP0=0, select bank2
  9850  07B4  1703               	bsf	3,6	;RP1=1, select bank2
  9851  07B5  0841               	movf	(main@E+2)^(0+256),w
  9852  07B6  1683               	bsf	3,5	;RP0=1, select bank1
  9853  07B7  1303               	bcf	3,6	;RP1=0, select bank1
  9854  07B8  00AC               	movwf	(Lcd_Print_Ang@f+2)^(0+128)
  9855  07B9  1283               	bcf	3,5	;RP0=0, select bank2
  9856  07BA  1703               	bsf	3,6	;RP1=1, select bank2
  9857  07BB  0840               	movf	(main@E+1)^(0+256),w
  9858  07BC  1683               	bsf	3,5	;RP0=1, select bank1
  9859  07BD  1303               	bcf	3,6	;RP1=0, select bank1
  9860  07BE  00AB               	movwf	(Lcd_Print_Ang@f+1)^(0+128)
  9861  07BF  1283               	bcf	3,5	;RP0=0, select bank2
  9862  07C0  1703               	bsf	3,6	;RP1=1, select bank2
  9863  07C1  083F               	movf	main@E^(0+256),w
  9864  07C2  1683               	bsf	3,5	;RP0=1, select bank1
  9865  07C3  1303               	bcf	3,6	;RP1=0, select bank1
  9866  07C4  00AA               	movwf	Lcd_Print_Ang@f^(0+128)
  9867  07C5  160A  118A  2005  120A  118A  	fcall	_Lcd_Print_Ang
  9868                           
  9869                           ;sun_main.c: 214:   _delay((unsigned long)((1500)*(20000000/4000.0)));
  9870  07CA  3027               	movlw	39
  9871  07CB  1683               	bsf	3,5	;RP0=1, select bank1
  9872  07CC  1303               	bcf	3,6	;RP1=0, select bank1
  9873  07CD  00E0               	movwf	(??_main^(0+128)+2)
  9874  07CE  300D               	movlw	13
  9875  07CF  00DF               	movwf	(??_main^(0+128)+1)
  9876  07D0  3025               	movlw	37
  9877  07D1  00DE               	movwf	??_main^(0+128)
  9878  07D2                     u4357:	
  9879  07D2  0BDE               	decfsz	??_main^(0+128),f
  9880  07D3  2FD2               	goto	u4357
  9881  07D4  0BDF               	decfsz	(??_main^(0+128)+1),f
  9882  07D5  2FD2               	goto	u4357
  9883  07D6  0BE0               	decfsz	(??_main^(0+128)+2),f
  9884  07D7  2FD2               	goto	u4357
  9885  07D8  2FD9               	nop2
  9886  07D9  160A  158A  2DBA   	goto	l3206
  9887  07DC                     __end_of_main:	


Data Sizes:
    Strings     6
    Constant    54
    Data        15
    BSS         4
    Persistent  0
    Stack       0

Auto Spaces:
    Space          Size  Autos    Used
    COMMON           14     14      14
    BANK0            80     80      80
    BANK1            80     66      73
    BANK3            96     86      86
    BANK2            96     83      95

Pointer List with Targets:

    eval_poly@d	PTR const  size(1) Largest target is 24
		 -> atan@coeff_a(CODE[24]), atan@coeff_b(CODE[20]), 

    sprintf@f	PTR const unsigned char  size(1) Largest target is 6
		 -> STR_1(CODE[6]), 

    sprintf@sp	PTR unsigned char  size(1) Largest target is 80
		 -> Lcd_Print_Ang@str(BANK3[80]), 

    sprintf@ap	PTR void [1] size(1) Largest target is 2
		 -> ?_sprintf(BANK0[2]), 

    Lcd_Print_String@a	PTR unsigned char  size(1) Largest target is 80
		 -> main@e(BANK2[3]), main@d(BANK2[3]), main@c(BANK2[3]), main@b(BANK2[3]), 
		 -> main@a(BANK2[3]), Lcd_Print_Ang@str(BANK3[80]), 


Critical Paths under _main in COMMON

    _main->_Lcd_Print_String
    _asin->_atan
    _sqrt->___fladd
    ___flneg->___fladd
    _eval_poly->___fladd
    _Lcd_Start->_Lcd_Cmd
    _Lcd_Set_Cursor->_Lcd_Cmd
    _Lcd_Print_Ang->_Lcd_Print_String
    _sprintf->___lwmod
    ___lwmod->___lwdiv
    ___xxtofl->_ADC_Read
    ___flsub->___fladd
    ___flsub->___xxtofl
    ___fladd->__Umul8_16
    ___flmul->___fladd
    _Lcd_Print_String->_Lcd_Print_Char
    _Lcd_Print_Char->_Lcd_SetBit
    _Lcd_Clear->_Lcd_Cmd
    _Lcd_Cmd->_Lcd_SetBit

Critical Paths under _main in BANK0

    _acos->___flsub
    _asin->___flsub
    _sqrt->___flsub
    _atan->___flsub
    _fabs->___flneg
    ___flneg->___fladd
    _eval_poly->___flmul
    ___fleq->_fabs
    ___fldiv->___flneg
    _Lcd_Print_Ang->___flsub
    _sprintf->___flmul
    ___flsub->___flmul
    ___flmul->___fldiv

Critical Paths under _main in BANK1

    _main->_acos
    _acos->_asin
    _asin->_atan
    _atan->_eval_poly
    _Lcd_Print_Ang->_sprintf

Critical Paths under _main in BANK3

    _main->_Lcd_Print_Ang

Critical Paths under _main in BANK2

    None.

Call Graph Tables:

 ---------------------------------------------------------------------------------
 (Depth) Function   	        Calls       Base Space   Used Autos Params    Refs
 ---------------------------------------------------------------------------------
 (0) _main                                                87    87      0   71495
                                             62 BANK1      4     4      0
                                              0 BANK2     83    83      0
                     _ADC_Initialize
                           _ADC_Read
                          _Lcd_Clear
                      _Lcd_Print_Ang
                   _Lcd_Print_String
                     _Lcd_Set_Cursor
                          _Lcd_Start
                            ___fladd
                            ___fldiv
                            ___flmul
                           ___xxtofl
                               _acos
                               _sqrt
 ---------------------------------------------------------------------------------
 (1) _acos                                                 8     4      4   44309
                                             54 BANK1      8     4      4
                            ___flsub
                               _asin
 ---------------------------------------------------------------------------------
 (2) _asin                                                24    20      4   39485
                                             30 BANK1     24    20      4
                            ___fldiv
                             ___flge
                            ___flmul
                            ___flneg
                            ___flsub
                               _atan
                               _fabs
                               _sqrt
 ---------------------------------------------------------------------------------
 (1) _sqrt                                                29    25      4    1033
                                              0 BANK1     29    25      4
                            ___fladd (ARG)
                            ___flmul (ARG)
                            ___flsub (ARG)
 ---------------------------------------------------------------------------------
 (3) _atan                                                22    18      4   23406
                                             13 COMMON     1     1      0
                                              9 BANK1     21    17      4
                            ___fldiv
                             ___fleq
                             ___flge
                            ___flmul
                            ___flneg
                            ___flsub
                          _eval_poly
                               _fabs
 ---------------------------------------------------------------------------------
 (3) _fabs                                                 4     0      4    1737
                                             20 BANK0      4     0      4
                             ___flge
                            ___flneg
 ---------------------------------------------------------------------------------
 (4) ___flneg                                              4     0      4     349
                                             16 BANK0      4     0      4
                            ___fladd (ARG)
 ---------------------------------------------------------------------------------
 (4) ___flge                                              12     4      8    1094
                                              0 COMMON    12     4      8
 ---------------------------------------------------------------------------------
 (4) _eval_poly                                           16     9      7    8227
                                             72 BANK0      7     0      7
                                              0 BANK1      9     9      0
                            ___fladd
                            ___flmul
 ---------------------------------------------------------------------------------
 (4) ___fleq                                              12     4      8     242
                                             24 BANK0     12     4      8
                               _fabs (ARG)
 ---------------------------------------------------------------------------------
 (4) ___fldiv                                             26    18      8    2641
                                             20 BANK0     26    18      8
                            ___flneg (ARG)
 ---------------------------------------------------------------------------------
 (1) _Lcd_Start                                            6     6      0     244
                                              4 COMMON     6     6      0
                            _Lcd_Cmd
                         _Lcd_SetBit
 ---------------------------------------------------------------------------------
 (1) _Lcd_Set_Cursor                                       7     6      1     760
                                              4 COMMON     7     6      1
                            _Lcd_Cmd
 ---------------------------------------------------------------------------------
 (1) _Lcd_Print_Ang                                       91    87      4   11948
                                             10 BANK1      5     1      4
                                              0 BANK3     86    86      0
                   _Lcd_Print_String
                            ___flmul
                            ___flsub
                            ___fltol
                           ___xxtofl
                            _sprintf
 ---------------------------------------------------------------------------------
 (2) _sprintf                                             25    18      7    1211
                                             72 BANK0      7     0      7
                                              0 BANK1     10    10      0
                            ___flmul (ARG)
                            ___lwdiv
                            ___lwmod
 ---------------------------------------------------------------------------------
 (3) ___lwmod                                              6     2      4     311
                                              8 COMMON     6     2      4
                            ___lwdiv (ARG)
 ---------------------------------------------------------------------------------
 (3) ___lwdiv                                              8     4      4     314
                                              0 COMMON     8     4      4
 ---------------------------------------------------------------------------------
 (1) ___xxtofl                                            14    10      4     778
                                              5 COMMON     8     4      4
                                              0 BANK0      6     6      0
                           _ADC_Read (ARG)
 ---------------------------------------------------------------------------------
 (2) ___fltol                                             11     7      4     305
                                              0 COMMON    11     7      4
 ---------------------------------------------------------------------------------
 (4) ___flsub                                              8     0      8    4309
                                             72 BANK0      8     0      8
                            ___fladd
                            ___fldiv (ARG)
                            ___flmul (ARG)
                            ___flneg (ARG)
                           ___xxtofl (ARG)
 ---------------------------------------------------------------------------------
 (5) ___fladd                                             20    12      8    3352
                                              9 COMMON     4     4      0
                                              0 BANK0     16     8      8
                          __Umul8_16 (ARG)
 ---------------------------------------------------------------------------------
 (5) ___flmul                                             26    18      8    4241
                                             46 BANK0     26    18      8
                          __Umul8_16
                            ___fladd (ARG)
                            ___fldiv (ARG)
 ---------------------------------------------------------------------------------
 (6) __Umul8_16                                            9     7      2     799
                                              0 COMMON     9     7      2
 ---------------------------------------------------------------------------------
 (1) _Lcd_Print_String                                     4     4      0     558
                                             13 COMMON     1     1      0
                                              0 BANK0      3     3      0
                     _Lcd_Print_Char
 ---------------------------------------------------------------------------------
 (2) _Lcd_Print_Char                                      12    12      0     270
                                              1 COMMON    12    12      0
                         _Lcd_SetBit
 ---------------------------------------------------------------------------------
 (1) _Lcd_Clear                                            0     0      0     110
                            _Lcd_Cmd
 ---------------------------------------------------------------------------------
 (2) _Lcd_Cmd                                              3     3      0     110
                                              1 COMMON     3     3      0
                         _Lcd_SetBit
 ---------------------------------------------------------------------------------
 (2) _Lcd_SetBit                                           1     1      0      88
                                              0 COMMON     1     1      0
 ---------------------------------------------------------------------------------
 (1) _ADC_Read                                             5     3      2      22
                                              0 COMMON     5     3      2
 ---------------------------------------------------------------------------------
 (1) _ADC_Initialize                                       0     0      0       0
 ---------------------------------------------------------------------------------
 Estimated maximum stack depth 6
 ---------------------------------------------------------------------------------

 Call Graph Graphs:

 _main (ROOT)
   _ADC_Initialize
   _ADC_Read
   _Lcd_Clear
     _Lcd_Cmd
       _Lcd_SetBit
   _Lcd_Print_Ang
     _Lcd_Print_String
       _Lcd_Print_Char
         _Lcd_SetBit
     ___flmul
       __Umul8_16
       ___fladd (ARG)
         __Umul8_16 (ARG)
       ___fldiv (ARG)
         ___flneg (ARG)
           ___fladd (ARG)
             __Umul8_16 (ARG)
     ___flsub
       ___fladd
         __Umul8_16 (ARG)
       ___fldiv (ARG)
         ___flneg (ARG)
           ___fladd (ARG)
             __Umul8_16 (ARG)
       ___flmul (ARG)
         __Umul8_16
         ___fladd (ARG)
           __Umul8_16 (ARG)
         ___fldiv (ARG)
           ___flneg (ARG)
             ___fladd (ARG)
               __Umul8_16 (ARG)
       ___flneg (ARG)
         ___fladd (ARG)
           __Umul8_16 (ARG)
       ___xxtofl (ARG)
         _ADC_Read (ARG)
     ___fltol
     ___xxtofl
       _ADC_Read (ARG)
     _sprintf
       ___flmul (ARG)
         __Umul8_16
         ___fladd (ARG)
           __Umul8_16 (ARG)
         ___fldiv (ARG)
           ___flneg (ARG)
             ___fladd (ARG)
               __Umul8_16 (ARG)
       ___lwdiv (ARG)
       ___lwmod (ARG)
         ___lwdiv (ARG)
   _Lcd_Print_String
     _Lcd_Print_Char
       _Lcd_SetBit
   _Lcd_Set_Cursor
     _Lcd_Cmd
       _Lcd_SetBit
   _Lcd_Start
     _Lcd_Cmd
       _Lcd_SetBit
     _Lcd_SetBit
   ___fladd
     __Umul8_16 (ARG)
   ___fldiv
     ___flneg (ARG)
       ___fladd (ARG)
         __Umul8_16 (ARG)
   ___flmul
     __Umul8_16
     ___fladd (ARG)
       __Umul8_16 (ARG)
     ___fldiv (ARG)
       ___flneg (ARG)
         ___fladd (ARG)
           __Umul8_16 (ARG)
   ___xxtofl
     _ADC_Read (ARG)
   _acos
     ___flsub
       ___fladd
         __Umul8_16 (ARG)
       ___fldiv (ARG)
         ___flneg (ARG)
           ___fladd (ARG)
             __Umul8_16 (ARG)
       ___flmul (ARG)
         __Umul8_16
         ___fladd (ARG)
           __Umul8_16 (ARG)
         ___fldiv (ARG)
           ___flneg (ARG)
             ___fladd (ARG)
               __Umul8_16 (ARG)
       ___flneg (ARG)
         ___fladd (ARG)
           __Umul8_16 (ARG)
       ___xxtofl (ARG)
         _ADC_Read (ARG)
     _asin
       ___fldiv
         ___flneg (ARG)
           ___fladd (ARG)
             __Umul8_16 (ARG)
       ___flge
       ___flmul
         __Umul8_16
         ___fladd (ARG)
           __Umul8_16 (ARG)
         ___fldiv (ARG)
           ___flneg (ARG)
             ___fladd (ARG)
               __Umul8_16 (ARG)
       ___flneg
         ___fladd (ARG)
           __Umul8_16 (ARG)
       ___flsub
         ___fladd
           __Umul8_16 (ARG)
         ___fldiv (ARG)
           ___flneg (ARG)
             ___fladd (ARG)
               __Umul8_16 (ARG)
         ___flmul (ARG)
           __Umul8_16
           ___fladd (ARG)
             __Umul8_16 (ARG)
           ___fldiv (ARG)
             ___flneg (ARG)
               ___fladd (ARG)
                 __Umul8_16 (ARG)
         ___flneg (ARG)
           ___fladd (ARG)
             __Umul8_16 (ARG)
         ___xxtofl (ARG)
           _ADC_Read (ARG)
       _atan
         ___fldiv
           ___flneg (ARG)
             ___fladd (ARG)
               __Umul8_16 (ARG)
         ___fleq
           _fabs (ARG)
             ___flge
             ___flneg
               ___fladd (ARG)
                 __Umul8_16 (ARG)
         ___flge
         ___flmul
           __Umul8_16
           ___fladd (ARG)
             __Umul8_16 (ARG)
           ___fldiv (ARG)
             ___flneg (ARG)
               ___fladd (ARG)
                 __Umul8_16 (ARG)
         ___flneg
           ___fladd (ARG)
             __Umul8_16 (ARG)
         ___flsub
           ___fladd
             __Umul8_16 (ARG)
           ___fldiv (ARG)
             ___flneg (ARG)
               ___fladd (ARG)
                 __Umul8_16 (ARG)
           ___flmul (ARG)
             __Umul8_16
             ___fladd (ARG)
               __Umul8_16 (ARG)
             ___fldiv (ARG)
               ___flneg (ARG)
                 ___fladd (ARG)
                   __Umul8_16 (ARG)
           ___flneg (ARG)
             ___fladd (ARG)
               __Umul8_16 (ARG)
           ___xxtofl (ARG)
             _ADC_Read (ARG)
         _eval_poly
           ___fladd
             __Umul8_16 (ARG)
           ___flmul
             __Umul8_16
             ___fladd (ARG)
               __Umul8_16 (ARG)
             ___fldiv (ARG)
               ___flneg (ARG)
                 ___fladd (ARG)
                   __Umul8_16 (ARG)
         _fabs
           ___flge
           ___flneg
             ___fladd (ARG)
               __Umul8_16 (ARG)
       _fabs
         ___flge
         ___flneg
           ___fladd (ARG)
             __Umul8_16 (ARG)
       _sqrt
         ___fladd (ARG)
           __Umul8_16 (ARG)
         ___flmul (ARG)
           __Umul8_16
           ___fladd (ARG)
             __Umul8_16 (ARG)
           ___fldiv (ARG)
             ___flneg (ARG)
               ___fladd (ARG)
                 __Umul8_16 (ARG)
         ___flsub (ARG)
           ___fladd
             __Umul8_16 (ARG)
           ___fldiv (ARG)
             ___flneg (ARG)
               ___fladd (ARG)
                 __Umul8_16 (ARG)
           ___flmul (ARG)
             __Umul8_16
             ___fladd (ARG)
               __Umul8_16 (ARG)
             ___fldiv (ARG)
               ___flneg (ARG)
                 ___fladd (ARG)
                   __Umul8_16 (ARG)
           ___flneg (ARG)
             ___fladd (ARG)
               __Umul8_16 (ARG)
           ___xxtofl (ARG)
             _ADC_Read (ARG)
   _sqrt
     ___fladd (ARG)
       __Umul8_16 (ARG)
     ___flmul (ARG)
       __Umul8_16
       ___fladd (ARG)
         __Umul8_16 (ARG)
       ___fldiv (ARG)
         ___flneg (ARG)
           ___fladd (ARG)
             __Umul8_16 (ARG)
     ___flsub (ARG)
       ___fladd
         __Umul8_16 (ARG)
       ___fldiv (ARG)
         ___flneg (ARG)
           ___fladd (ARG)
             __Umul8_16 (ARG)
       ___flmul (ARG)
         __Umul8_16
         ___fladd (ARG)
           __Umul8_16 (ARG)
         ___fldiv (ARG)
           ___flneg (ARG)
             ___fladd (ARG)
               __Umul8_16 (ARG)
       ___flneg (ARG)
         ___fladd (ARG)
           __Umul8_16 (ARG)
       ___xxtofl (ARG)
         _ADC_Read (ARG)

 Address spaces:
Name               Size   Autos  Total    Cost      Usage
BANK3               60     56      56       9       89.6%
BITBANK3            60      0       0       8        0.0%
SFR3                 0      0       0       4        0.0%
BITSFR3              0      0       0       4        0.0%
BANK2               60     53      5F      11       99.0%
BITBANK2            60      0       0      10        0.0%
SFR2                 0      0       0       5        0.0%
BITSFR2              0      0       0       5        0.0%
BANK1               50     42      49       7       91.3%
BITBANK1            50      0       0       6        0.0%
SFR1                 0      0       0       2        0.0%
BITSFR1              0      0       0       2        0.0%
BANK0               50     50      50       5      100.0%
BITBANK0            50      0       0       4        0.0%
SFR0                 0      0       0       1        0.0%
BITSFR0              0      0       0       1        0.0%
COMMON               E      E       E       1      100.0%
BITCOMMON            E      0       0       0        0.0%
CODE                 0      0       0       0        0.0%
DATA                 0      0     15C      12        0.0%
ABS                  0      0     15C       3        0.0%
NULL                 0      0       0       0        0.0%
STACK                0      0       0       2        0.0%
EEDATA             100      0       0       0        0.0%


Microchip Technology PIC Macro Assembler V2.05 build -831301201 
Symbol Table                                                                                   Tue Jul 30 19:35:13 2019

              ___fldiv@aexp 004D                ___fldiv@bexp 004C                           _i 00E4  
                         pc 0002                ___fldiv@sign 0045                 __CFG_CP$OFF 0000  
                        l52 1A6C                          l53 1A6F                          l46 1B1C  
                        l54 1A73                          l55 1A74                          l56 1A78  
                        l57 1A79                          l58 1A7D                          fsr 0004  
       __Umul8_16@word_mpld 0076                         l402 1E68                         l522 142B  
                       l418 1D42                         l524 1407                         l518 1390  
                       l560 156A                         l552 1552                         l626 0FF3  
                       l394 1C21                         l539 14EA                         l395 1C3B  
                       l740 1AEF                         l574 11E9                         l646 0939  
                       l399 1E02                         l719 1639                         l672 1E9A  
                       l596 1328                         l685 1EF0                         l686 1EFA  
                       l678 1EDA                         l598 1336                         _RD2 0042  
                       _RD3 0043                         _RD4 0044                         _RD5 0045  
                       _RD6 0046                         _RD7 0047                __CFG_CPD$OFF 0000  
                       fsr0 0004                         indf 0000                __CFG_FOSC$HS 0000  
              ___flmul@aexp 0060                ___flmul@bexp 0061                ___flmul@sign 005B  
              ___flmul@temp 0066                ___flmul@prod 0062                __CFG_LVP$OFF 0000  
              ___fltol@exp1 007A                        l2014 1E1C                        l2202 151F  
                      l2122 1414                        l2114 13D6                        l2050 135B  
                      l2018 1E42                        l2220 1562                        l2140 143B  
                      l2124 1416                        l2132 1427                        l2150 1460  
                      l2054 135E                        l2224 1566                        l2056 1366  
                      l2074 1385                        l2244 0D08                        l2148 145E  
                      l2084 139A                        l2412 11B8                        l2334 0F79  
                      l2326 0F45                        l2262 0D2D                        l2246 0D0A  
                      l2190 1512                        l2158 1470                        l2078 1388  
                      l3206 1DBA                        l2352 0FC3                        l2328 0F62  
                      l2264 0D2F                        l2248 0D12                        l2184 150B  
                      l2176 14FC                        l2168 14DC                        l2192 1514  
                      l2504 12C1                        l2432 11DE                        l2416 11BB  
                      l3160 0A54                        l2338 0F7B                        l2274 0D45  
                      l2266 0D37                        l3314 1F62                        l2522 130E  
                      l2418 11C3                        l2348 0FAD                        l2508 12C3  
                      l2452 1214                        l2436 11E1                        l2620 0897  
                      l2604 0866                        l3172 0B74                        l2358 0FDC  
                      l2198 151D                        l2702 1BB6                        l2534 1332  
                      l2518 12F5                        l2446 1208                        l2614 087B  
                      l3182 0C4D                        l2720 082B                        l2472 1263  
                      l2480 123F                        l2552 1182                        l2608 086E  
                      l2714 080F                        l2802 1F86                        l2482 1287  
                      l2650 0929                        l2626 08AC                        l2716 081D  
                      l2724 0836                        l2388 1C4D                        l2652 08EA  
                      l2644 08E9                        l2910 1F17                        l2822 1FBA  
                      l2814 1FB6                        l2478 1282                        l2750 17CC  
                      l2734 15DA                        l2654 0960                        l2840 1D07  
                      l2808 1FA7                        l2824 1F27                        l2496 128D  
                      l2770 1A9E                        l2690 1B87                        l2826 1FFB  
                      l2498 12AA                        l2746 17AA                        l2666 09D3  
                      l2836 1CFE                        l2692 1B95                        l2780 1F4B  
                      l2856 1D2E                        l2866 1D51                        l2858 1D3E  
                      l2882 1EA9                        l2698 1BAB                        l2786 1F6D  
                      l2876 1E92                        l2796 1F84                        l1998 1AE7  
                      l2886 1EAD                        l2896 1EEE                        l2888 1EBF  
                      l2898 1EDF                        l2978 1BE0                        _ADON 00F8  
                      STR_1 003F                        u2221 1E2D                        u2222 1E2E  
                      u2223 1E33                        u2224 1E34                        u2241 1E53  
                      u2225 1E39                        u2242 1E54                        u2226 1E3A  
                      u2243 1E59                        u2244 1E5A                        u2245 1E5F  
                      u2246 1E60                        u2175 1AF0                        u2511 149D  
                      u2503 1484                        u2415 141C                        u2520 14B1  
                      u2512 149E                        u3065 0F98                        u2521 14B2  
                      u2513 14A3                        u4025 1D2F                        u3305 1271  
                      u2522 14B7                        u2514 14A4                        u2370 13F6  
                      u3075 0FB6                        u2523 14B8                        u2515 14A9  
                      u4115 1EB6                        u2516 14AA                        u2380 13F7  
                      u3085 0FCE                        u2365 13EA                        u3165 1C49  
                      u4055 1D47                        u4135 1ED2                        u3335 1291  
                      u3505 1B36                        u4305 1BEC                        u3425 12E0  
                      u3265 1248                        u4155 1EE7                        u3435 12FE  
                      u3355 129C                        u3275 1251                        u2565 14FE  
                      u3445 1319                        u3605 0904                        u4255 1B04  
                      u2495 1464                        u3295 125C                        u2665 153C  
                      u3625 0942                        u4195 1F02                        u3475 10BD  
                      u3635 0954                        u4347 0793                        u2925 0EEE  
                      u3725 1B8A                        u4285 1BC7                        u3485 10FB  
                      u4357 07D2                        u2855 0DF5                        u3815 0823  
                      u4367 1C5F                        u3655 0969                        u3575 08B9  
                      u2945 0F13                        u3745 1B96                        u3825 082C  
                      u4377 1C6E                        u3665 098E                        u3850 15F5  
                      u4387 1A90                        u3755 1BA2                        u3595 08E2  
                      u3860 15F6                        u4397 1B14                        u2965 0F31  
                      u2885 0E52                        u3765 1BAC                        u2975 0F49  
                      u3935 1F9D                        u3695 09BD                        u2995 0F54  
                      u3795 0812                        u3995 1D10                __CFG_WRT$OFF 0000  
                      _acos 1CA2                        _fabs 1B4E                        _atan 1575  
                      _asin 09F9                        _main 1D60                        btemp 007E  
                      _sqrt 083B            __end_of_ADC_Read 1B25                        start 0000  
           ___fldiv@new_exp 0046          Lcd_Print_Char@data 0074             __end_of_Lcd_Cmd 1A99  
                _Lcd_SetBit 1A65                       ?_acos 00D6                       ?_fabs 0034  
             ___fltol@sign1 0079                       ?_atan 00A9                       ?_asin 00BE  
           __end_of___fladd 1575                       ?_main 0070             __end_of___fldiv 133E  
           __end_of___flneg 1A3C               __CFG_WDTE$OFF 0000             __end_of___flmul 1000  
           __end_of___flsub 1ADD             __end_of___fltol 1D60                       ?_sqrt 00A0  
           __end_of___lwdiv 1BBB             __end_of___lwmod 083B     __size_of_Lcd_Set_Cursor 004A  
                     _TRISD 0088             __end_of_dpowers 0013                       acos@x 00D6  
                     fabs@d 0034                       _errno 00E2                       atan@f 00A9  
                     atan@x 00B1                       atan@y 00AD                       asin@x 00BE  
                     asin@y 00CE                       main@A 012F                       main@B 0133  
                     main@C 0137                       main@D 013B                       main@E 013F  
                     main@a 0110                       main@b 0113                       main@c 0116  
                     main@d 0119                       main@e 011C                       main@r 0157  
                     main@x 0143                       main@y 0147                       main@z 014B  
            __CFG_BOREN$OFF 0000                       pclath 000A   __size_of_Lcd_Print_String 0022  
                     sqrt@a 00A0                       sqrt@i 00A9                       sqrt@p 00AE  
                     status 0003                       wtemp0 007E             __end_of_sprintf 2000  
   __size_of_Lcd_Print_Char 0029             __initialization 07DC                __end_of_acos 1CF5  
              __end_of_fabs 1B7F                __end_of_atan 1800                __end_of_asin 0CEB  
              __end_of_main 07DC                __end_of_sqrt 09F9                      ??_acos 007E  
                    ??_fabs 007D                      ??_atan 007D                      ??_asin 007E  
                    ??_main 00DE                      ??_sqrt 00A4          __size_of_Lcd_Clear 000B  
        __size_of_Lcd_Start 0053                      _ADCON0 001F                      _ADCON1 009F  
                    _ADRESH 001E                      _ADRESL 009E                   ??_Lcd_Cmd 0071  
                    _TRISB0 0430            __end_of___xxtofl 1F20              Lcd_Print_Ang@f 00AA  
     __end_of_Lcd_Print_Ang 10B6              __CFG_PWRTE$OFF 0000                      ___flge 1DE8  
                    ___fleq 1C05                   ??___fladd 0028                   ??___fldiv 003C  
                 ??___flneg 007D                   ??___flmul 0056                   ??___flsub 007D  
                 ??___fltol 0074                   ??___lwdiv 0074                   ??___lwmod 007C  
           ADC_Read@channel 0074                 ?_Lcd_SetBit 0070          __size_of__Umul8_16 0023  
                 ?_ADC_Read 0070                   ??_sprintf 00A0             Lcd_Set_Cursor@a 0077  
           Lcd_Set_Cursor@b 0074             Lcd_Set_Cursor@y 0079             Lcd_Set_Cursor@z 0078  
                ___flge@ff1 0070                  ___flge@ff2 0074                ___xxtofl@arg 0022  
              ___xxtofl@exp 0021                ___xxtofl@val 0075                  ___fleq@ff1 0038  
                ___fleq@ff2 003C     __end_of__initialization 07FC                  ___flneg@f1 0030  
         __end_of_Lcd_Clear 1A31                eval_poly@res 00A5                  ___fltol@f1 0070  
         __end_of_Lcd_Start 1CA2              __pcstackCOMMON 0070                __pidataBANK1 0806  
              __pidataBANK2 1A48              _Lcd_Set_Cursor 1BBB                  ??_ADC_Read 0072  
                __pbssBANK1 00E2          __size_of_eval_poly 00E5            _Lcd_Print_String 1A99  
       __size_of_Lcd_SetBit 001A              _Lcd_Print_Char 1B25           __end_of__Umul8_16 1B00  
                __pmaintext 1D60                     ?___flge 0070                     ?___fleq 0038  
        Lcd_SetBit@data_bit 0070      __end_of_Lcd_Set_Cursor 1C05     __size_of_ADC_Initialize 000C  
                 ?___xxtofl 0075                  __stringtab 0003                     _Lcd_Cmd 1A7F  
    __end_of_Lcd_Print_Char 1B4E             __size_of___flge 0093             __size_of___fleq 004A  
                   ___fladd 133E                     ___fldiv 119B                     ___flneg 1A31  
                   ___flmul 0CEB                     ___flsub 1ABB                     ___fltol 1CF5  
                   ___lwdiv 1B7F                     ___lwmod 0809           __end_of_eval_poly 119B  
           ?_Lcd_Set_Cursor 0074                     __ptext1 1CA2                     __ptext2 09F9  
                   __ptext3 083B                     __ptext4 1575                     __ptext5 1B4E  
                   __ptext6 1A31                     __ptext7 1DE8                     __ptext8 10B6  
                   __ptext9 1C05                     _dpowers 0009             atan@val_squared 00B6  
                ??___xxtofl 0079                     atan@val 00BA                     _sprintf 1F20  
      end_of_initialization 07FC             ?_Lcd_Print_Char 0070                     psplit$0 F002D  
                   sqrt@grs 00AF                     sqrt@exp 00B3                ??_Lcd_SetBit 0070  
               ___fladd@grs 007C               ___xxtofl@sign 0020                 ___fldiv@grs 0048  
               ___fldiv@rem 0041        pnum$maintext_split_1 002D           __size_of_ADC_Read 0025  
               ___flmul@grs 005C          __end_of_Lcd_SetBit 1A7F           Lcd_Print_Ang@fval 01E0  
         Lcd_Print_Ang@ival 01E4                   _Lcd_Clear 1A26                   _Lcd_Start 1C4F  
            __end_of___flge 1E7B              __end_of___fleq 1C4F              _ADC_Initialize 1A3C  
  __end_of_Lcd_Print_String 1ABB         start_initialization 07DC                  eval_poly@d 006C  
    __size_of_Lcd_Print_Ang 00B1                  eval_poly@n 006D                  eval_poly@x 0068  
         Lcd_Print_String@a 0022           Lcd_Print_String@i 0020                  ?_Lcd_Clear 0070  
                  ??___flge 0078                    ??___fleq 0040                  init_fetch0 1A54  
                ?_Lcd_Start 0070      __end_of_ADC_Initialize 1A48                   __Umul8_16 1ADD  
               __pdataBANK1 00E6                 __pdataBANK2 0163  Lcd_Print_Char@Lower_Nibble 0072  
                 ___fladd@a 0024                   ___fladd@b 0020                   ___fldiv@a 0034  
                 ___fldiv@b 0038                   ___flmul@a 0052                   ___flmul@b 004E  
                 ___flsub@a 0068                   ___flsub@b 006C                   ___latbits 0002  
             __pcstackBANK0 0020               __pcstackBANK1 00A0               __pcstackBANK2 0110  
             __pcstackBANK3 0190           __size_of___xxtofl 00A5                    ?_Lcd_Cmd 0070  
               sprintf@flag 00A4                 sprintf@prec 00A5               _Lcd_Print_Ang 1005  
          ___lwdiv@dividend 0072            ??_Lcd_Set_Cursor 0075                    ?___fladd 0020  
                  ?___fldiv 0034                    ?___flneg 0030                    ?___flmul 004E  
                  ?___flsub 0068                    ?___fltol 0070                  ?__Umul8_16 0070  
                  ?___lwdiv 0070                    ?___lwmod 0078             ?_ADC_Initialize 0070  
                 __pstrings 0003                   _eval_poly 10B6                    _ADC_Read 1B00  
          ??_Lcd_Print_Char 0071            ___lwdiv@quotient 0075                    ?_sprintf 0068  
                 atan@recip 00B5              ?_Lcd_Print_Ang 00AA                    Lcd_Cmd@a 0073  
                  _GO_nDONE 00FA                 ??_Lcd_Clear 0074                   main@F1010 016C  
                 main@F1012 0169                   main@F1014 0166                   main@F1016 0163  
                 main@F1018 00E6                 ??_Lcd_Start 0074                 __stringbase 0008  
                ?_eval_poly 0068            Lcd_Print_Ang@str 0190         __end_ofatan@coeff_a 002B  
       __end_ofatan@coeff_b 003F            __size_of_Lcd_Cmd 001A                 ??__Umul8_16 0072  
              pnum$maintext 000F            __size_of___fladd 0237            __size_of___fldiv 01A3  
          __size_of___flneg 000B            __size_of___flmul 0315            __size_of___flsub 0022  
          __size_of___fltol 006B                    _acos$880 00DA            __size_of___lwdiv 003C  
          __size_of___lwmod 0032          __end_of__stringtab 0009           ?_Lcd_Print_String 0070  
                  _asin$881 00C6                    _asin$882 00D2                    _asin$883 00CA  
                sprintf@val 00A6                    ___xxtofl 1E7B          ??_Lcd_Print_String 007D  
                  _main$874 011F                    _main$875 0123                    _main$876 0127  
                  _main$877 012B                    _main$878 015B                    _main$879 015F  
           ___lwdiv@divisor 0070             ___lwdiv@counter 0077                    __ptext10 119B  
                  __ptext11 1C4F                    __ptext20 133E                    __ptext12 1BBB  
                  __ptext21 0CEB                    __ptext13 1005                    __ptext22 1ADD  
                  __ptext14 1F20                    __ptext23 1A99                    __ptext15 0809  
                  __ptext24 1B25                    __ptext16 1B7F                    __ptext25 1A26  
                  __ptext17 1E7B                    __ptext26 1A7F                    __ptext18 1CF5  
                  __ptext27 1A65                    __ptext19 1ABB                    __ptext28 1B00  
                  __ptext29 1A3C            __size_of_sprintf 00E0             ??_Lcd_Print_Ang 00AE  
             __size_of_acos 0053               __size_of_fabs 0031               __size_of_atan 028B  
             __size_of_asin 02F2               __size_of_main EA7C               __size_of_sqrt 01BE  
Lcd_Print_Char@Upper_Nibble 0073                    main@negx 014F                    main@negy 0153  
               atan@coeff_a 0013                 atan@coeff_b 002B                 ??_eval_poly 00A0  
                  init_ram0 1A58                   sqrt@tfrac 00AA                   sprintf@ap 00A3  
                 sprintf@sp 00A8            ___lwmod@dividend 007A            ??_ADC_Initialize 0070  
                 stringcode 0003          Lcd_Set_Cursor@temp 007A                    sqrt@frac 00B9  
                  sqrt@sign 00A8                    sqrt@root 00B5      __Umul8_16@multiplicand 0070  
                  sprintf@c 00A9                    sprintf@f 0068             ___lwmod@divisor 0078  
           ___lwmod@counter 007D                    stringdir 0003                    stringtab 0003  
             ___fladd@signs 0079                ___fladd@aexp 007A                ___fladd@bexp 007B  
      __Umul8_16@multiplier 0078           __Umul8_16@product 0074  
